ARM GAS  C:\Users\Gautam\AppData\Local\Temp\cc5zp8Ja.s 			page 1


   1              		.cpu cortex-m0plus
   2              		.arch armv6s-m
   3              		.fpu softvfp
   4              		.eabi_attribute 20, 1
   5              		.eabi_attribute 21, 1
   6              		.eabi_attribute 23, 3
   7              		.eabi_attribute 24, 1
   8              		.eabi_attribute 25, 1
   9              		.eabi_attribute 26, 1
  10              		.eabi_attribute 30, 1
  11              		.eabi_attribute 34, 0
  12              		.eabi_attribute 18, 4
  13              		.file	"battery.c"
  14              		.text
  15              	.Ltext0:
  16              		.cfi_sections	.debug_frame
  17              		.file 1 "../Src/battery.c"
  18              		.section	.text.ClassifyBattery,"ax",%progbits
  19              		.align	1
  20              		.syntax unified
  21              		.code	16
  22              		.thumb_func
  24              	ClassifyBattery:
  25              	.LVL0:
  26              	.LFB0:
   1:../Src/battery.c **** #include "battery.h"
   2:../Src/battery.c **** #include <string.h>
   3:../Src/battery.c **** 
   4:../Src/battery.c **** /* =====================================================
   5:../Src/battery.c ****    Static Module State
   6:../Src/battery.c ****    ===================================================== */
   7:../Src/battery.c **** 
   8:../Src/battery.c **** static BatteryConfig_t g_config;
   9:../Src/battery.c **** static BatteryRuntime_t g_runtime;
  10:../Src/battery.c **** 
  11:../Src/battery.c **** /* =====================================================
  12:../Src/battery.c ****    Classification Logic
  13:../Src/battery.c ****    ===================================================== */
  14:../Src/battery.c **** 
  15:../Src/battery.c **** static BatteryHealth_t ClassifyBattery(uint32_t vbat_mv)
  16:../Src/battery.c **** {
  27              		.loc 1 16 1 view -0
  28              		.cfi_startproc
  29              		@ args = 0, pretend = 0, frame = 0
  30              		@ frame_needed = 0, uses_anonymous_args = 0
  31              		@ link register save eliminated.
  17:../Src/battery.c ****     if (vbat_mv >= g_config.threshold_65)
  32              		.loc 1 17 5 view .LVU1
  33              		.loc 1 17 28 is_stmt 0 view .LVU2
  34 0000 094B     		ldr	r3, .L6
  35 0002 DB68     		ldr	r3, [r3, #12]
  36              		.loc 1 17 8 view .LVU3
  37 0004 8342     		cmp	r3, r0
  38 0006 09D9     		bls	.L3
  18:../Src/battery.c ****         return BATTERY_NORMAL;
  19:../Src/battery.c ****     else if (vbat_mv >= g_config.threshold_40)
  39              		.loc 1 19 10 is_stmt 1 view .LVU4
ARM GAS  C:\Users\Gautam\AppData\Local\Temp\cc5zp8Ja.s 			page 2


  40              		.loc 1 19 33 is_stmt 0 view .LVU5
  41 0008 074B     		ldr	r3, .L6
  42 000a 9B68     		ldr	r3, [r3, #8]
  43              		.loc 1 19 13 view .LVU6
  44 000c 8342     		cmp	r3, r0
  45 000e 07D9     		bls	.L4
  20:../Src/battery.c ****         return BATTERY_DEEP_DISCHARGE;
  21:../Src/battery.c ****     else if (vbat_mv >= g_config.threshold_20)
  46              		.loc 1 21 10 is_stmt 1 view .LVU7
  47              		.loc 1 21 33 is_stmt 0 view .LVU8
  48 0010 054B     		ldr	r3, .L6
  49 0012 5B68     		ldr	r3, [r3, #4]
  50              		.loc 1 21 13 view .LVU9
  51 0014 8342     		cmp	r3, r0
  52 0016 05D8     		bhi	.L5
  22:../Src/battery.c ****         return BATTERY_PRECHARGE;
  53              		.loc 1 22 16 view .LVU10
  54 0018 0120     		movs	r0, #1
  55              	.LVL1:
  56              	.L2:
  23:../Src/battery.c ****     else
  24:../Src/battery.c ****         return BATTERY_INVALID;
  25:../Src/battery.c **** }
  57              		.loc 1 25 1 view .LVU11
  58              		@ sp needed
  59 001a 7047     		bx	lr
  60              	.LVL2:
  61              	.L3:
  18:../Src/battery.c ****     else if (vbat_mv >= g_config.threshold_40)
  62              		.loc 1 18 16 view .LVU12
  63 001c 0320     		movs	r0, #3
  64              	.LVL3:
  18:../Src/battery.c ****     else if (vbat_mv >= g_config.threshold_40)
  65              		.loc 1 18 16 view .LVU13
  66 001e FCE7     		b	.L2
  67              	.LVL4:
  68              	.L4:
  20:../Src/battery.c ****     else if (vbat_mv >= g_config.threshold_20)
  69              		.loc 1 20 16 view .LVU14
  70 0020 0220     		movs	r0, #2
  71              	.LVL5:
  20:../Src/battery.c ****     else if (vbat_mv >= g_config.threshold_20)
  72              		.loc 1 20 16 view .LVU15
  73 0022 FAE7     		b	.L2
  74              	.LVL6:
  75              	.L5:
  24:../Src/battery.c **** }
  76              		.loc 1 24 16 view .LVU16
  77 0024 0020     		movs	r0, #0
  78              	.LVL7:
  24:../Src/battery.c **** }
  79              		.loc 1 24 16 view .LVU17
  80 0026 F8E7     		b	.L2
  81              	.L7:
  82              		.align	2
  83              	.L6:
  84 0028 00000000 		.word	g_config
ARM GAS  C:\Users\Gautam\AppData\Local\Temp\cc5zp8Ja.s 			page 3


  85              		.cfi_endproc
  86              	.LFE0:
  88              		.section	.text.Battery_Init,"ax",%progbits
  89              		.align	1
  90              		.global	Battery_Init
  91              		.syntax unified
  92              		.code	16
  93              		.thumb_func
  95              	Battery_Init:
  96              	.LVL8:
  97              	.LFB1:
  26:../Src/battery.c **** 
  27:../Src/battery.c **** /* =====================================================
  28:../Src/battery.c ****    Public API Implementation
  29:../Src/battery.c ****    ===================================================== */
  30:../Src/battery.c **** 
  31:../Src/battery.c **** void Battery_Init(BatteryConfig_t *cfg)
  32:../Src/battery.c **** {
  98              		.loc 1 32 1 is_stmt 1 view -0
  99              		.cfi_startproc
 100              		@ args = 0, pretend = 0, frame = 0
 101              		@ frame_needed = 0, uses_anonymous_args = 0
 102              		.loc 1 32 1 is_stmt 0 view .LVU19
 103 0000 10B5     		push	{r4, lr}
 104              	.LCFI0:
 105              		.cfi_def_cfa_offset 8
 106              		.cfi_offset 4, -8
 107              		.cfi_offset 14, -4
 108 0002 011E     		subs	r1, r0, #0
  33:../Src/battery.c ****     if (!cfg) return;
 109              		.loc 1 33 5 is_stmt 1 view .LVU20
 110              		.loc 1 33 8 is_stmt 0 view .LVU21
 111 0004 13D0     		beq	.L8
  34:../Src/battery.c ****     
  35:../Src/battery.c ****     memcpy(&g_config, cfg, sizeof(BatteryConfig_t));
 112              		.loc 1 35 5 is_stmt 1 view .LVU22
 113 0006 0A4C     		ldr	r4, .L10
 114 0008 1422     		movs	r2, #20
 115 000a 2000     		movs	r0, r4
 116              	.LVL9:
 117              		.loc 1 35 5 is_stmt 0 view .LVU23
 118 000c FFF7FEFF 		bl	memcpy
 119              	.LVL10:
  36:../Src/battery.c ****     
  37:../Src/battery.c ****     // Initialize runtime state
  38:../Src/battery.c ****     g_runtime.current_health = BATTERY_INVALID;
 120              		.loc 1 38 5 is_stmt 1 view .LVU24
 121              		.loc 1 38 30 is_stmt 0 view .LVU25
 122 0010 084B     		ldr	r3, .L10+4
 123 0012 0022     		movs	r2, #0
 124 0014 1A70     		strb	r2, [r3]
  39:../Src/battery.c ****     g_runtime.previous_health = BATTERY_INVALID;
 125              		.loc 1 39 5 is_stmt 1 view .LVU26
 126              		.loc 1 39 31 is_stmt 0 view .LVU27
 127 0016 5A70     		strb	r2, [r3, #1]
  40:../Src/battery.c ****     g_runtime.health_changed = false;
 128              		.loc 1 40 5 is_stmt 1 view .LVU28
ARM GAS  C:\Users\Gautam\AppData\Local\Temp\cc5zp8Ja.s 			page 4


 129              		.loc 1 40 30 is_stmt 0 view .LVU29
 130 0018 9A70     		strb	r2, [r3, #2]
  41:../Src/battery.c ****     g_runtime.latest_voltage = 0;
 131              		.loc 1 41 5 is_stmt 1 view .LVU30
 132              		.loc 1 41 30 is_stmt 0 view .LVU31
 133 001a 5A60     		str	r2, [r3, #4]
  42:../Src/battery.c ****     g_runtime.detection_timer = 0;
 134              		.loc 1 42 5 is_stmt 1 view .LVU32
 135              		.loc 1 42 31 is_stmt 0 view .LVU33
 136 001c 9A60     		str	r2, [r3, #8]
  43:../Src/battery.c ****     g_runtime.is_qualified = false;
 137              		.loc 1 43 5 is_stmt 1 view .LVU34
 138              		.loc 1 43 28 is_stmt 0 view .LVU35
 139 001e 1A73     		strb	r2, [r3, #12]
  44:../Src/battery.c ****     g_runtime.qualification_timer = 0;
 140              		.loc 1 44 5 is_stmt 1 view .LVU36
 141              		.loc 1 44 35 is_stmt 0 view .LVU37
 142 0020 1A61     		str	r2, [r3, #16]
  45:../Src/battery.c ****     
  46:../Src/battery.c ****     // Default debounce: 5 samples (500ms at 100ms update rate)
  47:../Src/battery.c ****     if (g_config.debounce_samples == 0)
 143              		.loc 1 47 5 is_stmt 1 view .LVU38
 144              		.loc 1 47 17 is_stmt 0 view .LVU39
 145 0022 637C     		ldrb	r3, [r4, #17]
 146              		.loc 1 47 8 view .LVU40
 147 0024 002B     		cmp	r3, #0
 148 0026 02D1     		bne	.L8
  48:../Src/battery.c ****         g_config.debounce_samples = 5;
 149              		.loc 1 48 9 is_stmt 1 view .LVU41
 150              		.loc 1 48 35 is_stmt 0 view .LVU42
 151 0028 014B     		ldr	r3, .L10
 152 002a 0532     		adds	r2, r2, #5
 153 002c 5A74     		strb	r2, [r3, #17]
 154              	.L8:
  49:../Src/battery.c **** }
 155              		.loc 1 49 1 view .LVU43
 156              		@ sp needed
 157 002e 10BD     		pop	{r4, pc}
 158              	.L11:
 159              		.align	2
 160              	.L10:
 161 0030 00000000 		.word	g_config
 162 0034 00000000 		.word	g_runtime
 163              		.cfi_endproc
 164              	.LFE1:
 166              		.section	.text.Battery_Update,"ax",%progbits
 167              		.align	1
 168              		.global	Battery_Update
 169              		.syntax unified
 170              		.code	16
 171              		.thumb_func
 173              	Battery_Update:
 174              	.LVL11:
 175              	.LFB2:
  50:../Src/battery.c **** 
  51:../Src/battery.c **** void Battery_Update(uint32_t vbat_mv)
  52:../Src/battery.c **** {
ARM GAS  C:\Users\Gautam\AppData\Local\Temp\cc5zp8Ja.s 			page 5


 176              		.loc 1 52 1 is_stmt 1 view -0
 177              		.cfi_startproc
 178              		@ args = 0, pretend = 0, frame = 0
 179              		@ frame_needed = 0, uses_anonymous_args = 0
 180              		.loc 1 52 1 is_stmt 0 view .LVU45
 181 0000 10B5     		push	{r4, lr}
 182              	.LCFI1:
 183              		.cfi_def_cfa_offset 8
 184              		.cfi_offset 4, -8
 185              		.cfi_offset 14, -4
  53:../Src/battery.c ****     // Store latest voltage
  54:../Src/battery.c ****     g_runtime.latest_voltage = vbat_mv;
 186              		.loc 1 54 5 is_stmt 1 view .LVU46
 187              		.loc 1 54 30 is_stmt 0 view .LVU47
 188 0002 174C     		ldr	r4, .L16
 189 0004 6060     		str	r0, [r4, #4]
  55:../Src/battery.c ****     
  56:../Src/battery.c ****     // Classify battery health
  57:../Src/battery.c ****     BatteryHealth_t new_health = ClassifyBattery(vbat_mv);
 190              		.loc 1 57 5 is_stmt 1 view .LVU48
 191              		.loc 1 57 34 is_stmt 0 view .LVU49
 192 0006 FFF7FEFF 		bl	ClassifyBattery
 193              	.LVL12:
  58:../Src/battery.c ****     
  59:../Src/battery.c ****     // Check if health classification has changed
  60:../Src/battery.c ****     if (new_health != g_runtime.current_health) {
 194              		.loc 1 60 5 is_stmt 1 view .LVU50
 195              		.loc 1 60 32 is_stmt 0 view .LVU51
 196 000a 2178     		ldrb	r1, [r4]
 197              		.loc 1 60 8 view .LVU52
 198 000c 8142     		cmp	r1, r0
 199 000e 12D0     		beq	.L13
  61:../Src/battery.c ****         // Start debounce counter
  62:../Src/battery.c ****         g_config.debounce_count++;
 200              		.loc 1 62 9 is_stmt 1 view .LVU53
 201              		.loc 1 62 17 is_stmt 0 view .LVU54
 202 0010 144A     		ldr	r2, .L16+4
 203 0012 137C     		ldrb	r3, [r2, #16]
 204              		.loc 1 62 32 view .LVU55
 205 0014 0133     		adds	r3, r3, #1
 206 0016 DBB2     		uxtb	r3, r3
 207 0018 1374     		strb	r3, [r2, #16]
  63:../Src/battery.c ****         
  64:../Src/battery.c ****         // After enough stable samples, confirm transition
  65:../Src/battery.c ****         if (g_config.debounce_count >= g_config.debounce_samples) {
 208              		.loc 1 65 9 is_stmt 1 view .LVU56
 209              		.loc 1 65 48 is_stmt 0 view .LVU57
 210 001a 527C     		ldrb	r2, [r2, #17]
 211              		.loc 1 65 12 view .LVU58
 212 001c 9342     		cmp	r3, r2
 213 001e 0DD3     		bcc	.L14
  66:../Src/battery.c ****             g_runtime.previous_health = g_runtime.current_health;
 214              		.loc 1 66 13 is_stmt 1 view .LVU59
 215              		.loc 1 66 39 is_stmt 0 view .LVU60
 216 0020 6170     		strb	r1, [r4, #1]
  67:../Src/battery.c ****             g_runtime.current_health = new_health;
 217              		.loc 1 67 13 is_stmt 1 view .LVU61
ARM GAS  C:\Users\Gautam\AppData\Local\Temp\cc5zp8Ja.s 			page 6


 218              		.loc 1 67 38 is_stmt 0 view .LVU62
 219 0022 2070     		strb	r0, [r4]
  68:../Src/battery.c ****             g_runtime.health_changed = true;
 220              		.loc 1 68 13 is_stmt 1 view .LVU63
 221              		.loc 1 68 38 is_stmt 0 view .LVU64
 222 0024 0122     		movs	r2, #1
 223 0026 A270     		strb	r2, [r4, #2]
  69:../Src/battery.c ****             g_runtime.detection_timer = 0;
 224              		.loc 1 69 13 is_stmt 1 view .LVU65
 225              		.loc 1 69 39 is_stmt 0 view .LVU66
 226 0028 0022     		movs	r2, #0
 227 002a A260     		str	r2, [r4, #8]
  70:../Src/battery.c ****             g_runtime.is_qualified = false;        // Reset qualification
 228              		.loc 1 70 13 is_stmt 1 view .LVU67
 229              		.loc 1 70 36 is_stmt 0 view .LVU68
 230 002c 2273     		strb	r2, [r4, #12]
  71:../Src/battery.c ****             g_runtime.qualification_timer = 0;
 231              		.loc 1 71 13 is_stmt 1 view .LVU69
 232              		.loc 1 71 43 is_stmt 0 view .LVU70
 233 002e 2261     		str	r2, [r4, #16]
  72:../Src/battery.c ****             g_config.debounce_count = 0;
 234              		.loc 1 72 13 is_stmt 1 view .LVU71
 235              		.loc 1 72 37 is_stmt 0 view .LVU72
 236 0030 0C4B     		ldr	r3, .L16+4
 237 0032 1A74     		strb	r2, [r3, #16]
 238 0034 02E0     		b	.L14
 239              	.L13:
  73:../Src/battery.c ****         }
  74:../Src/battery.c ****     } else {
  75:../Src/battery.c ****         // Classification stable; reset debounce counter
  76:../Src/battery.c ****         g_config.debounce_count = 0;
 240              		.loc 1 76 9 is_stmt 1 view .LVU73
 241              		.loc 1 76 33 is_stmt 0 view .LVU74
 242 0036 0B4B     		ldr	r3, .L16+4
 243 0038 0022     		movs	r2, #0
 244 003a 1A74     		strb	r2, [r3, #16]
 245              	.L14:
  77:../Src/battery.c ****     }
  78:../Src/battery.c ****     
  79:../Src/battery.c ****     // Increment detection timer (called every 100ms = 1 decisecond)
  80:../Src/battery.c ****     g_runtime.detection_timer++;
 246              		.loc 1 80 5 is_stmt 1 view .LVU75
 247              		.loc 1 80 14 is_stmt 0 view .LVU76
 248 003c 084A     		ldr	r2, .L16
 249 003e 9368     		ldr	r3, [r2, #8]
 250              		.loc 1 80 30 view .LVU77
 251 0040 0133     		adds	r3, r3, #1
 252 0042 9360     		str	r3, [r2, #8]
  81:../Src/battery.c ****     
  82:../Src/battery.c ****     // After 600 deciseconds (60 seconds) in stable state, qualify health
  83:../Src/battery.c ****     if (g_runtime.detection_timer >= 600 && !g_runtime.is_qualified) {
 253              		.loc 1 83 5 is_stmt 1 view .LVU78
 254              		.loc 1 83 8 is_stmt 0 view .LVU79
 255 0044 9622     		movs	r2, #150
 256 0046 9200     		lsls	r2, r2, #2
 257 0048 9342     		cmp	r3, r2
 258 004a 08D3     		bcc	.L12
ARM GAS  C:\Users\Gautam\AppData\Local\Temp\cc5zp8Ja.s 			page 7


 259              		.loc 1 83 55 discriminator 1 view .LVU80
 260 004c 044B     		ldr	r3, .L16
 261 004e 1B7B     		ldrb	r3, [r3, #12]
 262              		.loc 1 83 42 discriminator 1 view .LVU81
 263 0050 002B     		cmp	r3, #0
 264 0052 04D1     		bne	.L12
  84:../Src/battery.c ****         g_runtime.is_qualified = true;
 265              		.loc 1 84 9 is_stmt 1 view .LVU82
 266              		.loc 1 84 32 is_stmt 0 view .LVU83
 267 0054 024B     		ldr	r3, .L16
 268 0056 0122     		movs	r2, #1
 269 0058 1A73     		strb	r2, [r3, #12]
  85:../Src/battery.c ****         g_runtime.qualification_timer = 0;
 270              		.loc 1 85 9 is_stmt 1 view .LVU84
 271              		.loc 1 85 39 is_stmt 0 view .LVU85
 272 005a 0022     		movs	r2, #0
 273 005c 1A61     		str	r2, [r3, #16]
 274              	.L12:
  86:../Src/battery.c ****     }
  87:../Src/battery.c **** }
 275              		.loc 1 87 1 view .LVU86
 276              		@ sp needed
 277 005e 10BD     		pop	{r4, pc}
 278              	.L17:
 279              		.align	2
 280              	.L16:
 281 0060 00000000 		.word	g_runtime
 282 0064 00000000 		.word	g_config
 283              		.cfi_endproc
 284              	.LFE2:
 286              		.section	.text.Battery_SetVset,"ax",%progbits
 287              		.align	1
 288              		.global	Battery_SetVset
 289              		.syntax unified
 290              		.code	16
 291              		.thumb_func
 293              	Battery_SetVset:
 294              	.LVL13:
 295              	.LFB3:
  88:../Src/battery.c **** 
  89:../Src/battery.c **** void Battery_SetVset(uint32_t vset_mv)
  90:../Src/battery.c **** {
 296              		.loc 1 90 1 is_stmt 1 view -0
 297              		.cfi_startproc
 298              		@ args = 0, pretend = 0, frame = 0
 299              		@ frame_needed = 0, uses_anonymous_args = 0
 300              		.loc 1 90 1 is_stmt 0 view .LVU88
 301 0000 70B5     		push	{r4, r5, r6, lr}
 302              	.LCFI2:
 303              		.cfi_def_cfa_offset 16
 304              		.cfi_offset 4, -16
 305              		.cfi_offset 5, -12
 306              		.cfi_offset 6, -8
 307              		.cfi_offset 14, -4
 308 0002 0400     		movs	r4, r0
  91:../Src/battery.c ****     g_config.vset = vset_mv;
 309              		.loc 1 91 5 is_stmt 1 view .LVU89
ARM GAS  C:\Users\Gautam\AppData\Local\Temp\cc5zp8Ja.s 			page 8


 310              		.loc 1 91 19 is_stmt 0 view .LVU90
 311 0004 0D4E     		ldr	r6, .L19
 312 0006 3060     		str	r0, [r6]
  92:../Src/battery.c ****     
  93:../Src/battery.c ****     // Recalculate thresholds as percentages of new VSET
  94:../Src/battery.c ****     g_config.threshold_20 = (vset_mv * 20) / 100;   // 20% of VSET
 313              		.loc 1 94 5 is_stmt 1 view .LVU91
 314              		.loc 1 94 38 is_stmt 0 view .LVU92
 315 0008 8500     		lsls	r5, r0, #2
 316 000a 2818     		adds	r0, r5, r0
 317              	.LVL14:
 318              		.loc 1 94 38 view .LVU93
 319 000c 8000     		lsls	r0, r0, #2
 320              		.loc 1 94 44 view .LVU94
 321 000e 6421     		movs	r1, #100
 322 0010 FFF7FEFF 		bl	__aeabi_uidiv
 323              	.LVL15:
 324              		.loc 1 94 27 view .LVU95
 325 0014 7060     		str	r0, [r6, #4]
  95:../Src/battery.c ****     g_config.threshold_40 = (vset_mv * 40) / 100;   // 40% of VSET
 326              		.loc 1 95 5 is_stmt 1 view .LVU96
 327              		.loc 1 95 38 is_stmt 0 view .LVU97
 328 0016 2819     		adds	r0, r5, r4
 329 0018 C000     		lsls	r0, r0, #3
 330              		.loc 1 95 44 view .LVU98
 331 001a 6421     		movs	r1, #100
 332 001c FFF7FEFF 		bl	__aeabi_uidiv
 333              	.LVL16:
 334              		.loc 1 95 27 view .LVU99
 335 0020 B060     		str	r0, [r6, #8]
  96:../Src/battery.c ****     g_config.threshold_65 = (vset_mv * 65) / 100;   // 65% of VSET
 336              		.loc 1 96 5 is_stmt 1 view .LVU100
 337              		.loc 1 96 38 is_stmt 0 view .LVU101
 338 0022 A001     		lsls	r0, r4, #6
 339 0024 0019     		adds	r0, r0, r4
 340              		.loc 1 96 44 view .LVU102
 341 0026 6421     		movs	r1, #100
 342 0028 FFF7FEFF 		bl	__aeabi_uidiv
 343              	.LVL17:
 344              		.loc 1 96 27 view .LVU103
 345 002c F060     		str	r0, [r6, #12]
  97:../Src/battery.c ****     
  98:../Src/battery.c ****     // Force re-qualification when VSET changes
  99:../Src/battery.c ****     g_runtime.is_qualified = false;
 346              		.loc 1 99 5 is_stmt 1 view .LVU104
 347              		.loc 1 99 28 is_stmt 0 view .LVU105
 348 002e 044B     		ldr	r3, .L19+4
 349 0030 0022     		movs	r2, #0
 350 0032 1A73     		strb	r2, [r3, #12]
 100:../Src/battery.c ****     g_runtime.qualification_timer = 0;
 351              		.loc 1 100 5 is_stmt 1 view .LVU106
 352              		.loc 1 100 35 is_stmt 0 view .LVU107
 353 0034 1A61     		str	r2, [r3, #16]
 101:../Src/battery.c ****     g_runtime.detection_timer = 0;
 354              		.loc 1 101 5 is_stmt 1 view .LVU108
 355              		.loc 1 101 31 is_stmt 0 view .LVU109
 356 0036 9A60     		str	r2, [r3, #8]
ARM GAS  C:\Users\Gautam\AppData\Local\Temp\cc5zp8Ja.s 			page 9


 102:../Src/battery.c **** }
 357              		.loc 1 102 1 view .LVU110
 358              		@ sp needed
 359              	.LVL18:
 360              		.loc 1 102 1 view .LVU111
 361 0038 70BD     		pop	{r4, r5, r6, pc}
 362              	.L20:
 363 003a C046     		.align	2
 364              	.L19:
 365 003c 00000000 		.word	g_config
 366 0040 00000000 		.word	g_runtime
 367              		.cfi_endproc
 368              	.LFE3:
 370              		.section	.text.Battery_GetHealth,"ax",%progbits
 371              		.align	1
 372              		.global	Battery_GetHealth
 373              		.syntax unified
 374              		.code	16
 375              		.thumb_func
 377              	Battery_GetHealth:
 378              	.LFB4:
 103:../Src/battery.c **** 
 104:../Src/battery.c **** BatteryHealth_t Battery_GetHealth(void)
 105:../Src/battery.c **** {
 379              		.loc 1 105 1 is_stmt 1 view -0
 380              		.cfi_startproc
 381              		@ args = 0, pretend = 0, frame = 0
 382              		@ frame_needed = 0, uses_anonymous_args = 0
 383              		@ link register save eliminated.
 106:../Src/battery.c ****     return g_runtime.current_health;
 384              		.loc 1 106 5 view .LVU113
 385              		.loc 1 106 21 is_stmt 0 view .LVU114
 386 0000 014B     		ldr	r3, .L22
 387              		.loc 1 106 21 discriminator 1 view .LVU115
 388 0002 1878     		ldrb	r0, [r3]
 107:../Src/battery.c **** }
 389              		.loc 1 107 1 view .LVU116
 390              		@ sp needed
 391 0004 7047     		bx	lr
 392              	.L23:
 393 0006 C046     		.align	2
 394              	.L22:
 395 0008 00000000 		.word	g_runtime
 396              		.cfi_endproc
 397              	.LFE4:
 399              		.section	.text.Battery_IsHealthQualified,"ax",%progbits
 400              		.align	1
 401              		.global	Battery_IsHealthQualified
 402              		.syntax unified
 403              		.code	16
 404              		.thumb_func
 406              	Battery_IsHealthQualified:
 407              	.LFB5:
 108:../Src/battery.c **** 
 109:../Src/battery.c **** bool Battery_IsHealthQualified(void)
 110:../Src/battery.c **** {
 408              		.loc 1 110 1 is_stmt 1 view -0
ARM GAS  C:\Users\Gautam\AppData\Local\Temp\cc5zp8Ja.s 			page 10


 409              		.cfi_startproc
 410              		@ args = 0, pretend = 0, frame = 0
 411              		@ frame_needed = 0, uses_anonymous_args = 0
 412              		@ link register save eliminated.
 111:../Src/battery.c ****     return g_runtime.is_qualified;
 413              		.loc 1 111 5 view .LVU118
 414              		.loc 1 111 21 is_stmt 0 view .LVU119
 415 0000 014B     		ldr	r3, .L25
 416              		.loc 1 111 21 discriminator 1 view .LVU120
 417 0002 187B     		ldrb	r0, [r3, #12]
 112:../Src/battery.c **** }
 418              		.loc 1 112 1 view .LVU121
 419              		@ sp needed
 420 0004 7047     		bx	lr
 421              	.L26:
 422 0006 C046     		.align	2
 423              	.L25:
 424 0008 00000000 		.word	g_runtime
 425              		.cfi_endproc
 426              	.LFE5:
 428              		.section	.text.Battery_GetVoltage,"ax",%progbits
 429              		.align	1
 430              		.global	Battery_GetVoltage
 431              		.syntax unified
 432              		.code	16
 433              		.thumb_func
 435              	Battery_GetVoltage:
 436              	.LFB6:
 113:../Src/battery.c **** 
 114:../Src/battery.c **** uint16_t Battery_GetVoltage(void)
 115:../Src/battery.c **** {
 437              		.loc 1 115 1 is_stmt 1 view -0
 438              		.cfi_startproc
 439              		@ args = 0, pretend = 0, frame = 0
 440              		@ frame_needed = 0, uses_anonymous_args = 0
 441              		@ link register save eliminated.
 116:../Src/battery.c ****     return g_runtime.latest_voltage;
 442              		.loc 1 116 5 view .LVU123
 443              		.loc 1 116 21 is_stmt 0 view .LVU124
 444 0000 014B     		ldr	r3, .L28
 445              		.loc 1 116 21 discriminator 1 view .LVU125
 446 0002 9888     		ldrh	r0, [r3, #4]
 117:../Src/battery.c **** }
 447              		.loc 1 117 1 view .LVU126
 448              		@ sp needed
 449 0004 7047     		bx	lr
 450              	.L29:
 451 0006 C046     		.align	2
 452              	.L28:
 453 0008 00000000 		.word	g_runtime
 454              		.cfi_endproc
 455              	.LFE6:
 457              		.section	.text.Battery_HealthChanged,"ax",%progbits
 458              		.align	1
 459              		.global	Battery_HealthChanged
 460              		.syntax unified
 461              		.code	16
ARM GAS  C:\Users\Gautam\AppData\Local\Temp\cc5zp8Ja.s 			page 11


 462              		.thumb_func
 464              	Battery_HealthChanged:
 465              	.LFB7:
 118:../Src/battery.c **** 
 119:../Src/battery.c **** bool Battery_HealthChanged(void)
 120:../Src/battery.c **** {
 466              		.loc 1 120 1 is_stmt 1 view -0
 467              		.cfi_startproc
 468              		@ args = 0, pretend = 0, frame = 0
 469              		@ frame_needed = 0, uses_anonymous_args = 0
 470              		@ link register save eliminated.
 121:../Src/battery.c ****     bool changed = g_runtime.health_changed;
 471              		.loc 1 121 5 view .LVU128
 472              		.loc 1 121 10 is_stmt 0 view .LVU129
 473 0000 024B     		ldr	r3, .L31
 474 0002 9878     		ldrb	r0, [r3, #2]
 475              	.LVL19:
 122:../Src/battery.c ****     g_runtime.health_changed = false;  // Clear flag after reading
 476              		.loc 1 122 5 is_stmt 1 view .LVU130
 477              		.loc 1 122 30 is_stmt 0 view .LVU131
 478 0004 0022     		movs	r2, #0
 479 0006 9A70     		strb	r2, [r3, #2]
 480              	.LVL20:
 123:../Src/battery.c ****     return changed;
 481              		.loc 1 123 5 is_stmt 1 view .LVU132
 124:../Src/battery.c **** }
 482              		.loc 1 124 1 is_stmt 0 view .LVU133
 483              		@ sp needed
 484 0008 7047     		bx	lr
 485              	.L32:
 486 000a C046     		.align	2
 487              	.L31:
 488 000c 00000000 		.word	g_runtime
 489              		.cfi_endproc
 490              	.LFE7:
 492              		.section	.rodata.Battery_HealthToString.str1.4,"aMS",%progbits,1
 493              		.align	2
 494              	.LC11:
 495 0000 494E5641 		.ascii	"INVALID\000"
 495      4C494400 
 496              		.align	2
 497              	.LC13:
 498 0008 50524543 		.ascii	"PRECHARGE\000"
 498      48415247 
 498      4500
 499 0012 0000     		.align	2
 500              	.LC15:
 501 0014 44454550 		.ascii	"DEEP_DISCHARGE\000"
 501      5F444953 
 501      43484152 
 501      474500
 502 0023 00       		.align	2
 503              	.LC17:
 504 0024 4E4F524D 		.ascii	"NORMAL\000"
 504      414C00
 505 002b 00       		.align	2
 506              	.LC19:
ARM GAS  C:\Users\Gautam\AppData\Local\Temp\cc5zp8Ja.s 			page 12


 507 002c 554E4B4E 		.ascii	"UNKNOWN\000"
 507      4F574E00 
 508              		.section	.text.Battery_HealthToString,"ax",%progbits
 509              		.align	1
 510              		.global	Battery_HealthToString
 511              		.syntax unified
 512              		.code	16
 513              		.thumb_func
 515              	Battery_HealthToString:
 516              	.LVL21:
 517              	.LFB8:
 125:../Src/battery.c **** 
 126:../Src/battery.c **** const char* Battery_HealthToString(BatteryHealth_t health)
 127:../Src/battery.c **** {
 518              		.loc 1 127 1 is_stmt 1 view -0
 519              		.cfi_startproc
 520              		@ args = 0, pretend = 0, frame = 0
 521              		@ frame_needed = 0, uses_anonymous_args = 0
 522              		@ link register save eliminated.
 128:../Src/battery.c ****     switch (health) {
 523              		.loc 1 128 5 view .LVU135
 524 0000 0228     		cmp	r0, #2
 525 0002 0AD0     		beq	.L36
 526 0004 05D8     		bhi	.L35
 527 0006 0028     		cmp	r0, #0
 528 0008 09D0     		beq	.L37
 529 000a 0128     		cmp	r0, #1
 530 000c 09D1     		bne	.L38
 129:../Src/battery.c ****         case BATTERY_INVALID:
 130:../Src/battery.c ****             return "INVALID";
 131:../Src/battery.c ****         case BATTERY_PRECHARGE:
 132:../Src/battery.c ****             return "PRECHARGE";
 531              		.loc 1 132 20 is_stmt 0 view .LVU136
 532 000e 0748     		ldr	r0, .L40
 533              	.LVL22:
 534              		.loc 1 132 20 view .LVU137
 535 0010 04E0     		b	.L33
 536              	.LVL23:
 537              	.L35:
 128:../Src/battery.c ****     switch (health) {
 538              		.loc 1 128 5 view .LVU138
 539 0012 0328     		cmp	r0, #3
 540 0014 07D1     		bne	.L39
 133:../Src/battery.c ****         case BATTERY_DEEP_DISCHARGE:
 134:../Src/battery.c ****             return "DEEP_DISCHARGE";
 135:../Src/battery.c ****         case BATTERY_NORMAL:
 136:../Src/battery.c ****             return "NORMAL";
 541              		.loc 1 136 20 view .LVU139
 542 0016 0648     		ldr	r0, .L40+4
 543              	.LVL24:
 544              		.loc 1 136 20 view .LVU140
 545 0018 00E0     		b	.L33
 546              	.LVL25:
 547              	.L36:
 134:../Src/battery.c ****         case BATTERY_NORMAL:
 548              		.loc 1 134 20 view .LVU141
 549 001a 0648     		ldr	r0, .L40+8
ARM GAS  C:\Users\Gautam\AppData\Local\Temp\cc5zp8Ja.s 			page 13


 550              	.LVL26:
 551              	.L33:
 137:../Src/battery.c ****         default:
 138:../Src/battery.c ****             return "UNKNOWN";
 139:../Src/battery.c ****     }
 140:../Src/battery.c **** }...
 552              		.loc 1 140 1 view .LVU142
 553              		@ sp needed
 554 001c 7047     		bx	lr
 555              	.LVL27:
 556              	.L37:
 128:../Src/battery.c ****     switch (health) {
 557              		.loc 1 128 5 view .LVU143
 558 001e 0648     		ldr	r0, .L40+12
 559              	.LVL28:
 128:../Src/battery.c ****     switch (health) {
 560              		.loc 1 128 5 view .LVU144
 561 0020 FCE7     		b	.L33
 562              	.LVL29:
 563              	.L38:
 138:../Src/battery.c ****             return "UNKNOWN";
 564              		.loc 1 138 20 view .LVU145
 565 0022 0648     		ldr	r0, .L40+16
 566              	.LVL30:
 138:../Src/battery.c ****             return "UNKNOWN";
 567              		.loc 1 138 20 view .LVU146
 568 0024 FAE7     		b	.L33
 569              	.LVL31:
 570              	.L39:
 138:../Src/battery.c ****             return "UNKNOWN";
 571              		.loc 1 138 20 view .LVU147
 572 0026 0548     		ldr	r0, .L40+16
 573              	.LVL32:
 138:../Src/battery.c ****             return "UNKNOWN";
 574              		.loc 1 138 20 view .LVU148
 575 0028 F8E7     		b	.L33
 576              	.L41:
 577 002a C046     		.align	2
 578              	.L40:
 579 002c 08000000 		.word	.LC13
 580 0030 24000000 		.word	.LC17
 581 0034 14000000 		.word	.LC15
 582 0038 00000000 		.word	.LC11
 583 003c 2C000000 		.word	.LC19
 584              		.cfi_endproc
 585              	.LFE8:
 587              		.section	.bss.g_runtime,"aw",%nobits
 588              		.align	2
 591              	g_runtime:
 592 0000 00000000 		.space	20
 592      00000000 
 592      00000000 
 592      00000000 
 592      00000000 
 593              		.section	.bss.g_config,"aw",%nobits
 594              		.align	2
 597              	g_config:
ARM GAS  C:\Users\Gautam\AppData\Local\Temp\cc5zp8Ja.s 			page 14


 598 0000 00000000 		.space	20
 598      00000000 
 598      00000000 
 598      00000000 
 598      00000000 
 599              		.text
 600              	.Letext0:
 601              		.file 2 "C:/Program Files (x86)/Arm GNU Toolchain arm-none-eabi/14.3 rel1/arm-none-eabi/include/ma
 602              		.file 3 "C:/Program Files (x86)/Arm GNU Toolchain arm-none-eabi/14.3 rel1/arm-none-eabi/include/sy
 603              		.file 4 "../Inc/battery.h"
 604              		.file 5 "C:/Program Files (x86)/Arm GNU Toolchain arm-none-eabi/14.3 rel1/arm-none-eabi/include/st
 605              		.file 6 "<built-in>"
ARM GAS  C:\Users\Gautam\AppData\Local\Temp\cc5zp8Ja.s 			page 15

