ARM GAS  C:\Users\Gautam\AppData\Local\Temp\ccIofEjq.s 			page 1


   1              		.cpu cortex-m0plus
   2              		.arch armv6s-m
   3              		.fpu softvfp
   4              		.eabi_attribute 20, 1
   5              		.eabi_attribute 21, 1
   6              		.eabi_attribute 23, 3
   7              		.eabi_attribute 24, 1
   8              		.eabi_attribute 25, 1
   9              		.eabi_attribute 26, 1
  10              		.eabi_attribute 30, 1
  11              		.eabi_attribute 34, 0
  12              		.eabi_attribute 18, 4
  13              		.file	"button.c"
  14              		.text
  15              	.Ltext0:
  16              		.cfi_sections	.debug_frame
  17              		.file 1 "../Src/button.c"
  18              		.section	.text.Button_Read,"ax",%progbits
  19              		.align	1
  20              		.syntax unified
  21              		.code	16
  22              		.thumb_func
  24              	Button_Read:
  25              	.LFB37:
   1:../Src/button.c **** #include "button.h"
   2:../Src/button.c **** #include "menu.h"
   3:../Src/button.c **** #include "py32f0xx.h"
   4:../Src/button.c **** 
   5:../Src/button.c **** /*
   6:../Src/button.c ****     Call Button_Task() every 10ms
   7:../Src/button.c **** 
   8:../Src/button.c ****     Long Press = 2 seconds
   9:../Src/button.c **** 
  10:../Src/button.c ****     10ms x 200 = 2000ms
  11:../Src/button.c **** */
  12:../Src/button.c **** 
  13:../Src/button.c **** #define BUTTON_PORT GPIOB
  14:../Src/button.c **** #define BUTTON_PIN  GPIO_PIN_3
  15:../Src/button.c **** 
  16:../Src/button.c **** #define LONG_PRESS_TIME   200
  17:../Src/button.c **** 
  18:../Src/button.c **** static uint16_t PressCounter = 0;
  19:../Src/button.c **** static uint8_t LongPressDone = 0;
  20:../Src/button.c **** 
  21:../Src/button.c **** 
  22:../Src/button.c **** static uint8_t Button_Read(void)
  23:../Src/button.c **** {
  26              		.loc 1 23 1 view -0
  27              		.cfi_startproc
  28              		@ args = 0, pretend = 0, frame = 0
  29              		@ frame_needed = 0, uses_anonymous_args = 0
  30              		@ link register save eliminated.
  24:../Src/button.c ****     return ((BUTTON_PORT->IDR & BUTTON_PIN) == 0);
  31              		.loc 1 24 5 view .LVU1
  32              		.loc 1 24 25 is_stmt 0 view .LVU2
  33 0000 034B     		ldr	r3, .L2
  34 0002 1B69     		ldr	r3, [r3, #16]
ARM GAS  C:\Users\Gautam\AppData\Local\Temp\ccIofEjq.s 			page 2


  35              		.loc 1 24 31 view .LVU3
  36 0004 0820     		movs	r0, #8
  37 0006 1840     		ands	r0, r3
  38              		.loc 1 24 45 view .LVU4
  39 0008 4342     		rsbs	r3, r0, #0
  40 000a 5841     		adcs	r0, r0, r3
  41              		.loc 1 24 45 discriminator 1 view .LVU5
  42 000c C0B2     		uxtb	r0, r0
  25:../Src/button.c **** }
  43              		.loc 1 25 1 view .LVU6
  44              		@ sp needed
  45 000e 7047     		bx	lr
  46              	.L3:
  47              		.align	2
  48              	.L2:
  49 0010 00040050 		.word	1342178304
  50              		.cfi_endproc
  51              	.LFE37:
  53              		.section	.text.Button_Init,"ax",%progbits
  54              		.align	1
  55              		.global	Button_Init
  56              		.syntax unified
  57              		.code	16
  58              		.thumb_func
  60              	Button_Init:
  61              	.LFB38:
  26:../Src/button.c **** 
  27:../Src/button.c **** 
  28:../Src/button.c **** void Button_Init(void)
  29:../Src/button.c **** {
  62              		.loc 1 29 1 is_stmt 1 view -0
  63              		.cfi_startproc
  64              		@ args = 0, pretend = 0, frame = 0
  65              		@ frame_needed = 0, uses_anonymous_args = 0
  66              		@ link register save eliminated.
  30:../Src/button.c ****     PressCounter = 0;
  67              		.loc 1 30 5 view .LVU8
  68              		.loc 1 30 18 is_stmt 0 view .LVU9
  69 0000 024B     		ldr	r3, .L5
  70 0002 0022     		movs	r2, #0
  71 0004 1A80     		strh	r2, [r3]
  31:../Src/button.c ****     LongPressDone = 0;
  72              		.loc 1 31 5 is_stmt 1 view .LVU10
  73              		.loc 1 31 19 is_stmt 0 view .LVU11
  74 0006 024B     		ldr	r3, .L5+4
  75 0008 1A70     		strb	r2, [r3]
  32:../Src/button.c **** }
  76              		.loc 1 32 1 view .LVU12
  77              		@ sp needed
  78 000a 7047     		bx	lr
  79              	.L6:
  80              		.align	2
  81              	.L5:
  82 000c 00000000 		.word	PressCounter
  83 0010 00000000 		.word	LongPressDone
  84              		.cfi_endproc
  85              	.LFE38:
ARM GAS  C:\Users\Gautam\AppData\Local\Temp\ccIofEjq.s 			page 3


  87              		.section	.text.Button_Task,"ax",%progbits
  88              		.align	1
  89              		.global	Button_Task
  90              		.syntax unified
  91              		.code	16
  92              		.thumb_func
  94              	Button_Task:
  95              	.LFB39:
  33:../Src/button.c **** 
  34:../Src/button.c **** 
  35:../Src/button.c **** void Button_Task(void)
  36:../Src/button.c **** {
  96              		.loc 1 36 1 is_stmt 1 view -0
  97              		.cfi_startproc
  98              		@ args = 0, pretend = 0, frame = 0
  99              		@ frame_needed = 0, uses_anonymous_args = 0
 100 0000 10B5     		push	{r4, lr}
 101              	.LCFI0:
 102              		.cfi_def_cfa_offset 8
 103              		.cfi_offset 4, -8
 104              		.cfi_offset 14, -4
  37:../Src/button.c ****     if(Button_Read())
 105              		.loc 1 37 5 view .LVU14
 106              		.loc 1 37 8 is_stmt 0 view .LVU15
 107 0002 FFF7FEFF 		bl	Button_Read
 108              	.LVL0:
 109              		.loc 1 37 7 discriminator 1 view .LVU16
 110 0006 0028     		cmp	r0, #0
 111 0008 14D0     		beq	.L8
  38:../Src/button.c ****     {
  39:../Src/button.c ****         if(PressCounter < LONG_PRESS_TIME)
 112              		.loc 1 39 9 is_stmt 1 view .LVU17
 113              		.loc 1 39 25 is_stmt 0 view .LVU18
 114 000a 124B     		ldr	r3, .L13
 115 000c 1B88     		ldrh	r3, [r3]
 116              		.loc 1 39 11 view .LVU19
 117 000e C72B     		cmp	r3, #199
 118 0010 02D8     		bhi	.L9
  40:../Src/button.c ****             PressCounter++;
 119              		.loc 1 40 13 is_stmt 1 view .LVU20
 120              		.loc 1 40 25 is_stmt 0 view .LVU21
 121 0012 104A     		ldr	r2, .L13
 122 0014 0133     		adds	r3, r3, #1
 123 0016 1380     		strh	r3, [r2]
 124              	.L9:
  41:../Src/button.c **** 
  42:../Src/button.c ****         if((PressCounter >= LONG_PRESS_TIME) &&
 125              		.loc 1 42 9 is_stmt 1 view .LVU22
 126              		.loc 1 42 26 is_stmt 0 view .LVU23
 127 0018 0E4B     		ldr	r3, .L13
 128 001a 1B88     		ldrh	r3, [r3]
 129              		.loc 1 42 11 view .LVU24
 130 001c C72B     		cmp	r3, #199
 131 001e 14D9     		bls	.L7
  43:../Src/button.c ****            (LongPressDone == 0))
 132              		.loc 1 43 27 view .LVU25
 133 0020 0D4B     		ldr	r3, .L13+4
ARM GAS  C:\Users\Gautam\AppData\Local\Temp\ccIofEjq.s 			page 4


 134 0022 1B78     		ldrb	r3, [r3]
  42:../Src/button.c ****            (LongPressDone == 0))
 135              		.loc 1 42 46 discriminator 1 view .LVU26
 136 0024 002B     		cmp	r3, #0
 137 0026 10D1     		bne	.L7
  44:../Src/button.c ****         {
  45:../Src/button.c ****             LongPressDone = 1;
 138              		.loc 1 45 13 is_stmt 1 view .LVU27
 139              		.loc 1 45 27 is_stmt 0 view .LVU28
 140 0028 0B4B     		ldr	r3, .L13+4
 141 002a 0122     		movs	r2, #1
 142 002c 1A70     		strb	r2, [r3]
  46:../Src/button.c **** 
  47:../Src/button.c ****             Menu_ToggleMode();
 143              		.loc 1 47 13 is_stmt 1 view .LVU29
 144 002e FFF7FEFF 		bl	Menu_ToggleMode
 145              	.LVL1:
 146 0032 0AE0     		b	.L7
 147              	.L8:
  48:../Src/button.c ****         }
  49:../Src/button.c ****     }
  50:../Src/button.c ****     else
  51:../Src/button.c ****     {
  52:../Src/button.c ****         if((PressCounter > 0) &&
 148              		.loc 1 52 9 view .LVU30
 149              		.loc 1 52 31 is_stmt 0 view .LVU31
 150 0034 074B     		ldr	r3, .L13
 151 0036 1B88     		ldrh	r3, [r3]
 152 0038 013B     		subs	r3, r3, #1
 153 003a 9BB2     		uxth	r3, r3
 154              		.loc 1 52 11 view .LVU32
 155 003c C62B     		cmp	r3, #198
 156 003e 05D9     		bls	.L12
 157              	.L11:
  53:../Src/button.c ****            (PressCounter < LONG_PRESS_TIME))
  54:../Src/button.c ****         {
  55:../Src/button.c ****             Menu_NextItem();
  56:../Src/button.c ****         }
  57:../Src/button.c **** 
  58:../Src/button.c ****         PressCounter = 0;
 158              		.loc 1 58 9 is_stmt 1 view .LVU33
 159              		.loc 1 58 22 is_stmt 0 view .LVU34
 160 0040 044B     		ldr	r3, .L13
 161 0042 0022     		movs	r2, #0
 162 0044 1A80     		strh	r2, [r3]
  59:../Src/button.c ****         LongPressDone = 0;
 163              		.loc 1 59 9 is_stmt 1 view .LVU35
 164              		.loc 1 59 23 is_stmt 0 view .LVU36
 165 0046 044B     		ldr	r3, .L13+4
 166 0048 1A70     		strb	r2, [r3]
 167              	.L7:
  60:../Src/button.c ****     }
  61:../Src/button.c **** }...
 168              		.loc 1 61 1 view .LVU37
 169              		@ sp needed
 170 004a 10BD     		pop	{r4, pc}
 171              	.L12:
ARM GAS  C:\Users\Gautam\AppData\Local\Temp\ccIofEjq.s 			page 5


  55:../Src/button.c ****             Menu_NextItem();
 172              		.loc 1 55 13 is_stmt 1 view .LVU38
 173 004c FFF7FEFF 		bl	Menu_NextItem
 174              	.LVL2:
 175 0050 F6E7     		b	.L11
 176              	.L14:
 177 0052 C046     		.align	2
 178              	.L13:
 179 0054 00000000 		.word	PressCounter
 180 0058 00000000 		.word	LongPressDone
 181              		.cfi_endproc
 182              	.LFE39:
 184              		.section	.bss.LongPressDone,"aw",%nobits
 187              	LongPressDone:
 188 0000 00       		.space	1
 189              		.section	.bss.PressCounter,"aw",%nobits
 190              		.align	1
 193              	PressCounter:
 194 0000 0000     		.space	2
 195              		.text
 196              	.Letext0:
 197              		.file 2 "C:/Program Files (x86)/Arm GNU Toolchain arm-none-eabi/14.3 rel1/arm-none-eabi/include/ma
 198              		.file 3 "C:/Program Files (x86)/Arm GNU Toolchain arm-none-eabi/14.3 rel1/arm-none-eabi/include/sy
 199              		.file 4 "../../../PY32F002B_Firmware_V1.2.1/PY32F002B_Firmware_V1.2.1/Drivers/CMSIS/Device/PY32F0x
 200              		.file 5 "../Inc/menu.h"
ARM GAS  C:\Users\Gautam\AppData\Local\Temp\ccIofEjq.s 			page 6

