ARM GAS  C:\Users\Gautam\AppData\Local\Temp\ccCvdGmJ.s 			page 1


   1              		.cpu cortex-m0plus
   2              		.arch armv6s-m
   3              		.fpu softvfp
   4              		.eabi_attribute 20, 1
   5              		.eabi_attribute 21, 1
   6              		.eabi_attribute 23, 3
   7              		.eabi_attribute 24, 1
   8              		.eabi_attribute 25, 1
   9              		.eabi_attribute 26, 1
  10              		.eabi_attribute 30, 1
  11              		.eabi_attribute 34, 0
  12              		.eabi_attribute 18, 4
  13              		.file	"charger_control.c"
  14              		.text
  15              	.Ltext0:
  16              		.cfi_sections	.debug_frame
  17              		.file 1 "../Src/charger_control.c"
  18              		.section	.text.Read_ADC_Channels,"ax",%progbits
  19              		.align	1
  20              		.syntax unified
  21              		.code	16
  22              		.thumb_func
  24              	Read_ADC_Channels:
  25              	.LFB43:
   1:../Src/charger_control.c **** /**
   2:../Src/charger_control.c ****  ******************************************************************************
   3:../Src/charger_control.c ****  * @file    charger_control.c
   4:../Src/charger_control.c ****  * @brief   DANGER: OPEN-LOAD TEST FIRMWARE. Bypasses start-up safety checks.
   5:../Src/charger_control.c ****  ******************************************************************************
   6:../Src/charger_control.c ****  */
   7:../Src/charger_control.c **** 
   8:../Src/charger_control.c **** #include "charger_control.h"
   9:../Src/charger_control.c **** #include "main.h"
  10:../Src/charger_control.c **** 
  11:../Src/charger_control.c **** /* Thermal Limits (Celsius) */
  12:../Src/charger_control.c **** #define TEMP_FAULT_THRESHOLD      90.0f
  13:../Src/charger_control.c **** #define TEMP_RECOVERY_THRESHOLD   60.0f
  14:../Src/charger_control.c **** 
  15:../Src/charger_control.c **** static ChargeState_t currentState = CHARGE_STATE_IDLE;
  16:../Src/charger_control.c **** static ChargerConfig_t config = {0};
  17:../Src/charger_control.c **** 
  18:../Src/charger_control.c **** /* ADC Filtered Readings */
  19:../Src/charger_control.c **** static float actual_voltage = 0.0f;
  20:../Src/charger_control.c **** static float actual_current = 0.0f;
  21:../Src/charger_control.c **** static float actual_temp = 25.0f;
  22:../Src/charger_control.c **** 
  23:../Src/charger_control.c **** /* Internal hardware control abstraction */
  24:../Src/charger_control.c **** static void Update_TL494_Reference(float voltage_ref, float current_ref);
  25:../Src/charger_control.c **** static void Read_ADC_Channels(void);
  26:../Src/charger_control.c **** 
  27:../Src/charger_control.c **** /**
  28:../Src/charger_control.c ****  * @brief Enables the TL494 controller by pulling the Dead Time Control (DTC) pin LOW.
  29:../Src/charger_control.c ****  */
  30:../Src/charger_control.c **** void ChargerCtrl_EnableOutput(void)
  31:../Src/charger_control.c **** {
  32:../Src/charger_control.c ****     HAL_GPIO_WritePin(GPIOA, GPIO_PIN_1, GPIO_PIN_RESET);
  33:../Src/charger_control.c **** }
ARM GAS  C:\Users\Gautam\AppData\Local\Temp\ccCvdGmJ.s 			page 2


  34:../Src/charger_control.c **** 
  35:../Src/charger_control.c **** /**
  36:../Src/charger_control.c ****  * @brief Disables the TL494 controller by pulling the Dead Time Control (DTC) pin HIGH.
  37:../Src/charger_control.c ****  */
  38:../Src/charger_control.c **** void ChargerCtrl_DisableOutput(void)
  39:../Src/charger_control.c **** {
  40:../Src/charger_control.c ****     HAL_GPIO_WritePin(GPIOA, GPIO_PIN_1, GPIO_PIN_SET);
  41:../Src/charger_control.c **** }
  42:../Src/charger_control.c **** 
  43:../Src/charger_control.c **** void ChargerCtrl_Init(void)
  44:../Src/charger_control.c **** {
  45:../Src/charger_control.c ****     currentState = CHARGE_STATE_IDLE;
  46:../Src/charger_control.c ****     config.current_limit = 0.0f;
  47:../Src/charger_control.c ****     
  48:../Src/charger_control.c ****     /* Start safe, then override in Task */
  49:../Src/charger_control.c ****     ChargerCtrl_DisableOutput();
  50:../Src/charger_control.c ****     Update_TL494_Reference(0.0f, 0.0f);
  51:../Src/charger_control.c **** }
  52:../Src/charger_control.c **** 
  53:../Src/charger_control.c **** void ChargerCtrl_SetTargets(float vset, float cset)
  54:../Src/charger_control.c **** {
  55:../Src/charger_control.c ****     config.vset_target = vset;
  56:../Src/charger_control.c ****     config.cset_target = cset;
  57:../Src/charger_control.c **** }
  58:../Src/charger_control.c **** 
  59:../Src/charger_control.c **** void ChargerCtrl_Task(void)
  60:../Src/charger_control.c **** {
  61:../Src/charger_control.c ****     /* 1. Fetch live hardware data from ADC */
  62:../Src/charger_control.c ****     Read_ADC_Channels();
  63:../Src/charger_control.c **** 
  64:../Src/charger_control.c ****     /* 2. Critical Hardware Protections (Kept active for test safety) */
  65:../Src/charger_control.c ****     if (actual_temp >= TEMP_FAULT_THRESHOLD) 
  66:../Src/charger_control.c ****     {
  67:../Src/charger_control.c ****         currentState = CHARGE_STATE_FAULT;
  68:../Src/charger_control.c ****         ChargerCtrl_DisableOutput(); 
  69:../Src/charger_control.c ****     }
  70:../Src/charger_control.c **** 
  71:../Src/charger_control.c ****     if (currentState == CHARGE_STATE_FAULT)
  72:../Src/charger_control.c ****     {
  73:../Src/charger_control.c ****         if (actual_temp <= TEMP_RECOVERY_THRESHOLD)
  74:../Src/charger_control.c ****         {
  75:../Src/charger_control.c ****             currentState = CHARGE_STATE_IDLE; 
  76:../Src/charger_control.c ****         }
  77:../Src/charger_control.c ****         return; 
  78:../Src/charger_control.c ****     }
  79:../Src/charger_control.c **** 
  80:../Src/charger_control.c ****     /* 3. Main State Machine - TEST OVERRIDE */
  81:../Src/charger_control.c ****     switch (currentState)
  82:../Src/charger_control.c ****     {
  83:../Src/charger_control.c ****         case CHARGE_STATE_IDLE:
  84:../Src/charger_control.c ****             /* ⚠️ DANGER: FORCING OUTPUT ON IMMEDIATELY ⚠️ */
  85:../Src/charger_control.c ****             /* Bypassing battery detection (Vset Wake) and Soft Start */
  86:../Src/charger_control.c ****             config.current_limit = config.cset_target; 
  87:../Src/charger_control.c ****             currentState = CHARGE_STATE_CC_CV;
  88:../Src/charger_control.c ****             ChargerCtrl_EnableOutput(); /* Turns on the TL494 */
  89:../Src/charger_control.c ****             break;
  90:../Src/charger_control.c **** 
ARM GAS  C:\Users\Gautam\AppData\Local\Temp\ccCvdGmJ.s 			page 3


  91:../Src/charger_control.c ****         case CHARGE_STATE_CC_CV:
  92:../Src/charger_control.c ****             /* Output is live. Continously update references if using DAC/PWM */
  93:../Src/charger_control.c ****             Update_TL494_Reference(config.vset_target, config.current_limit);
  94:../Src/charger_control.c ****             break;
  95:../Src/charger_control.c **** 
  96:../Src/charger_control.c ****         default:
  97:../Src/charger_control.c ****             break;
  98:../Src/charger_control.c ****     }
  99:../Src/charger_control.c **** }
 100:../Src/charger_control.c **** 
 101:../Src/charger_control.c **** /**
 102:../Src/charger_control.c ****  * @brief  Updates the reference voltages fed to the TL494 error amplifiers.
 103:../Src/charger_control.c ****  */
 104:../Src/charger_control.c **** static void Update_TL494_Reference(float voltage_ref, float current_ref)
 105:../Src/charger_control.c **** {
 106:../Src/charger_control.c ****     /* To get EXACTLY 67.0V instead of the hardware default (e.g. 67.2V), 
 107:../Src/charger_control.c ****      * you must output a PWM/DAC signal here to adjust the TL494 Error Amp.
 108:../Src/charger_control.c ****      * If this is empty, the output relies purely on your PCB's resistor divider.
 109:../Src/charger_control.c ****      */
 110:../Src/charger_control.c **** }
 111:../Src/charger_control.c **** 
 112:../Src/charger_control.c **** /**
 113:../Src/charger_control.c ****  * @brief  Reads ADC to get the REAL voltage for the TM1637 display.
 114:../Src/charger_control.c ****  */
 115:../Src/charger_control.c **** static void Read_ADC_Channels(void)
 116:../Src/charger_control.c **** {
  26              		.loc 1 116 1 view -0
  27              		.cfi_startproc
  28              		@ args = 0, pretend = 0, frame = 0
  29              		@ frame_needed = 0, uses_anonymous_args = 0
  30              		@ link register save eliminated.
 117:../Src/charger_control.c ****     /* TODO: You MUST map your PY32 ADC register here for the display to work. */
 118:../Src/charger_control.c ****     /* Example: 
 119:../Src/charger_control.c ****      * uint32_t raw_adc = HAL_ADC_GetValue(&hadc);
 120:../Src/charger_control.c ****      * actual_voltage = (float)raw_adc * (3.3f / 4095.0f) * VOLTAGE_DIVIDER_RATIO;
 121:../Src/charger_control.c ****      */
 122:../Src/charger_control.c ****      
 123:../Src/charger_control.c ****     /* TEMPORARY MOCK VALUE: Remove this when ADC is configured */
 124:../Src/charger_control.c ****     actual_voltage = 67.0f; 
  31              		.loc 1 124 5 view .LVU1
  32              		.loc 1 124 20 is_stmt 0 view .LVU2
  33 0000 014B     		ldr	r3, .L2
  34 0002 024A     		ldr	r2, .L2+4
  35 0004 1A60     		str	r2, [r3]
 125:../Src/charger_control.c **** }
  36              		.loc 1 125 1 view .LVU3
  37              		@ sp needed
  38 0006 7047     		bx	lr
  39              	.L3:
  40              		.align	2
  41              	.L2:
  42 0008 00000000 		.word	actual_voltage
  43 000c 00008642 		.word	1116078080
  44              		.cfi_endproc
  45              	.LFE43:
  47              		.section	.text.ChargerCtrl_EnableOutput,"ax",%progbits
  48              		.align	1
ARM GAS  C:\Users\Gautam\AppData\Local\Temp\ccCvdGmJ.s 			page 4


  49              		.global	ChargerCtrl_EnableOutput
  50              		.syntax unified
  51              		.code	16
  52              		.thumb_func
  54              	ChargerCtrl_EnableOutput:
  55              	.LFB37:
  31:../Src/charger_control.c ****     HAL_GPIO_WritePin(GPIOA, GPIO_PIN_1, GPIO_PIN_RESET);
  56              		.loc 1 31 1 is_stmt 1 view -0
  57              		.cfi_startproc
  58              		@ args = 0, pretend = 0, frame = 0
  59              		@ frame_needed = 0, uses_anonymous_args = 0
  60 0000 10B5     		push	{r4, lr}
  61              	.LCFI0:
  62              		.cfi_def_cfa_offset 8
  63              		.cfi_offset 4, -8
  64              		.cfi_offset 14, -4
  32:../Src/charger_control.c **** }
  65              		.loc 1 32 5 view .LVU5
  66 0002 A020     		movs	r0, #160
  67 0004 0022     		movs	r2, #0
  68 0006 0221     		movs	r1, #2
  69 0008 C005     		lsls	r0, r0, #23
  70 000a FFF7FEFF 		bl	HAL_GPIO_WritePin
  71              	.LVL0:
  33:../Src/charger_control.c **** 
  72              		.loc 1 33 1 is_stmt 0 view .LVU6
  73              		@ sp needed
  74 000e 10BD     		pop	{r4, pc}
  75              		.cfi_endproc
  76              	.LFE37:
  78              		.section	.text.ChargerCtrl_DisableOutput,"ax",%progbits
  79              		.align	1
  80              		.global	ChargerCtrl_DisableOutput
  81              		.syntax unified
  82              		.code	16
  83              		.thumb_func
  85              	ChargerCtrl_DisableOutput:
  86              	.LFB38:
  39:../Src/charger_control.c ****     HAL_GPIO_WritePin(GPIOA, GPIO_PIN_1, GPIO_PIN_SET);
  87              		.loc 1 39 1 is_stmt 1 view -0
  88              		.cfi_startproc
  89              		@ args = 0, pretend = 0, frame = 0
  90              		@ frame_needed = 0, uses_anonymous_args = 0
  91 0000 10B5     		push	{r4, lr}
  92              	.LCFI1:
  93              		.cfi_def_cfa_offset 8
  94              		.cfi_offset 4, -8
  95              		.cfi_offset 14, -4
  40:../Src/charger_control.c **** }
  96              		.loc 1 40 5 view .LVU8
  97 0002 A020     		movs	r0, #160
  98 0004 0122     		movs	r2, #1
  99 0006 0221     		movs	r1, #2
 100 0008 C005     		lsls	r0, r0, #23
 101 000a FFF7FEFF 		bl	HAL_GPIO_WritePin
 102              	.LVL1:
  41:../Src/charger_control.c **** 
ARM GAS  C:\Users\Gautam\AppData\Local\Temp\ccCvdGmJ.s 			page 5


 103              		.loc 1 41 1 is_stmt 0 view .LVU9
 104              		@ sp needed
 105 000e 10BD     		pop	{r4, pc}
 106              		.cfi_endproc
 107              	.LFE38:
 109              		.section	.text.ChargerCtrl_Init,"ax",%progbits
 110              		.align	1
 111              		.global	ChargerCtrl_Init
 112              		.syntax unified
 113              		.code	16
 114              		.thumb_func
 116              	ChargerCtrl_Init:
 117              	.LFB39:
  44:../Src/charger_control.c ****     currentState = CHARGE_STATE_IDLE;
 118              		.loc 1 44 1 is_stmt 1 view -0
 119              		.cfi_startproc
 120              		@ args = 0, pretend = 0, frame = 0
 121              		@ frame_needed = 0, uses_anonymous_args = 0
 122 0000 10B5     		push	{r4, lr}
 123              	.LCFI2:
 124              		.cfi_def_cfa_offset 8
 125              		.cfi_offset 4, -8
 126              		.cfi_offset 14, -4
  45:../Src/charger_control.c ****     config.current_limit = 0.0f;
 127              		.loc 1 45 5 view .LVU11
  45:../Src/charger_control.c ****     config.current_limit = 0.0f;
 128              		.loc 1 45 18 is_stmt 0 view .LVU12
 129 0002 044B     		ldr	r3, .L7
 130 0004 0022     		movs	r2, #0
 131 0006 1A70     		strb	r2, [r3]
  46:../Src/charger_control.c ****     
 132              		.loc 1 46 5 is_stmt 1 view .LVU13
  46:../Src/charger_control.c ****     
 133              		.loc 1 46 26 is_stmt 0 view .LVU14
 134 0008 034B     		ldr	r3, .L7+4
 135 000a 0022     		movs	r2, #0
 136 000c 9A60     		str	r2, [r3, #8]
  49:../Src/charger_control.c ****     Update_TL494_Reference(0.0f, 0.0f);
 137              		.loc 1 49 5 is_stmt 1 view .LVU15
 138 000e FFF7FEFF 		bl	ChargerCtrl_DisableOutput
 139              	.LVL2:
  50:../Src/charger_control.c **** }
 140              		.loc 1 50 5 view .LVU16
  51:../Src/charger_control.c **** 
 141              		.loc 1 51 1 is_stmt 0 view .LVU17
 142              		@ sp needed
 143 0012 10BD     		pop	{r4, pc}
 144              	.L8:
 145              		.align	2
 146              	.L7:
 147 0014 00000000 		.word	currentState
 148 0018 00000000 		.word	config
 149              		.cfi_endproc
 150              	.LFE39:
 152              		.section	.text.ChargerCtrl_SetTargets,"ax",%progbits
 153              		.align	1
 154              		.global	ChargerCtrl_SetTargets
ARM GAS  C:\Users\Gautam\AppData\Local\Temp\ccCvdGmJ.s 			page 6


 155              		.syntax unified
 156              		.code	16
 157              		.thumb_func
 159              	ChargerCtrl_SetTargets:
 160              	.LVL3:
 161              	.LFB40:
  54:../Src/charger_control.c ****     config.vset_target = vset;
 162              		.loc 1 54 1 is_stmt 1 view -0
 163              		.cfi_startproc
 164              		@ args = 0, pretend = 0, frame = 0
 165              		@ frame_needed = 0, uses_anonymous_args = 0
 166              		@ link register save eliminated.
  55:../Src/charger_control.c ****     config.cset_target = cset;
 167              		.loc 1 55 5 view .LVU19
  55:../Src/charger_control.c ****     config.cset_target = cset;
 168              		.loc 1 55 24 is_stmt 0 view .LVU20
 169 0000 014B     		ldr	r3, .L10
 170 0002 1860     		str	r0, [r3]
  56:../Src/charger_control.c **** }
 171              		.loc 1 56 5 is_stmt 1 view .LVU21
  56:../Src/charger_control.c **** }
 172              		.loc 1 56 24 is_stmt 0 view .LVU22
 173 0004 5960     		str	r1, [r3, #4]
  57:../Src/charger_control.c **** 
 174              		.loc 1 57 1 view .LVU23
 175              		@ sp needed
 176 0006 7047     		bx	lr
 177              	.L11:
 178              		.align	2
 179              	.L10:
 180 0008 00000000 		.word	config
 181              		.cfi_endproc
 182              	.LFE40:
 184              		.section	.text.ChargerCtrl_Task,"ax",%progbits
 185              		.align	1
 186              		.global	ChargerCtrl_Task
 187              		.syntax unified
 188              		.code	16
 189              		.thumb_func
 191              	ChargerCtrl_Task:
 192              	.LFB41:
  60:../Src/charger_control.c ****     /* 1. Fetch live hardware data from ADC */
 193              		.loc 1 60 1 is_stmt 1 view -0
 194              		.cfi_startproc
 195              		@ args = 0, pretend = 0, frame = 0
 196              		@ frame_needed = 0, uses_anonymous_args = 0
 197 0000 10B5     		push	{r4, lr}
 198              	.LCFI3:
 199              		.cfi_def_cfa_offset 8
 200              		.cfi_offset 4, -8
 201              		.cfi_offset 14, -4
  62:../Src/charger_control.c **** 
 202              		.loc 1 62 5 view .LVU25
 203 0002 FFF7FEFF 		bl	Read_ADC_Channels
 204              	.LVL4:
  65:../Src/charger_control.c ****     {
 205              		.loc 1 65 5 view .LVU26
ARM GAS  C:\Users\Gautam\AppData\Local\Temp\ccCvdGmJ.s 			page 7


  71:../Src/charger_control.c ****     {
 206              		.loc 1 71 5 view .LVU27
  71:../Src/charger_control.c ****     {
 207              		.loc 1 71 22 is_stmt 0 view .LVU28
 208 0006 0A4B     		ldr	r3, .L17
 209 0008 1B78     		ldrb	r3, [r3]
  71:../Src/charger_control.c ****     {
 210              		.loc 1 71 8 view .LVU29
 211 000a 052B     		cmp	r3, #5
 212 000c 02D0     		beq	.L15
  81:../Src/charger_control.c ****     {
 213              		.loc 1 81 5 is_stmt 1 view .LVU30
 214 000e 002B     		cmp	r3, #0
 215 0010 04D0     		beq	.L16
 216              	.L12:
  99:../Src/charger_control.c **** 
 217              		.loc 1 99 1 is_stmt 0 view .LVU31
 218              		@ sp needed
 219 0012 10BD     		pop	{r4, pc}
 220              	.L15:
  73:../Src/charger_control.c ****         {
 221              		.loc 1 73 9 is_stmt 1 view .LVU32
  75:../Src/charger_control.c ****         }
 222              		.loc 1 75 13 view .LVU33
  75:../Src/charger_control.c ****         }
 223              		.loc 1 75 26 is_stmt 0 view .LVU34
 224 0014 064B     		ldr	r3, .L17
 225 0016 0022     		movs	r2, #0
 226 0018 1A70     		strb	r2, [r3]
  77:../Src/charger_control.c ****     }
 227              		.loc 1 77 9 is_stmt 1 view .LVU35
 228 001a FAE7     		b	.L12
 229              	.L16:
  86:../Src/charger_control.c ****             currentState = CHARGE_STATE_CC_CV;
 230              		.loc 1 86 13 view .LVU36
  86:../Src/charger_control.c ****             currentState = CHARGE_STATE_CC_CV;
 231              		.loc 1 86 42 is_stmt 0 view .LVU37
 232 001c 054B     		ldr	r3, .L17+4
 233 001e 5A68     		ldr	r2, [r3, #4]
  86:../Src/charger_control.c ****             currentState = CHARGE_STATE_CC_CV;
 234              		.loc 1 86 34 view .LVU38
 235 0020 9A60     		str	r2, [r3, #8]
  87:../Src/charger_control.c ****             ChargerCtrl_EnableOutput(); /* Turns on the TL494 */
 236              		.loc 1 87 13 is_stmt 1 view .LVU39
  87:../Src/charger_control.c ****             ChargerCtrl_EnableOutput(); /* Turns on the TL494 */
 237              		.loc 1 87 26 is_stmt 0 view .LVU40
 238 0022 034B     		ldr	r3, .L17
 239 0024 0322     		movs	r2, #3
 240 0026 1A70     		strb	r2, [r3]
  88:../Src/charger_control.c ****             break;
 241              		.loc 1 88 13 is_stmt 1 view .LVU41
 242 0028 FFF7FEFF 		bl	ChargerCtrl_EnableOutput
 243              	.LVL5:
  89:../Src/charger_control.c **** 
 244              		.loc 1 89 13 view .LVU42
 245 002c F1E7     		b	.L12
 246              	.L18:
ARM GAS  C:\Users\Gautam\AppData\Local\Temp\ccCvdGmJ.s 			page 8


 247 002e C046     		.align	2
 248              	.L17:
 249 0030 00000000 		.word	currentState
 250 0034 00000000 		.word	config
 251              		.cfi_endproc
 252              	.LFE41:
 254              		.section	.text.ChargerCtrl_GetActualVoltage,"ax",%progbits
 255              		.align	1
 256              		.global	ChargerCtrl_GetActualVoltage
 257              		.syntax unified
 258              		.code	16
 259              		.thumb_func
 261              	ChargerCtrl_GetActualVoltage:
 262              	.LFB44:
 126:../Src/charger_control.c **** 
 127:../Src/charger_control.c **** /* --- Global Module Getters --- */
 128:../Src/charger_control.c **** 
 129:../Src/charger_control.c **** float ChargerCtrl_GetActualVoltage(void)
 130:../Src/charger_control.c **** {
 263              		.loc 1 130 1 view -0
 264              		.cfi_startproc
 265              		@ args = 0, pretend = 0, frame = 0
 266              		@ frame_needed = 0, uses_anonymous_args = 0
 267              		@ link register save eliminated.
 131:../Src/charger_control.c ****     /* Returns the live ADC voltage. main.c calls this to update the TM1637 */
 132:../Src/charger_control.c ****     return actual_voltage;
 268              		.loc 1 132 5 view .LVU44
 269              		.loc 1 132 12 is_stmt 0 view .LVU45
 270 0000 014B     		ldr	r3, .L20
 271              		.loc 1 132 12 discriminator 1 view .LVU46
 272 0002 1868     		ldr	r0, [r3]
 133:../Src/charger_control.c **** }
 273              		.loc 1 133 1 view .LVU47
 274              		@ sp needed
 275 0004 7047     		bx	lr
 276              	.L21:
 277 0006 C046     		.align	2
 278              	.L20:
 279 0008 00000000 		.word	actual_voltage
 280              		.cfi_endproc
 281              	.LFE44:
 283              		.section	.text.ChargerCtrl_GetVsetTarget,"ax",%progbits
 284              		.align	1
 285              		.global	ChargerCtrl_GetVsetTarget
 286              		.syntax unified
 287              		.code	16
 288              		.thumb_func
 290              	ChargerCtrl_GetVsetTarget:
 291              	.LFB45:
 134:../Src/charger_control.c **** 
 135:../Src/charger_control.c **** float ChargerCtrl_GetVsetTarget(void)
 136:../Src/charger_control.c **** {
 292              		.loc 1 136 1 is_stmt 1 view -0
 293              		.cfi_startproc
 294              		@ args = 0, pretend = 0, frame = 0
 295              		@ frame_needed = 0, uses_anonymous_args = 0
 296              		@ link register save eliminated.
ARM GAS  C:\Users\Gautam\AppData\Local\Temp\ccCvdGmJ.s 			page 9


 137:../Src/charger_control.c ****     return config.vset_target;
 297              		.loc 1 137 5 view .LVU49
 298              		.loc 1 137 18 is_stmt 0 view .LVU50
 299 0000 014B     		ldr	r3, .L23
 300              		.loc 1 137 18 discriminator 1 view .LVU51
 301 0002 1868     		ldr	r0, [r3]
 138:../Src/charger_control.c **** }
 302              		.loc 1 138 1 view .LVU52
 303              		@ sp needed
 304 0004 7047     		bx	lr
 305              	.L24:
 306 0006 C046     		.align	2
 307              	.L23:
 308 0008 00000000 		.word	config
 309              		.cfi_endproc
 310              	.LFE45:
 312              		.section	.text.ChargerCtrl_GetState,"ax",%progbits
 313              		.align	1
 314              		.global	ChargerCtrl_GetState
 315              		.syntax unified
 316              		.code	16
 317              		.thumb_func
 319              	ChargerCtrl_GetState:
 320              	.LFB46:
 139:../Src/charger_control.c **** 
 140:../Src/charger_control.c **** ChargeState_t ChargerCtrl_GetState(void)
 141:../Src/charger_control.c **** {
 321              		.loc 1 141 1 is_stmt 1 view -0
 322              		.cfi_startproc
 323              		@ args = 0, pretend = 0, frame = 0
 324              		@ frame_needed = 0, uses_anonymous_args = 0
 325              		@ link register save eliminated.
 142:../Src/charger_control.c ****     return currentState;
 326              		.loc 1 142 5 view .LVU54
 327              		.loc 1 142 12 is_stmt 0 view .LVU55
 328 0000 014B     		ldr	r3, .L26
 329              		.loc 1 142 12 discriminator 1 view .LVU56
 330 0002 1878     		ldrb	r0, [r3]
 143:../Src/charger_control.c **** }...
 331              		.loc 1 143 1 view .LVU57
 332              		@ sp needed
 333 0004 7047     		bx	lr
 334              	.L27:
 335 0006 C046     		.align	2
 336              	.L26:
 337 0008 00000000 		.word	currentState
 338              		.cfi_endproc
 339              	.LFE46:
 341              		.section	.bss.actual_voltage,"aw",%nobits
 342              		.align	2
 345              	actual_voltage:
 346 0000 00000000 		.space	4
 347              		.section	.bss.config,"aw",%nobits
 348              		.align	2
 351              	config:
 352 0000 00000000 		.space	12
 352      00000000 
ARM GAS  C:\Users\Gautam\AppData\Local\Temp\ccCvdGmJ.s 			page 10


 352      00000000 
 353              		.section	.bss.currentState,"aw",%nobits
 356              	currentState:
 357 0000 00       		.space	1
 358              		.text
 359              	.Letext0:
 360              		.file 2 "C:/Program Files (x86)/Arm GNU Toolchain arm-none-eabi/14.3 rel1/arm-none-eabi/include/ma
 361              		.file 3 "C:/Program Files (x86)/Arm GNU Toolchain arm-none-eabi/14.3 rel1/arm-none-eabi/include/sy
 362              		.file 4 "../../../PY32F002B_Firmware_V1.2.1/PY32F002B_Firmware_V1.2.1/Drivers/CMSIS/Device/PY32F0x
 363              		.file 5 "../../../PY32F002B_Firmware_V1.2.1/PY32F002B_Firmware_V1.2.1/Drivers/PY32F002B_HAL_Driver
 364              		.file 6 "../Inc/charger_control.h"
ARM GAS  C:\Users\Gautam\AppData\Local\Temp\ccCvdGmJ.s 			page 11

