ARM GAS  C:\Users\Gautam\AppData\Local\Temp\cchduyDh.s 			page 1


   1              		.cpu cortex-m0plus
   2              		.arch armv6s-m
   3              		.fpu softvfp
   4              		.eabi_attribute 20, 1
   5              		.eabi_attribute 21, 1
   6              		.eabi_attribute 23, 3
   7              		.eabi_attribute 24, 1
   8              		.eabi_attribute 25, 1
   9              		.eabi_attribute 26, 1
  10              		.eabi_attribute 30, 1
  11              		.eabi_attribute 34, 0
  12              		.eabi_attribute 18, 4
  13              		.file	"main.c"
  14              		.text
  15              	.Ltext0:
  16              		.cfi_sections	.debug_frame
  17              		.file 1 "../Src/main.c"
  18              		.section	.text.SystemInit_GPIO,"ax",%progbits
  19              		.align	1
  20              		.syntax unified
  21              		.code	16
  22              		.thumb_func
  24              	SystemInit_GPIO:
  25              	.LFB38:
   1:../Src/main.c **** /*
   2:../Src/main.c ****  * main.c - EV Charger Firmware
   3:../Src/main.c ****  * * Modular architecture with state machine control.
   4:../Src/main.c ****  * Calls to menu/button/display still occur, but display manager
   5:../Src/main.c ****  * prioritizes what gets shown based on charger state.
   6:../Src/main.c ****  */
   7:../Src/main.c **** 
   8:../Src/main.c **** #include <stdint.h>
   9:../Src/main.c **** #include <stdbool.h>
  10:../Src/main.c **** 
  11:../Src/main.c **** // Hardware headers (assuming CMSIS-style)
  12:../Src/main.c **** #include "py32f0xx.h"
  13:../Src/main.c **** 
  14:../Src/main.c **** // Application modules
  15:../Src/main.c **** #include "charger_sm.h"
  16:../Src/main.c **** #include "charger_adc.h"
  17:../Src/main.c **** #include "button.h"
  18:../Src/main.c **** #include "menu.h"
  19:../Src/main.c **** #include "tm1637.h"
  20:../Src/main.c **** #include "battery.h"
  21:../Src/main.c **** #include "soc.h"
  22:../Src/main.c **** 
  23:../Src/main.c **** /* =====================================================
  24:../Src/main.c ****    Configuration & Hardware Setup
  25:../Src/main.c ****    ===================================================== */
  26:../Src/main.c **** 
  27:../Src/main.c **** // Timer ISR counter (10 ms tick)
  28:../Src/main.c **** static volatile uint32_t g_systick_ms = 0;
  29:../Src/main.c **** 
  30:../Src/main.c **** // ADC ISR counter (triggers conversion every 100 ms)
  31:../Src/main.c **** static volatile uint8_t g_adc_interval_counter = 0;
  32:../Src/main.c **** static bool g_menu_was_active = false;
  33:../Src/main.c **** 
ARM GAS  C:\Users\Gautam\AppData\Local\Temp\cchduyDh.s 			page 2


  34:../Src/main.c **** // Display state (what to show)
  35:../Src/main.c **** typedef enum {
  36:../Src/main.c ****     DISPLAY_VOLTAGE,
  37:../Src/main.c ****     DISPLAY_CURRENT,
  38:../Src/main.c ****     DISPLAY_SOC,
  39:../Src/main.c ****     DISPLAY_FAULT_CODE,
  40:../Src/main.c ****     DISPLAY_MENU,
  41:../Src/main.c **** } DisplayMode_t;
  42:../Src/main.c **** 
  43:../Src/main.c **** static DisplayMode_t g_display_mode = DISPLAY_VOLTAGE;
  44:../Src/main.c **** static uint32_t g_display_timer = 0;  // Alternates every 100 deciseconds (10 sec)
  45:../Src/main.c **** 
  46:../Src/main.c **** /* =====================================================
  47:../Src/main.c ****    Hardware Initialization
  48:../Src/main.c ****    ===================================================== */
  49:../Src/main.c **** 
  50:../Src/main.c **** static void SystemInit_Clock(void)
  51:../Src/main.c **** {
  52:../Src/main.c ****     // Configure system clock (HSI 8 MHz, no PLL assumed for simplicity)
  53:../Src/main.c ****     // In real code, use HAL or CMSIS clock configuration
  54:../Src/main.c **** }
  55:../Src/main.c **** 
  56:../Src/main.c **** static void SystemInit_GPIO(void)
  57:../Src/main.c **** {
  26              		.loc 1 57 1 view -0
  27              		.cfi_startproc
  28              		@ args = 0, pretend = 0, frame = 8
  29              		@ frame_needed = 0, uses_anonymous_args = 0
  30 0000 70B5     		push	{r4, r5, r6, lr}
  31              	.LCFI0:
  32              		.cfi_def_cfa_offset 16
  33              		.cfi_offset 4, -16
  34              		.cfi_offset 5, -12
  35              		.cfi_offset 6, -8
  36              		.cfi_offset 14, -4
  37 0002 82B0     		sub	sp, sp, #8
  38              	.LCFI1:
  39              		.cfi_def_cfa_offset 24
  58:../Src/main.c ****     __HAL_RCC_GPIOA_CLK_ENABLE();
  40              		.loc 1 58 5 view .LVU1
  41              	.LBB12:
  42              		.loc 1 58 5 view .LVU2
  43              		.loc 1 58 5 view .LVU3
  44 0004 1F4B     		ldr	r3, .L2
  45 0006 596B     		ldr	r1, [r3, #52]
  46 0008 0122     		movs	r2, #1
  47 000a 1143     		orrs	r1, r2
  48 000c 5963     		str	r1, [r3, #52]
  49              		.loc 1 58 5 view .LVU4
  50 000e 596B     		ldr	r1, [r3, #52]
  51 0010 0A40     		ands	r2, r1
  52 0012 0092     		str	r2, [sp]
  53              		.loc 1 58 5 view .LVU5
  54 0014 009A     		ldr	r2, [sp]
  55              	.LBE12:
  56              		.loc 1 58 5 view .LVU6
  59:../Src/main.c ****     __HAL_RCC_GPIOB_CLK_ENABLE();
ARM GAS  C:\Users\Gautam\AppData\Local\Temp\cchduyDh.s 			page 3


  57              		.loc 1 59 5 view .LVU7
  58              	.LBB13:
  59              		.loc 1 59 5 view .LVU8
  60              		.loc 1 59 5 view .LVU9
  61 0016 596B     		ldr	r1, [r3, #52]
  62 0018 0222     		movs	r2, #2
  63 001a 1143     		orrs	r1, r2
  64 001c 5963     		str	r1, [r3, #52]
  65              		.loc 1 59 5 view .LVU10
  66 001e 5B6B     		ldr	r3, [r3, #52]
  67 0020 1340     		ands	r3, r2
  68 0022 0193     		str	r3, [sp, #4]
  69              		.loc 1 59 5 view .LVU11
  70 0024 019B     		ldr	r3, [sp, #4]
  71              	.LBE13:
  72              		.loc 1 59 5 view .LVU12
  60:../Src/main.c ****     
  61:../Src/main.c ****     // PA1: DTC Control (Output) -> HIGH = OFF, LOW = ON
  62:../Src/main.c ****     GPIOA->MODER &= ~(0x3 << (1 * 2)); 
  73              		.loc 1 62 5 view .LVU13
  74              		.loc 1 62 10 is_stmt 0 view .LVU14
  75 0026 A023     		movs	r3, #160
  76 0028 DB05     		lsls	r3, r3, #23
  77 002a 1968     		ldr	r1, [r3]
  78              		.loc 1 62 18 view .LVU15
  79 002c 0C25     		movs	r5, #12
  80 002e A943     		bics	r1, r5
  81 0030 1960     		str	r1, [r3]
  63:../Src/main.c ****     GPIOA->MODER |=  (0x1 << (1 * 2)); 
  82              		.loc 1 63 5 is_stmt 1 view .LVU16
  83              		.loc 1 63 10 is_stmt 0 view .LVU17
  84 0032 1868     		ldr	r0, [r3]
  85              		.loc 1 63 18 view .LVU18
  86 0034 0421     		movs	r1, #4
  87 0036 0843     		orrs	r0, r1
  88 0038 1860     		str	r0, [r3]
  64:../Src/main.c ****     GPIOA->BSRR = GPIO_PIN_1; // Set High (TL494 OFF) by default
  89              		.loc 1 64 5 is_stmt 1 view .LVU19
  90              		.loc 1 64 17 is_stmt 0 view .LVU20
  91 003a 9A61     		str	r2, [r3, #24]
  65:../Src/main.c **** 
  66:../Src/main.c ****     // PA2: FAN Control (Output) -> HIGH = ON, LOW = OFF
  67:../Src/main.c ****     GPIOA->MODER &= ~(0x3 << (2 * 2));
  92              		.loc 1 67 5 is_stmt 1 view .LVU21
  93              		.loc 1 67 10 is_stmt 0 view .LVU22
  94 003c 1A68     		ldr	r2, [r3]
  95              		.loc 1 67 18 view .LVU23
  96 003e 3024     		movs	r4, #48
  97 0040 A243     		bics	r2, r4
  98 0042 1A60     		str	r2, [r3]
  68:../Src/main.c ****     GPIOA->MODER |=  (0x1 << (2 * 2));
  99              		.loc 1 68 5 is_stmt 1 view .LVU24
 100              		.loc 1 68 10 is_stmt 0 view .LVU25
 101 0044 1A68     		ldr	r2, [r3]
 102              		.loc 1 68 18 view .LVU26
 103 0046 1020     		movs	r0, #16
 104 0048 0243     		orrs	r2, r0
ARM GAS  C:\Users\Gautam\AppData\Local\Temp\cchduyDh.s 			page 4


 105 004a 1A60     		str	r2, [r3]
  69:../Src/main.c ****     GPIOA->BRR = GPIO_PIN_2;  // Set Low (Fan OFF) by default
 106              		.loc 1 69 5 is_stmt 1 view .LVU27
 107              		.loc 1 69 16 is_stmt 0 view .LVU28
 108 004c 9962     		str	r1, [r3, #40]
  70:../Src/main.c ****     
  71:../Src/main.c ****     // PA3: AC Power Sense (Input from Q5 Optocoupler)
  72:../Src/main.c ****     GPIOA->MODER &= ~(0x3 << (3 * 2)); // Input mode
 109              		.loc 1 72 5 is_stmt 1 view .LVU29
 110              		.loc 1 72 10 is_stmt 0 view .LVU30
 111 004e 1A68     		ldr	r2, [r3]
 112              		.loc 1 72 18 view .LVU31
 113 0050 C026     		movs	r6, #192
 114 0052 B243     		bics	r2, r6
 115 0054 1A60     		str	r2, [r3]
  73:../Src/main.c ****     GPIOA->PUPDR &= ~(0x3 << (3 * 2));
 116              		.loc 1 73 5 is_stmt 1 view .LVU32
 117              		.loc 1 73 10 is_stmt 0 view .LVU33
 118 0056 DA68     		ldr	r2, [r3, #12]
 119              		.loc 1 73 18 view .LVU34
 120 0058 B243     		bics	r2, r6
 121 005a DA60     		str	r2, [r3, #12]
  74:../Src/main.c ****     GPIOA->PUPDR |=  (0x1 << (3 * 2)); // Enable Internal Pull-up
 122              		.loc 1 74 5 is_stmt 1 view .LVU35
 123              		.loc 1 74 10 is_stmt 0 view .LVU36
 124 005c DA68     		ldr	r2, [r3, #12]
 125              		.loc 1 74 18 view .LVU37
 126 005e 803E     		subs	r6, r6, #128
 127 0060 3243     		orrs	r2, r6
 128 0062 DA60     		str	r2, [r3, #12]
  75:../Src/main.c **** 
  76:../Src/main.c ****     // TM1637 (PB1, PB2)
  77:../Src/main.c ****     GPIOB->MODER &= ~(0x3 << (1 * 2));
 129              		.loc 1 77 5 is_stmt 1 view .LVU38
 130              		.loc 1 77 10 is_stmt 0 view .LVU39
 131 0064 084B     		ldr	r3, .L2+4
 132 0066 1A68     		ldr	r2, [r3]
 133              		.loc 1 77 18 view .LVU40
 134 0068 AA43     		bics	r2, r5
 135 006a 1A60     		str	r2, [r3]
  78:../Src/main.c ****     GPIOB->MODER &= ~(0x3 << (2 * 2));
 136              		.loc 1 78 5 is_stmt 1 view .LVU41
 137              		.loc 1 78 10 is_stmt 0 view .LVU42
 138 006c 1A68     		ldr	r2, [r3]
 139              		.loc 1 78 18 view .LVU43
 140 006e A243     		bics	r2, r4
 141 0070 1A60     		str	r2, [r3]
  79:../Src/main.c ****     GPIOB->MODER |= (0x1 << (1 * 2));
 142              		.loc 1 79 5 is_stmt 1 view .LVU44
 143              		.loc 1 79 10 is_stmt 0 view .LVU45
 144 0072 1A68     		ldr	r2, [r3]
 145              		.loc 1 79 18 view .LVU46
 146 0074 0A43     		orrs	r2, r1
 147 0076 1A60     		str	r2, [r3]
  80:../Src/main.c ****     GPIOB->MODER |= (0x1 << (2 * 2));
 148              		.loc 1 80 5 is_stmt 1 view .LVU47
 149              		.loc 1 80 10 is_stmt 0 view .LVU48
ARM GAS  C:\Users\Gautam\AppData\Local\Temp\cchduyDh.s 			page 5


 150 0078 1A68     		ldr	r2, [r3]
 151              		.loc 1 80 18 view .LVU49
 152 007a 0243     		orrs	r2, r0
 153 007c 1A60     		str	r2, [r3]
  81:../Src/main.c **** }
 154              		.loc 1 81 1 view .LVU50
 155 007e 02B0     		add	sp, sp, #8
 156              		@ sp needed
 157 0080 70BD     		pop	{r4, r5, r6, pc}
 158              	.L3:
 159 0082 C046     		.align	2
 160              	.L2:
 161 0084 00100240 		.word	1073876992
 162 0088 00040050 		.word	1342178304
 163              		.cfi_endproc
 164              	.LFE38:
 166              		.section	.text.SystemInit_Timer,"ax",%progbits
 167              		.align	1
 168              		.syntax unified
 169              		.code	16
 170              		.thumb_func
 172              	SystemInit_Timer:
 173              	.LFB39:
  82:../Src/main.c **** 
  83:../Src/main.c **** static void SystemInit_Timer(void)
  84:../Src/main.c **** {
 174              		.loc 1 84 1 is_stmt 1 view -0
 175              		.cfi_startproc
 176              		@ args = 0, pretend = 0, frame = 0
 177              		@ frame_needed = 0, uses_anonymous_args = 0
 178              		@ link register save eliminated.
  85:../Src/main.c ****     // Setup SysTick for 10ms tick
  86:../Src/main.c ****     SysTick_Config(8000000 / 100);  // 10 ms for 8 MHz
 179              		.loc 1 86 5 view .LVU52
 180              	.LVL0:
 181              	.LBB14:
 182              	.LBI14:
 183              		.file 2 "../../../PY32F002B_Firmware_V1.2.1/PY32F002B_Firmware_V1.2.1/Drivers/CMSIS/Include/core_c
   1:../../../PY32F002B_Firmware_V1.2.1/PY32F002B_Firmware_V1.2.1/Drivers/CMSIS/Include/core_cm0plus.h **** /**************************************************************************//**
   2:../../../PY32F002B_Firmware_V1.2.1/PY32F002B_Firmware_V1.2.1/Drivers/CMSIS/Include/core_cm0plus.h ****  * @file     core_cm0plus.h
   3:../../../PY32F002B_Firmware_V1.2.1/PY32F002B_Firmware_V1.2.1/Drivers/CMSIS/Include/core_cm0plus.h ****  * @brief    CMSIS Cortex-M0+ Core Peripheral Access Layer Header File
   4:../../../PY32F002B_Firmware_V1.2.1/PY32F002B_Firmware_V1.2.1/Drivers/CMSIS/Include/core_cm0plus.h ****  * @version  V4.30
   5:../../../PY32F002B_Firmware_V1.2.1/PY32F002B_Firmware_V1.2.1/Drivers/CMSIS/Include/core_cm0plus.h ****  * @date     20. October 2015
   6:../../../PY32F002B_Firmware_V1.2.1/PY32F002B_Firmware_V1.2.1/Drivers/CMSIS/Include/core_cm0plus.h ****  ******************************************************************************/
   7:../../../PY32F002B_Firmware_V1.2.1/PY32F002B_Firmware_V1.2.1/Drivers/CMSIS/Include/core_cm0plus.h **** /* Copyright (c) 2009 - 2015 ARM LIMITED
   8:../../../PY32F002B_Firmware_V1.2.1/PY32F002B_Firmware_V1.2.1/Drivers/CMSIS/Include/core_cm0plus.h **** 
   9:../../../PY32F002B_Firmware_V1.2.1/PY32F002B_Firmware_V1.2.1/Drivers/CMSIS/Include/core_cm0plus.h ****    All rights reserved.
  10:../../../PY32F002B_Firmware_V1.2.1/PY32F002B_Firmware_V1.2.1/Drivers/CMSIS/Include/core_cm0plus.h ****    Redistribution and use in source and binary forms, with or without
  11:../../../PY32F002B_Firmware_V1.2.1/PY32F002B_Firmware_V1.2.1/Drivers/CMSIS/Include/core_cm0plus.h ****    modification, are permitted provided that the following conditions are met:
  12:../../../PY32F002B_Firmware_V1.2.1/PY32F002B_Firmware_V1.2.1/Drivers/CMSIS/Include/core_cm0plus.h ****    - Redistributions of source code must retain the above copyright
  13:../../../PY32F002B_Firmware_V1.2.1/PY32F002B_Firmware_V1.2.1/Drivers/CMSIS/Include/core_cm0plus.h ****      notice, this list of conditions and the following disclaimer.
  14:../../../PY32F002B_Firmware_V1.2.1/PY32F002B_Firmware_V1.2.1/Drivers/CMSIS/Include/core_cm0plus.h ****    - Redistributions in binary form must reproduce the above copyright
  15:../../../PY32F002B_Firmware_V1.2.1/PY32F002B_Firmware_V1.2.1/Drivers/CMSIS/Include/core_cm0plus.h ****      notice, this list of conditions and the following disclaimer in the
  16:../../../PY32F002B_Firmware_V1.2.1/PY32F002B_Firmware_V1.2.1/Drivers/CMSIS/Include/core_cm0plus.h ****      documentation and/or other materials provided with the distribution.
  17:../../../PY32F002B_Firmware_V1.2.1/PY32F002B_Firmware_V1.2.1/Drivers/CMSIS/Include/core_cm0plus.h ****    - Neither the name of ARM nor the names of its contributors may be used
  18:../../../PY32F002B_Firmware_V1.2.1/PY32F002B_Firmware_V1.2.1/Drivers/CMSIS/Include/core_cm0plus.h ****      to endorse or promote products derived from this software without
  19:../../../PY32F002B_Firmware_V1.2.1/PY32F002B_Firmware_V1.2.1/Drivers/CMSIS/Include/core_cm0plus.h ****      specific prior written permission.
ARM GAS  C:\Users\Gautam\AppData\Local\Temp\cchduyDh.s 			page 6


  20:../../../PY32F002B_Firmware_V1.2.1/PY32F002B_Firmware_V1.2.1/Drivers/CMSIS/Include/core_cm0plus.h ****    *
  21:../../../PY32F002B_Firmware_V1.2.1/PY32F002B_Firmware_V1.2.1/Drivers/CMSIS/Include/core_cm0plus.h ****    THIS SOFTWARE IS PROVIDED BY THE COPYRIGHT HOLDERS AND CONTRIBUTORS "AS IS"
  22:../../../PY32F002B_Firmware_V1.2.1/PY32F002B_Firmware_V1.2.1/Drivers/CMSIS/Include/core_cm0plus.h ****    AND ANY EXPRESS OR IMPLIED WARRANTIES, INCLUDING, BUT NOT LIMITED TO, THE
  23:../../../PY32F002B_Firmware_V1.2.1/PY32F002B_Firmware_V1.2.1/Drivers/CMSIS/Include/core_cm0plus.h ****    IMPLIED WARRANTIES OF MERCHANTABILITY AND FITNESS FOR A PARTICULAR PURPOSE
  24:../../../PY32F002B_Firmware_V1.2.1/PY32F002B_Firmware_V1.2.1/Drivers/CMSIS/Include/core_cm0plus.h ****    ARE DISCLAIMED. IN NO EVENT SHALL COPYRIGHT HOLDERS AND CONTRIBUTORS BE
  25:../../../PY32F002B_Firmware_V1.2.1/PY32F002B_Firmware_V1.2.1/Drivers/CMSIS/Include/core_cm0plus.h ****    LIABLE FOR ANY DIRECT, INDIRECT, INCIDENTAL, SPECIAL, EXEMPLARY, OR
  26:../../../PY32F002B_Firmware_V1.2.1/PY32F002B_Firmware_V1.2.1/Drivers/CMSIS/Include/core_cm0plus.h ****    CONSEQUENTIAL DAMAGES (INCLUDING, BUT NOT LIMITED TO, PROCUREMENT OF
  27:../../../PY32F002B_Firmware_V1.2.1/PY32F002B_Firmware_V1.2.1/Drivers/CMSIS/Include/core_cm0plus.h ****    SUBSTITUTE GOODS OR SERVICES; LOSS OF USE, DATA, OR PROFITS; OR BUSINESS
  28:../../../PY32F002B_Firmware_V1.2.1/PY32F002B_Firmware_V1.2.1/Drivers/CMSIS/Include/core_cm0plus.h ****    INTERRUPTION) HOWEVER CAUSED AND ON ANY THEORY OF LIABILITY, WHETHER IN
  29:../../../PY32F002B_Firmware_V1.2.1/PY32F002B_Firmware_V1.2.1/Drivers/CMSIS/Include/core_cm0plus.h ****    CONTRACT, STRICT LIABILITY, OR TORT (INCLUDING NEGLIGENCE OR OTHERWISE)
  30:../../../PY32F002B_Firmware_V1.2.1/PY32F002B_Firmware_V1.2.1/Drivers/CMSIS/Include/core_cm0plus.h ****    ARISING IN ANY WAY OUT OF THE USE OF THIS SOFTWARE, EVEN IF ADVISED OF THE
  31:../../../PY32F002B_Firmware_V1.2.1/PY32F002B_Firmware_V1.2.1/Drivers/CMSIS/Include/core_cm0plus.h ****    POSSIBILITY OF SUCH DAMAGE.
  32:../../../PY32F002B_Firmware_V1.2.1/PY32F002B_Firmware_V1.2.1/Drivers/CMSIS/Include/core_cm0plus.h ****    ---------------------------------------------------------------------------*/
  33:../../../PY32F002B_Firmware_V1.2.1/PY32F002B_Firmware_V1.2.1/Drivers/CMSIS/Include/core_cm0plus.h **** 
  34:../../../PY32F002B_Firmware_V1.2.1/PY32F002B_Firmware_V1.2.1/Drivers/CMSIS/Include/core_cm0plus.h **** 
  35:../../../PY32F002B_Firmware_V1.2.1/PY32F002B_Firmware_V1.2.1/Drivers/CMSIS/Include/core_cm0plus.h **** #if   defined ( __ICCARM__ )
  36:../../../PY32F002B_Firmware_V1.2.1/PY32F002B_Firmware_V1.2.1/Drivers/CMSIS/Include/core_cm0plus.h ****  #pragma system_include         /* treat file as system include file for MISRA check */
  37:../../../PY32F002B_Firmware_V1.2.1/PY32F002B_Firmware_V1.2.1/Drivers/CMSIS/Include/core_cm0plus.h **** #elif defined(__ARMCC_VERSION) && (__ARMCC_VERSION >= 6010050)
  38:../../../PY32F002B_Firmware_V1.2.1/PY32F002B_Firmware_V1.2.1/Drivers/CMSIS/Include/core_cm0plus.h ****   #pragma clang system_header   /* treat file as system include file */
  39:../../../PY32F002B_Firmware_V1.2.1/PY32F002B_Firmware_V1.2.1/Drivers/CMSIS/Include/core_cm0plus.h **** #endif
  40:../../../PY32F002B_Firmware_V1.2.1/PY32F002B_Firmware_V1.2.1/Drivers/CMSIS/Include/core_cm0plus.h **** 
  41:../../../PY32F002B_Firmware_V1.2.1/PY32F002B_Firmware_V1.2.1/Drivers/CMSIS/Include/core_cm0plus.h **** #ifndef __CORE_CM0PLUS_H_GENERIC
  42:../../../PY32F002B_Firmware_V1.2.1/PY32F002B_Firmware_V1.2.1/Drivers/CMSIS/Include/core_cm0plus.h **** #define __CORE_CM0PLUS_H_GENERIC
  43:../../../PY32F002B_Firmware_V1.2.1/PY32F002B_Firmware_V1.2.1/Drivers/CMSIS/Include/core_cm0plus.h **** 
  44:../../../PY32F002B_Firmware_V1.2.1/PY32F002B_Firmware_V1.2.1/Drivers/CMSIS/Include/core_cm0plus.h **** #include <stdint.h>
  45:../../../PY32F002B_Firmware_V1.2.1/PY32F002B_Firmware_V1.2.1/Drivers/CMSIS/Include/core_cm0plus.h **** 
  46:../../../PY32F002B_Firmware_V1.2.1/PY32F002B_Firmware_V1.2.1/Drivers/CMSIS/Include/core_cm0plus.h **** #ifdef __cplusplus
  47:../../../PY32F002B_Firmware_V1.2.1/PY32F002B_Firmware_V1.2.1/Drivers/CMSIS/Include/core_cm0plus.h ****  extern "C" {
  48:../../../PY32F002B_Firmware_V1.2.1/PY32F002B_Firmware_V1.2.1/Drivers/CMSIS/Include/core_cm0plus.h **** #endif
  49:../../../PY32F002B_Firmware_V1.2.1/PY32F002B_Firmware_V1.2.1/Drivers/CMSIS/Include/core_cm0plus.h **** 
  50:../../../PY32F002B_Firmware_V1.2.1/PY32F002B_Firmware_V1.2.1/Drivers/CMSIS/Include/core_cm0plus.h **** /**
  51:../../../PY32F002B_Firmware_V1.2.1/PY32F002B_Firmware_V1.2.1/Drivers/CMSIS/Include/core_cm0plus.h ****   \page CMSIS_MISRA_Exceptions  MISRA-C:2004 Compliance Exceptions
  52:../../../PY32F002B_Firmware_V1.2.1/PY32F002B_Firmware_V1.2.1/Drivers/CMSIS/Include/core_cm0plus.h ****   CMSIS violates the following MISRA-C:2004 rules:
  53:../../../PY32F002B_Firmware_V1.2.1/PY32F002B_Firmware_V1.2.1/Drivers/CMSIS/Include/core_cm0plus.h **** 
  54:../../../PY32F002B_Firmware_V1.2.1/PY32F002B_Firmware_V1.2.1/Drivers/CMSIS/Include/core_cm0plus.h ****    \li Required Rule 8.5, object/function definition in header file.<br>
  55:../../../PY32F002B_Firmware_V1.2.1/PY32F002B_Firmware_V1.2.1/Drivers/CMSIS/Include/core_cm0plus.h ****      Function definitions in header files are used to allow 'inlining'.
  56:../../../PY32F002B_Firmware_V1.2.1/PY32F002B_Firmware_V1.2.1/Drivers/CMSIS/Include/core_cm0plus.h **** 
  57:../../../PY32F002B_Firmware_V1.2.1/PY32F002B_Firmware_V1.2.1/Drivers/CMSIS/Include/core_cm0plus.h ****    \li Required Rule 18.4, declaration of union type or object of union type: '{...}'.<br>
  58:../../../PY32F002B_Firmware_V1.2.1/PY32F002B_Firmware_V1.2.1/Drivers/CMSIS/Include/core_cm0plus.h ****      Unions are used for effective representation of core registers.
  59:../../../PY32F002B_Firmware_V1.2.1/PY32F002B_Firmware_V1.2.1/Drivers/CMSIS/Include/core_cm0plus.h **** 
  60:../../../PY32F002B_Firmware_V1.2.1/PY32F002B_Firmware_V1.2.1/Drivers/CMSIS/Include/core_cm0plus.h ****    \li Advisory Rule 19.7, Function-like macro defined.<br>
  61:../../../PY32F002B_Firmware_V1.2.1/PY32F002B_Firmware_V1.2.1/Drivers/CMSIS/Include/core_cm0plus.h ****      Function-like macros are used to allow more efficient code.
  62:../../../PY32F002B_Firmware_V1.2.1/PY32F002B_Firmware_V1.2.1/Drivers/CMSIS/Include/core_cm0plus.h ****  */
  63:../../../PY32F002B_Firmware_V1.2.1/PY32F002B_Firmware_V1.2.1/Drivers/CMSIS/Include/core_cm0plus.h **** 
  64:../../../PY32F002B_Firmware_V1.2.1/PY32F002B_Firmware_V1.2.1/Drivers/CMSIS/Include/core_cm0plus.h **** 
  65:../../../PY32F002B_Firmware_V1.2.1/PY32F002B_Firmware_V1.2.1/Drivers/CMSIS/Include/core_cm0plus.h **** /*******************************************************************************
  66:../../../PY32F002B_Firmware_V1.2.1/PY32F002B_Firmware_V1.2.1/Drivers/CMSIS/Include/core_cm0plus.h ****  *                 CMSIS definitions
  67:../../../PY32F002B_Firmware_V1.2.1/PY32F002B_Firmware_V1.2.1/Drivers/CMSIS/Include/core_cm0plus.h ****  ******************************************************************************/
  68:../../../PY32F002B_Firmware_V1.2.1/PY32F002B_Firmware_V1.2.1/Drivers/CMSIS/Include/core_cm0plus.h **** /**
  69:../../../PY32F002B_Firmware_V1.2.1/PY32F002B_Firmware_V1.2.1/Drivers/CMSIS/Include/core_cm0plus.h ****   \ingroup Cortex-M0+
  70:../../../PY32F002B_Firmware_V1.2.1/PY32F002B_Firmware_V1.2.1/Drivers/CMSIS/Include/core_cm0plus.h ****   @{
  71:../../../PY32F002B_Firmware_V1.2.1/PY32F002B_Firmware_V1.2.1/Drivers/CMSIS/Include/core_cm0plus.h ****  */
  72:../../../PY32F002B_Firmware_V1.2.1/PY32F002B_Firmware_V1.2.1/Drivers/CMSIS/Include/core_cm0plus.h **** 
  73:../../../PY32F002B_Firmware_V1.2.1/PY32F002B_Firmware_V1.2.1/Drivers/CMSIS/Include/core_cm0plus.h **** /*  CMSIS CM0+ definitions */
  74:../../../PY32F002B_Firmware_V1.2.1/PY32F002B_Firmware_V1.2.1/Drivers/CMSIS/Include/core_cm0plus.h **** #define __CM0PLUS_CMSIS_VERSION_MAIN (0x04U)                                   /*!< [31:16] CMSIS H
  75:../../../PY32F002B_Firmware_V1.2.1/PY32F002B_Firmware_V1.2.1/Drivers/CMSIS/Include/core_cm0plus.h **** #define __CM0PLUS_CMSIS_VERSION_SUB  (0x1EU)                                   /*!< [15:0]  CMSIS H
  76:../../../PY32F002B_Firmware_V1.2.1/PY32F002B_Firmware_V1.2.1/Drivers/CMSIS/Include/core_cm0plus.h **** #define __CM0PLUS_CMSIS_VERSION      ((__CM0PLUS_CMSIS_VERSION_MAIN << 16U) | \
ARM GAS  C:\Users\Gautam\AppData\Local\Temp\cchduyDh.s 			page 7


  77:../../../PY32F002B_Firmware_V1.2.1/PY32F002B_Firmware_V1.2.1/Drivers/CMSIS/Include/core_cm0plus.h ****                                        __CM0PLUS_CMSIS_VERSION_SUB           ) /*!< CMSIS HAL versi
  78:../../../PY32F002B_Firmware_V1.2.1/PY32F002B_Firmware_V1.2.1/Drivers/CMSIS/Include/core_cm0plus.h **** 
  79:../../../PY32F002B_Firmware_V1.2.1/PY32F002B_Firmware_V1.2.1/Drivers/CMSIS/Include/core_cm0plus.h **** #define __CORTEX_M                (0x00U)                                      /*!< Cortex-M Core *
  80:../../../PY32F002B_Firmware_V1.2.1/PY32F002B_Firmware_V1.2.1/Drivers/CMSIS/Include/core_cm0plus.h **** 
  81:../../../PY32F002B_Firmware_V1.2.1/PY32F002B_Firmware_V1.2.1/Drivers/CMSIS/Include/core_cm0plus.h **** 
  82:../../../PY32F002B_Firmware_V1.2.1/PY32F002B_Firmware_V1.2.1/Drivers/CMSIS/Include/core_cm0plus.h **** #if   defined ( __CC_ARM )
  83:../../../PY32F002B_Firmware_V1.2.1/PY32F002B_Firmware_V1.2.1/Drivers/CMSIS/Include/core_cm0plus.h ****   #define __ASM            __asm                                      /*!< asm keyword for ARM Comp
  84:../../../PY32F002B_Firmware_V1.2.1/PY32F002B_Firmware_V1.2.1/Drivers/CMSIS/Include/core_cm0plus.h ****   #define __INLINE         __inline                                   /*!< inline keyword for ARM C
  85:../../../PY32F002B_Firmware_V1.2.1/PY32F002B_Firmware_V1.2.1/Drivers/CMSIS/Include/core_cm0plus.h ****   #define __STATIC_INLINE  static __inline
  86:../../../PY32F002B_Firmware_V1.2.1/PY32F002B_Firmware_V1.2.1/Drivers/CMSIS/Include/core_cm0plus.h **** 
  87:../../../PY32F002B_Firmware_V1.2.1/PY32F002B_Firmware_V1.2.1/Drivers/CMSIS/Include/core_cm0plus.h **** #elif defined(__ARMCC_VERSION) && (__ARMCC_VERSION >= 6010050)
  88:../../../PY32F002B_Firmware_V1.2.1/PY32F002B_Firmware_V1.2.1/Drivers/CMSIS/Include/core_cm0plus.h ****   #define __ASM            __asm                                      /*!< asm keyword for ARM Comp
  89:../../../PY32F002B_Firmware_V1.2.1/PY32F002B_Firmware_V1.2.1/Drivers/CMSIS/Include/core_cm0plus.h ****   #define __INLINE         __inline                                   /*!< inline keyword for ARM C
  90:../../../PY32F002B_Firmware_V1.2.1/PY32F002B_Firmware_V1.2.1/Drivers/CMSIS/Include/core_cm0plus.h ****   #define __STATIC_INLINE  static __inline
  91:../../../PY32F002B_Firmware_V1.2.1/PY32F002B_Firmware_V1.2.1/Drivers/CMSIS/Include/core_cm0plus.h **** 
  92:../../../PY32F002B_Firmware_V1.2.1/PY32F002B_Firmware_V1.2.1/Drivers/CMSIS/Include/core_cm0plus.h **** #elif defined ( __GNUC__ )
  93:../../../PY32F002B_Firmware_V1.2.1/PY32F002B_Firmware_V1.2.1/Drivers/CMSIS/Include/core_cm0plus.h ****   #define __ASM            __asm                                      /*!< asm keyword for GNU Comp
  94:../../../PY32F002B_Firmware_V1.2.1/PY32F002B_Firmware_V1.2.1/Drivers/CMSIS/Include/core_cm0plus.h ****   #define __INLINE         inline                                     /*!< inline keyword for GNU C
  95:../../../PY32F002B_Firmware_V1.2.1/PY32F002B_Firmware_V1.2.1/Drivers/CMSIS/Include/core_cm0plus.h ****   #define __STATIC_INLINE  static inline
  96:../../../PY32F002B_Firmware_V1.2.1/PY32F002B_Firmware_V1.2.1/Drivers/CMSIS/Include/core_cm0plus.h **** 
  97:../../../PY32F002B_Firmware_V1.2.1/PY32F002B_Firmware_V1.2.1/Drivers/CMSIS/Include/core_cm0plus.h **** #elif defined ( __ICCARM__ )
  98:../../../PY32F002B_Firmware_V1.2.1/PY32F002B_Firmware_V1.2.1/Drivers/CMSIS/Include/core_cm0plus.h ****   #define __ASM            __asm                                      /*!< asm keyword for IAR Comp
  99:../../../PY32F002B_Firmware_V1.2.1/PY32F002B_Firmware_V1.2.1/Drivers/CMSIS/Include/core_cm0plus.h ****   #define __INLINE         inline                                     /*!< inline keyword for IAR C
 100:../../../PY32F002B_Firmware_V1.2.1/PY32F002B_Firmware_V1.2.1/Drivers/CMSIS/Include/core_cm0plus.h ****   #define __STATIC_INLINE  static inline
 101:../../../PY32F002B_Firmware_V1.2.1/PY32F002B_Firmware_V1.2.1/Drivers/CMSIS/Include/core_cm0plus.h **** 
 102:../../../PY32F002B_Firmware_V1.2.1/PY32F002B_Firmware_V1.2.1/Drivers/CMSIS/Include/core_cm0plus.h **** #elif defined ( __TMS470__ )
 103:../../../PY32F002B_Firmware_V1.2.1/PY32F002B_Firmware_V1.2.1/Drivers/CMSIS/Include/core_cm0plus.h ****   #define __ASM            __asm                                      /*!< asm keyword for TI CCS C
 104:../../../PY32F002B_Firmware_V1.2.1/PY32F002B_Firmware_V1.2.1/Drivers/CMSIS/Include/core_cm0plus.h ****   #define __STATIC_INLINE  static inline
 105:../../../PY32F002B_Firmware_V1.2.1/PY32F002B_Firmware_V1.2.1/Drivers/CMSIS/Include/core_cm0plus.h **** 
 106:../../../PY32F002B_Firmware_V1.2.1/PY32F002B_Firmware_V1.2.1/Drivers/CMSIS/Include/core_cm0plus.h **** #elif defined ( __TASKING__ )
 107:../../../PY32F002B_Firmware_V1.2.1/PY32F002B_Firmware_V1.2.1/Drivers/CMSIS/Include/core_cm0plus.h ****   #define __ASM            __asm                                      /*!< asm keyword for TASKING 
 108:../../../PY32F002B_Firmware_V1.2.1/PY32F002B_Firmware_V1.2.1/Drivers/CMSIS/Include/core_cm0plus.h ****   #define __INLINE         inline                                     /*!< inline keyword for TASKI
 109:../../../PY32F002B_Firmware_V1.2.1/PY32F002B_Firmware_V1.2.1/Drivers/CMSIS/Include/core_cm0plus.h ****   #define __STATIC_INLINE  static inline
 110:../../../PY32F002B_Firmware_V1.2.1/PY32F002B_Firmware_V1.2.1/Drivers/CMSIS/Include/core_cm0plus.h **** 
 111:../../../PY32F002B_Firmware_V1.2.1/PY32F002B_Firmware_V1.2.1/Drivers/CMSIS/Include/core_cm0plus.h **** #elif defined ( __CSMC__ )
 112:../../../PY32F002B_Firmware_V1.2.1/PY32F002B_Firmware_V1.2.1/Drivers/CMSIS/Include/core_cm0plus.h ****   #define __packed
 113:../../../PY32F002B_Firmware_V1.2.1/PY32F002B_Firmware_V1.2.1/Drivers/CMSIS/Include/core_cm0plus.h ****   #define __ASM            _asm                                      /*!< asm keyword for COSMIC Co
 114:../../../PY32F002B_Firmware_V1.2.1/PY32F002B_Firmware_V1.2.1/Drivers/CMSIS/Include/core_cm0plus.h ****   #define __INLINE         inline                                    /*!< inline keyword for COSMIC
 115:../../../PY32F002B_Firmware_V1.2.1/PY32F002B_Firmware_V1.2.1/Drivers/CMSIS/Include/core_cm0plus.h ****   #define __STATIC_INLINE  static inline
 116:../../../PY32F002B_Firmware_V1.2.1/PY32F002B_Firmware_V1.2.1/Drivers/CMSIS/Include/core_cm0plus.h **** 
 117:../../../PY32F002B_Firmware_V1.2.1/PY32F002B_Firmware_V1.2.1/Drivers/CMSIS/Include/core_cm0plus.h **** #else
 118:../../../PY32F002B_Firmware_V1.2.1/PY32F002B_Firmware_V1.2.1/Drivers/CMSIS/Include/core_cm0plus.h ****   #error Unknown compiler
 119:../../../PY32F002B_Firmware_V1.2.1/PY32F002B_Firmware_V1.2.1/Drivers/CMSIS/Include/core_cm0plus.h **** #endif
 120:../../../PY32F002B_Firmware_V1.2.1/PY32F002B_Firmware_V1.2.1/Drivers/CMSIS/Include/core_cm0plus.h **** 
 121:../../../PY32F002B_Firmware_V1.2.1/PY32F002B_Firmware_V1.2.1/Drivers/CMSIS/Include/core_cm0plus.h **** /** __FPU_USED indicates whether an FPU is used or not.
 122:../../../PY32F002B_Firmware_V1.2.1/PY32F002B_Firmware_V1.2.1/Drivers/CMSIS/Include/core_cm0plus.h ****     This core does not support an FPU at all
 123:../../../PY32F002B_Firmware_V1.2.1/PY32F002B_Firmware_V1.2.1/Drivers/CMSIS/Include/core_cm0plus.h **** */
 124:../../../PY32F002B_Firmware_V1.2.1/PY32F002B_Firmware_V1.2.1/Drivers/CMSIS/Include/core_cm0plus.h **** #define __FPU_USED       0U
 125:../../../PY32F002B_Firmware_V1.2.1/PY32F002B_Firmware_V1.2.1/Drivers/CMSIS/Include/core_cm0plus.h **** 
 126:../../../PY32F002B_Firmware_V1.2.1/PY32F002B_Firmware_V1.2.1/Drivers/CMSIS/Include/core_cm0plus.h **** #if defined ( __CC_ARM )
 127:../../../PY32F002B_Firmware_V1.2.1/PY32F002B_Firmware_V1.2.1/Drivers/CMSIS/Include/core_cm0plus.h ****   #if defined __TARGET_FPU_VFP
 128:../../../PY32F002B_Firmware_V1.2.1/PY32F002B_Firmware_V1.2.1/Drivers/CMSIS/Include/core_cm0plus.h ****     #error "Compiler generates FPU instructions for a device without an FPU (check __FPU_PRESENT)"
 129:../../../PY32F002B_Firmware_V1.2.1/PY32F002B_Firmware_V1.2.1/Drivers/CMSIS/Include/core_cm0plus.h ****   #endif
 130:../../../PY32F002B_Firmware_V1.2.1/PY32F002B_Firmware_V1.2.1/Drivers/CMSIS/Include/core_cm0plus.h **** 
 131:../../../PY32F002B_Firmware_V1.2.1/PY32F002B_Firmware_V1.2.1/Drivers/CMSIS/Include/core_cm0plus.h **** #elif defined(__ARMCC_VERSION) && (__ARMCC_VERSION >= 6010050)
 132:../../../PY32F002B_Firmware_V1.2.1/PY32F002B_Firmware_V1.2.1/Drivers/CMSIS/Include/core_cm0plus.h ****   #if defined __ARM_PCS_VFP
 133:../../../PY32F002B_Firmware_V1.2.1/PY32F002B_Firmware_V1.2.1/Drivers/CMSIS/Include/core_cm0plus.h ****     #error "Compiler generates FPU instructions for a device without an FPU (check __FPU_PRESENT)"
ARM GAS  C:\Users\Gautam\AppData\Local\Temp\cchduyDh.s 			page 8


 134:../../../PY32F002B_Firmware_V1.2.1/PY32F002B_Firmware_V1.2.1/Drivers/CMSIS/Include/core_cm0plus.h ****   #endif
 135:../../../PY32F002B_Firmware_V1.2.1/PY32F002B_Firmware_V1.2.1/Drivers/CMSIS/Include/core_cm0plus.h **** 
 136:../../../PY32F002B_Firmware_V1.2.1/PY32F002B_Firmware_V1.2.1/Drivers/CMSIS/Include/core_cm0plus.h **** #elif defined ( __GNUC__ )
 137:../../../PY32F002B_Firmware_V1.2.1/PY32F002B_Firmware_V1.2.1/Drivers/CMSIS/Include/core_cm0plus.h ****   #if defined (__VFP_FP__) && !defined(__SOFTFP__)
 138:../../../PY32F002B_Firmware_V1.2.1/PY32F002B_Firmware_V1.2.1/Drivers/CMSIS/Include/core_cm0plus.h ****     #error "Compiler generates FPU instructions for a device without an FPU (check __FPU_PRESENT)"
 139:../../../PY32F002B_Firmware_V1.2.1/PY32F002B_Firmware_V1.2.1/Drivers/CMSIS/Include/core_cm0plus.h ****   #endif
 140:../../../PY32F002B_Firmware_V1.2.1/PY32F002B_Firmware_V1.2.1/Drivers/CMSIS/Include/core_cm0plus.h **** 
 141:../../../PY32F002B_Firmware_V1.2.1/PY32F002B_Firmware_V1.2.1/Drivers/CMSIS/Include/core_cm0plus.h **** #elif defined ( __ICCARM__ )
 142:../../../PY32F002B_Firmware_V1.2.1/PY32F002B_Firmware_V1.2.1/Drivers/CMSIS/Include/core_cm0plus.h ****   #if defined __ARMVFP__
 143:../../../PY32F002B_Firmware_V1.2.1/PY32F002B_Firmware_V1.2.1/Drivers/CMSIS/Include/core_cm0plus.h ****     #error "Compiler generates FPU instructions for a device without an FPU (check __FPU_PRESENT)"
 144:../../../PY32F002B_Firmware_V1.2.1/PY32F002B_Firmware_V1.2.1/Drivers/CMSIS/Include/core_cm0plus.h ****   #endif
 145:../../../PY32F002B_Firmware_V1.2.1/PY32F002B_Firmware_V1.2.1/Drivers/CMSIS/Include/core_cm0plus.h **** 
 146:../../../PY32F002B_Firmware_V1.2.1/PY32F002B_Firmware_V1.2.1/Drivers/CMSIS/Include/core_cm0plus.h **** #elif defined ( __TMS470__ )
 147:../../../PY32F002B_Firmware_V1.2.1/PY32F002B_Firmware_V1.2.1/Drivers/CMSIS/Include/core_cm0plus.h ****   #if defined __TI_VFP_SUPPORT__
 148:../../../PY32F002B_Firmware_V1.2.1/PY32F002B_Firmware_V1.2.1/Drivers/CMSIS/Include/core_cm0plus.h ****     #error "Compiler generates FPU instructions for a device without an FPU (check __FPU_PRESENT)"
 149:../../../PY32F002B_Firmware_V1.2.1/PY32F002B_Firmware_V1.2.1/Drivers/CMSIS/Include/core_cm0plus.h ****   #endif
 150:../../../PY32F002B_Firmware_V1.2.1/PY32F002B_Firmware_V1.2.1/Drivers/CMSIS/Include/core_cm0plus.h **** 
 151:../../../PY32F002B_Firmware_V1.2.1/PY32F002B_Firmware_V1.2.1/Drivers/CMSIS/Include/core_cm0plus.h **** #elif defined ( __TASKING__ )
 152:../../../PY32F002B_Firmware_V1.2.1/PY32F002B_Firmware_V1.2.1/Drivers/CMSIS/Include/core_cm0plus.h ****   #if defined __FPU_VFP__
 153:../../../PY32F002B_Firmware_V1.2.1/PY32F002B_Firmware_V1.2.1/Drivers/CMSIS/Include/core_cm0plus.h ****     #error "Compiler generates FPU instructions for a device without an FPU (check __FPU_PRESENT)"
 154:../../../PY32F002B_Firmware_V1.2.1/PY32F002B_Firmware_V1.2.1/Drivers/CMSIS/Include/core_cm0plus.h ****   #endif
 155:../../../PY32F002B_Firmware_V1.2.1/PY32F002B_Firmware_V1.2.1/Drivers/CMSIS/Include/core_cm0plus.h **** 
 156:../../../PY32F002B_Firmware_V1.2.1/PY32F002B_Firmware_V1.2.1/Drivers/CMSIS/Include/core_cm0plus.h **** #elif defined ( __CSMC__ )
 157:../../../PY32F002B_Firmware_V1.2.1/PY32F002B_Firmware_V1.2.1/Drivers/CMSIS/Include/core_cm0plus.h ****   #if ( __CSMC__ & 0x400U)
 158:../../../PY32F002B_Firmware_V1.2.1/PY32F002B_Firmware_V1.2.1/Drivers/CMSIS/Include/core_cm0plus.h ****     #error "Compiler generates FPU instructions for a device without an FPU (check __FPU_PRESENT)"
 159:../../../PY32F002B_Firmware_V1.2.1/PY32F002B_Firmware_V1.2.1/Drivers/CMSIS/Include/core_cm0plus.h ****   #endif
 160:../../../PY32F002B_Firmware_V1.2.1/PY32F002B_Firmware_V1.2.1/Drivers/CMSIS/Include/core_cm0plus.h **** 
 161:../../../PY32F002B_Firmware_V1.2.1/PY32F002B_Firmware_V1.2.1/Drivers/CMSIS/Include/core_cm0plus.h **** #endif
 162:../../../PY32F002B_Firmware_V1.2.1/PY32F002B_Firmware_V1.2.1/Drivers/CMSIS/Include/core_cm0plus.h **** 
 163:../../../PY32F002B_Firmware_V1.2.1/PY32F002B_Firmware_V1.2.1/Drivers/CMSIS/Include/core_cm0plus.h **** #include "core_cmInstr.h"                /* Core Instruction Access */
 164:../../../PY32F002B_Firmware_V1.2.1/PY32F002B_Firmware_V1.2.1/Drivers/CMSIS/Include/core_cm0plus.h **** #include "core_cmFunc.h"                 /* Core Function Access */
 165:../../../PY32F002B_Firmware_V1.2.1/PY32F002B_Firmware_V1.2.1/Drivers/CMSIS/Include/core_cm0plus.h **** 
 166:../../../PY32F002B_Firmware_V1.2.1/PY32F002B_Firmware_V1.2.1/Drivers/CMSIS/Include/core_cm0plus.h **** #ifdef __cplusplus
 167:../../../PY32F002B_Firmware_V1.2.1/PY32F002B_Firmware_V1.2.1/Drivers/CMSIS/Include/core_cm0plus.h **** }
 168:../../../PY32F002B_Firmware_V1.2.1/PY32F002B_Firmware_V1.2.1/Drivers/CMSIS/Include/core_cm0plus.h **** #endif
 169:../../../PY32F002B_Firmware_V1.2.1/PY32F002B_Firmware_V1.2.1/Drivers/CMSIS/Include/core_cm0plus.h **** 
 170:../../../PY32F002B_Firmware_V1.2.1/PY32F002B_Firmware_V1.2.1/Drivers/CMSIS/Include/core_cm0plus.h **** #endif /* __CORE_CM0PLUS_H_GENERIC */
 171:../../../PY32F002B_Firmware_V1.2.1/PY32F002B_Firmware_V1.2.1/Drivers/CMSIS/Include/core_cm0plus.h **** 
 172:../../../PY32F002B_Firmware_V1.2.1/PY32F002B_Firmware_V1.2.1/Drivers/CMSIS/Include/core_cm0plus.h **** #ifndef __CMSIS_GENERIC
 173:../../../PY32F002B_Firmware_V1.2.1/PY32F002B_Firmware_V1.2.1/Drivers/CMSIS/Include/core_cm0plus.h **** 
 174:../../../PY32F002B_Firmware_V1.2.1/PY32F002B_Firmware_V1.2.1/Drivers/CMSIS/Include/core_cm0plus.h **** #ifndef __CORE_CM0PLUS_H_DEPENDANT
 175:../../../PY32F002B_Firmware_V1.2.1/PY32F002B_Firmware_V1.2.1/Drivers/CMSIS/Include/core_cm0plus.h **** #define __CORE_CM0PLUS_H_DEPENDANT
 176:../../../PY32F002B_Firmware_V1.2.1/PY32F002B_Firmware_V1.2.1/Drivers/CMSIS/Include/core_cm0plus.h **** 
 177:../../../PY32F002B_Firmware_V1.2.1/PY32F002B_Firmware_V1.2.1/Drivers/CMSIS/Include/core_cm0plus.h **** #ifdef __cplusplus
 178:../../../PY32F002B_Firmware_V1.2.1/PY32F002B_Firmware_V1.2.1/Drivers/CMSIS/Include/core_cm0plus.h ****  extern "C" {
 179:../../../PY32F002B_Firmware_V1.2.1/PY32F002B_Firmware_V1.2.1/Drivers/CMSIS/Include/core_cm0plus.h **** #endif
 180:../../../PY32F002B_Firmware_V1.2.1/PY32F002B_Firmware_V1.2.1/Drivers/CMSIS/Include/core_cm0plus.h **** 
 181:../../../PY32F002B_Firmware_V1.2.1/PY32F002B_Firmware_V1.2.1/Drivers/CMSIS/Include/core_cm0plus.h **** /* check device defines and use defaults */
 182:../../../PY32F002B_Firmware_V1.2.1/PY32F002B_Firmware_V1.2.1/Drivers/CMSIS/Include/core_cm0plus.h **** #if defined __CHECK_DEVICE_DEFINES
 183:../../../PY32F002B_Firmware_V1.2.1/PY32F002B_Firmware_V1.2.1/Drivers/CMSIS/Include/core_cm0plus.h ****   #ifndef __CM0PLUS_REV
 184:../../../PY32F002B_Firmware_V1.2.1/PY32F002B_Firmware_V1.2.1/Drivers/CMSIS/Include/core_cm0plus.h ****     #define __CM0PLUS_REV             0x0000U
 185:../../../PY32F002B_Firmware_V1.2.1/PY32F002B_Firmware_V1.2.1/Drivers/CMSIS/Include/core_cm0plus.h ****     #warning "__CM0PLUS_REV not defined in device header file; using default!"
 186:../../../PY32F002B_Firmware_V1.2.1/PY32F002B_Firmware_V1.2.1/Drivers/CMSIS/Include/core_cm0plus.h ****   #endif
 187:../../../PY32F002B_Firmware_V1.2.1/PY32F002B_Firmware_V1.2.1/Drivers/CMSIS/Include/core_cm0plus.h **** 
 188:../../../PY32F002B_Firmware_V1.2.1/PY32F002B_Firmware_V1.2.1/Drivers/CMSIS/Include/core_cm0plus.h ****   #ifndef __MPU_PRESENT
 189:../../../PY32F002B_Firmware_V1.2.1/PY32F002B_Firmware_V1.2.1/Drivers/CMSIS/Include/core_cm0plus.h ****     #define __MPU_PRESENT             0U
 190:../../../PY32F002B_Firmware_V1.2.1/PY32F002B_Firmware_V1.2.1/Drivers/CMSIS/Include/core_cm0plus.h ****     #warning "__MPU_PRESENT not defined in device header file; using default!"
ARM GAS  C:\Users\Gautam\AppData\Local\Temp\cchduyDh.s 			page 9


 191:../../../PY32F002B_Firmware_V1.2.1/PY32F002B_Firmware_V1.2.1/Drivers/CMSIS/Include/core_cm0plus.h ****   #endif
 192:../../../PY32F002B_Firmware_V1.2.1/PY32F002B_Firmware_V1.2.1/Drivers/CMSIS/Include/core_cm0plus.h **** 
 193:../../../PY32F002B_Firmware_V1.2.1/PY32F002B_Firmware_V1.2.1/Drivers/CMSIS/Include/core_cm0plus.h ****   #ifndef __VTOR_PRESENT
 194:../../../PY32F002B_Firmware_V1.2.1/PY32F002B_Firmware_V1.2.1/Drivers/CMSIS/Include/core_cm0plus.h ****     #define __VTOR_PRESENT            0U
 195:../../../PY32F002B_Firmware_V1.2.1/PY32F002B_Firmware_V1.2.1/Drivers/CMSIS/Include/core_cm0plus.h ****     #warning "__VTOR_PRESENT not defined in device header file; using default!"
 196:../../../PY32F002B_Firmware_V1.2.1/PY32F002B_Firmware_V1.2.1/Drivers/CMSIS/Include/core_cm0plus.h ****   #endif
 197:../../../PY32F002B_Firmware_V1.2.1/PY32F002B_Firmware_V1.2.1/Drivers/CMSIS/Include/core_cm0plus.h **** 
 198:../../../PY32F002B_Firmware_V1.2.1/PY32F002B_Firmware_V1.2.1/Drivers/CMSIS/Include/core_cm0plus.h ****   #ifndef __NVIC_PRIO_BITS
 199:../../../PY32F002B_Firmware_V1.2.1/PY32F002B_Firmware_V1.2.1/Drivers/CMSIS/Include/core_cm0plus.h ****     #define __NVIC_PRIO_BITS          2U
 200:../../../PY32F002B_Firmware_V1.2.1/PY32F002B_Firmware_V1.2.1/Drivers/CMSIS/Include/core_cm0plus.h ****     #warning "__NVIC_PRIO_BITS not defined in device header file; using default!"
 201:../../../PY32F002B_Firmware_V1.2.1/PY32F002B_Firmware_V1.2.1/Drivers/CMSIS/Include/core_cm0plus.h ****   #endif
 202:../../../PY32F002B_Firmware_V1.2.1/PY32F002B_Firmware_V1.2.1/Drivers/CMSIS/Include/core_cm0plus.h **** 
 203:../../../PY32F002B_Firmware_V1.2.1/PY32F002B_Firmware_V1.2.1/Drivers/CMSIS/Include/core_cm0plus.h ****   #ifndef __Vendor_SysTickConfig
 204:../../../PY32F002B_Firmware_V1.2.1/PY32F002B_Firmware_V1.2.1/Drivers/CMSIS/Include/core_cm0plus.h ****     #define __Vendor_SysTickConfig    0U
 205:../../../PY32F002B_Firmware_V1.2.1/PY32F002B_Firmware_V1.2.1/Drivers/CMSIS/Include/core_cm0plus.h ****     #warning "__Vendor_SysTickConfig not defined in device header file; using default!"
 206:../../../PY32F002B_Firmware_V1.2.1/PY32F002B_Firmware_V1.2.1/Drivers/CMSIS/Include/core_cm0plus.h ****   #endif
 207:../../../PY32F002B_Firmware_V1.2.1/PY32F002B_Firmware_V1.2.1/Drivers/CMSIS/Include/core_cm0plus.h **** #endif
 208:../../../PY32F002B_Firmware_V1.2.1/PY32F002B_Firmware_V1.2.1/Drivers/CMSIS/Include/core_cm0plus.h **** 
 209:../../../PY32F002B_Firmware_V1.2.1/PY32F002B_Firmware_V1.2.1/Drivers/CMSIS/Include/core_cm0plus.h **** /* IO definitions (access restrictions to peripheral registers) */
 210:../../../PY32F002B_Firmware_V1.2.1/PY32F002B_Firmware_V1.2.1/Drivers/CMSIS/Include/core_cm0plus.h **** /**
 211:../../../PY32F002B_Firmware_V1.2.1/PY32F002B_Firmware_V1.2.1/Drivers/CMSIS/Include/core_cm0plus.h ****     \defgroup CMSIS_glob_defs CMSIS Global Defines
 212:../../../PY32F002B_Firmware_V1.2.1/PY32F002B_Firmware_V1.2.1/Drivers/CMSIS/Include/core_cm0plus.h **** 
 213:../../../PY32F002B_Firmware_V1.2.1/PY32F002B_Firmware_V1.2.1/Drivers/CMSIS/Include/core_cm0plus.h ****     <strong>IO Type Qualifiers</strong> are used
 214:../../../PY32F002B_Firmware_V1.2.1/PY32F002B_Firmware_V1.2.1/Drivers/CMSIS/Include/core_cm0plus.h ****     \li to specify the access to peripheral variables.
 215:../../../PY32F002B_Firmware_V1.2.1/PY32F002B_Firmware_V1.2.1/Drivers/CMSIS/Include/core_cm0plus.h ****     \li for automatic generation of peripheral register debug information.
 216:../../../PY32F002B_Firmware_V1.2.1/PY32F002B_Firmware_V1.2.1/Drivers/CMSIS/Include/core_cm0plus.h **** */
 217:../../../PY32F002B_Firmware_V1.2.1/PY32F002B_Firmware_V1.2.1/Drivers/CMSIS/Include/core_cm0plus.h **** #ifdef __cplusplus
 218:../../../PY32F002B_Firmware_V1.2.1/PY32F002B_Firmware_V1.2.1/Drivers/CMSIS/Include/core_cm0plus.h ****   #define   __I     volatile             /*!< Defines 'read only' permissions */
 219:../../../PY32F002B_Firmware_V1.2.1/PY32F002B_Firmware_V1.2.1/Drivers/CMSIS/Include/core_cm0plus.h **** #else
 220:../../../PY32F002B_Firmware_V1.2.1/PY32F002B_Firmware_V1.2.1/Drivers/CMSIS/Include/core_cm0plus.h ****   #define   __I     volatile const       /*!< Defines 'read only' permissions */
 221:../../../PY32F002B_Firmware_V1.2.1/PY32F002B_Firmware_V1.2.1/Drivers/CMSIS/Include/core_cm0plus.h **** #endif
 222:../../../PY32F002B_Firmware_V1.2.1/PY32F002B_Firmware_V1.2.1/Drivers/CMSIS/Include/core_cm0plus.h **** #define     __O     volatile             /*!< Defines 'write only' permissions */
 223:../../../PY32F002B_Firmware_V1.2.1/PY32F002B_Firmware_V1.2.1/Drivers/CMSIS/Include/core_cm0plus.h **** #define     __IO    volatile             /*!< Defines 'read / write' permissions */
 224:../../../PY32F002B_Firmware_V1.2.1/PY32F002B_Firmware_V1.2.1/Drivers/CMSIS/Include/core_cm0plus.h **** 
 225:../../../PY32F002B_Firmware_V1.2.1/PY32F002B_Firmware_V1.2.1/Drivers/CMSIS/Include/core_cm0plus.h **** /* following defines should be used for structure members */
 226:../../../PY32F002B_Firmware_V1.2.1/PY32F002B_Firmware_V1.2.1/Drivers/CMSIS/Include/core_cm0plus.h **** #define     __IM     volatile const      /*! Defines 'read only' structure member permissions */
 227:../../../PY32F002B_Firmware_V1.2.1/PY32F002B_Firmware_V1.2.1/Drivers/CMSIS/Include/core_cm0plus.h **** #define     __OM     volatile            /*! Defines 'write only' structure member permissions */
 228:../../../PY32F002B_Firmware_V1.2.1/PY32F002B_Firmware_V1.2.1/Drivers/CMSIS/Include/core_cm0plus.h **** #define     __IOM    volatile            /*! Defines 'read / write' structure member permissions */
 229:../../../PY32F002B_Firmware_V1.2.1/PY32F002B_Firmware_V1.2.1/Drivers/CMSIS/Include/core_cm0plus.h **** 
 230:../../../PY32F002B_Firmware_V1.2.1/PY32F002B_Firmware_V1.2.1/Drivers/CMSIS/Include/core_cm0plus.h **** /*@} end of group Cortex-M0+ */
 231:../../../PY32F002B_Firmware_V1.2.1/PY32F002B_Firmware_V1.2.1/Drivers/CMSIS/Include/core_cm0plus.h **** 
 232:../../../PY32F002B_Firmware_V1.2.1/PY32F002B_Firmware_V1.2.1/Drivers/CMSIS/Include/core_cm0plus.h **** 
 233:../../../PY32F002B_Firmware_V1.2.1/PY32F002B_Firmware_V1.2.1/Drivers/CMSIS/Include/core_cm0plus.h **** 
 234:../../../PY32F002B_Firmware_V1.2.1/PY32F002B_Firmware_V1.2.1/Drivers/CMSIS/Include/core_cm0plus.h **** /*******************************************************************************
 235:../../../PY32F002B_Firmware_V1.2.1/PY32F002B_Firmware_V1.2.1/Drivers/CMSIS/Include/core_cm0plus.h ****  *                 Register Abstraction
 236:../../../PY32F002B_Firmware_V1.2.1/PY32F002B_Firmware_V1.2.1/Drivers/CMSIS/Include/core_cm0plus.h ****   Core Register contain:
 237:../../../PY32F002B_Firmware_V1.2.1/PY32F002B_Firmware_V1.2.1/Drivers/CMSIS/Include/core_cm0plus.h ****   - Core Register
 238:../../../PY32F002B_Firmware_V1.2.1/PY32F002B_Firmware_V1.2.1/Drivers/CMSIS/Include/core_cm0plus.h ****   - Core NVIC Register
 239:../../../PY32F002B_Firmware_V1.2.1/PY32F002B_Firmware_V1.2.1/Drivers/CMSIS/Include/core_cm0plus.h ****   - Core SCB Register
 240:../../../PY32F002B_Firmware_V1.2.1/PY32F002B_Firmware_V1.2.1/Drivers/CMSIS/Include/core_cm0plus.h ****   - Core SysTick Register
 241:../../../PY32F002B_Firmware_V1.2.1/PY32F002B_Firmware_V1.2.1/Drivers/CMSIS/Include/core_cm0plus.h ****   - Core MPU Register
 242:../../../PY32F002B_Firmware_V1.2.1/PY32F002B_Firmware_V1.2.1/Drivers/CMSIS/Include/core_cm0plus.h ****  ******************************************************************************/
 243:../../../PY32F002B_Firmware_V1.2.1/PY32F002B_Firmware_V1.2.1/Drivers/CMSIS/Include/core_cm0plus.h **** /**
 244:../../../PY32F002B_Firmware_V1.2.1/PY32F002B_Firmware_V1.2.1/Drivers/CMSIS/Include/core_cm0plus.h ****   \defgroup CMSIS_core_register Defines and Type Definitions
 245:../../../PY32F002B_Firmware_V1.2.1/PY32F002B_Firmware_V1.2.1/Drivers/CMSIS/Include/core_cm0plus.h ****   \brief Type definitions and defines for Cortex-M processor based devices.
 246:../../../PY32F002B_Firmware_V1.2.1/PY32F002B_Firmware_V1.2.1/Drivers/CMSIS/Include/core_cm0plus.h **** */
 247:../../../PY32F002B_Firmware_V1.2.1/PY32F002B_Firmware_V1.2.1/Drivers/CMSIS/Include/core_cm0plus.h **** 
ARM GAS  C:\Users\Gautam\AppData\Local\Temp\cchduyDh.s 			page 10


 248:../../../PY32F002B_Firmware_V1.2.1/PY32F002B_Firmware_V1.2.1/Drivers/CMSIS/Include/core_cm0plus.h **** /**
 249:../../../PY32F002B_Firmware_V1.2.1/PY32F002B_Firmware_V1.2.1/Drivers/CMSIS/Include/core_cm0plus.h ****   \ingroup    CMSIS_core_register
 250:../../../PY32F002B_Firmware_V1.2.1/PY32F002B_Firmware_V1.2.1/Drivers/CMSIS/Include/core_cm0plus.h ****   \defgroup   CMSIS_CORE  Status and Control Registers
 251:../../../PY32F002B_Firmware_V1.2.1/PY32F002B_Firmware_V1.2.1/Drivers/CMSIS/Include/core_cm0plus.h ****   \brief      Core Register type definitions.
 252:../../../PY32F002B_Firmware_V1.2.1/PY32F002B_Firmware_V1.2.1/Drivers/CMSIS/Include/core_cm0plus.h ****   @{
 253:../../../PY32F002B_Firmware_V1.2.1/PY32F002B_Firmware_V1.2.1/Drivers/CMSIS/Include/core_cm0plus.h ****  */
 254:../../../PY32F002B_Firmware_V1.2.1/PY32F002B_Firmware_V1.2.1/Drivers/CMSIS/Include/core_cm0plus.h **** 
 255:../../../PY32F002B_Firmware_V1.2.1/PY32F002B_Firmware_V1.2.1/Drivers/CMSIS/Include/core_cm0plus.h **** /**
 256:../../../PY32F002B_Firmware_V1.2.1/PY32F002B_Firmware_V1.2.1/Drivers/CMSIS/Include/core_cm0plus.h ****   \brief  Union type to access the Application Program Status Register (APSR).
 257:../../../PY32F002B_Firmware_V1.2.1/PY32F002B_Firmware_V1.2.1/Drivers/CMSIS/Include/core_cm0plus.h ****  */
 258:../../../PY32F002B_Firmware_V1.2.1/PY32F002B_Firmware_V1.2.1/Drivers/CMSIS/Include/core_cm0plus.h **** typedef union
 259:../../../PY32F002B_Firmware_V1.2.1/PY32F002B_Firmware_V1.2.1/Drivers/CMSIS/Include/core_cm0plus.h **** {
 260:../../../PY32F002B_Firmware_V1.2.1/PY32F002B_Firmware_V1.2.1/Drivers/CMSIS/Include/core_cm0plus.h ****   struct
 261:../../../PY32F002B_Firmware_V1.2.1/PY32F002B_Firmware_V1.2.1/Drivers/CMSIS/Include/core_cm0plus.h ****   {
 262:../../../PY32F002B_Firmware_V1.2.1/PY32F002B_Firmware_V1.2.1/Drivers/CMSIS/Include/core_cm0plus.h ****     uint32_t _reserved0:28;              /*!< bit:  0..27  Reserved */
 263:../../../PY32F002B_Firmware_V1.2.1/PY32F002B_Firmware_V1.2.1/Drivers/CMSIS/Include/core_cm0plus.h ****     uint32_t V:1;                        /*!< bit:     28  Overflow condition code flag */
 264:../../../PY32F002B_Firmware_V1.2.1/PY32F002B_Firmware_V1.2.1/Drivers/CMSIS/Include/core_cm0plus.h ****     uint32_t C:1;                        /*!< bit:     29  Carry condition code flag */
 265:../../../PY32F002B_Firmware_V1.2.1/PY32F002B_Firmware_V1.2.1/Drivers/CMSIS/Include/core_cm0plus.h ****     uint32_t Z:1;                        /*!< bit:     30  Zero condition code flag */
 266:../../../PY32F002B_Firmware_V1.2.1/PY32F002B_Firmware_V1.2.1/Drivers/CMSIS/Include/core_cm0plus.h ****     uint32_t N:1;                        /*!< bit:     31  Negative condition code flag */
 267:../../../PY32F002B_Firmware_V1.2.1/PY32F002B_Firmware_V1.2.1/Drivers/CMSIS/Include/core_cm0plus.h ****   } b;                                   /*!< Structure used for bit  access */
 268:../../../PY32F002B_Firmware_V1.2.1/PY32F002B_Firmware_V1.2.1/Drivers/CMSIS/Include/core_cm0plus.h ****   uint32_t w;                            /*!< Type      used for word access */
 269:../../../PY32F002B_Firmware_V1.2.1/PY32F002B_Firmware_V1.2.1/Drivers/CMSIS/Include/core_cm0plus.h **** } APSR_Type;
 270:../../../PY32F002B_Firmware_V1.2.1/PY32F002B_Firmware_V1.2.1/Drivers/CMSIS/Include/core_cm0plus.h **** 
 271:../../../PY32F002B_Firmware_V1.2.1/PY32F002B_Firmware_V1.2.1/Drivers/CMSIS/Include/core_cm0plus.h **** /* APSR Register Definitions */
 272:../../../PY32F002B_Firmware_V1.2.1/PY32F002B_Firmware_V1.2.1/Drivers/CMSIS/Include/core_cm0plus.h **** #define APSR_N_Pos                         31U                                            /*!< APSR
 273:../../../PY32F002B_Firmware_V1.2.1/PY32F002B_Firmware_V1.2.1/Drivers/CMSIS/Include/core_cm0plus.h **** #define APSR_N_Msk                         (1UL << APSR_N_Pos)                            /*!< APSR
 274:../../../PY32F002B_Firmware_V1.2.1/PY32F002B_Firmware_V1.2.1/Drivers/CMSIS/Include/core_cm0plus.h **** 
 275:../../../PY32F002B_Firmware_V1.2.1/PY32F002B_Firmware_V1.2.1/Drivers/CMSIS/Include/core_cm0plus.h **** #define APSR_Z_Pos                         30U                                            /*!< APSR
 276:../../../PY32F002B_Firmware_V1.2.1/PY32F002B_Firmware_V1.2.1/Drivers/CMSIS/Include/core_cm0plus.h **** #define APSR_Z_Msk                         (1UL << APSR_Z_Pos)                            /*!< APSR
 277:../../../PY32F002B_Firmware_V1.2.1/PY32F002B_Firmware_V1.2.1/Drivers/CMSIS/Include/core_cm0plus.h **** 
 278:../../../PY32F002B_Firmware_V1.2.1/PY32F002B_Firmware_V1.2.1/Drivers/CMSIS/Include/core_cm0plus.h **** #define APSR_C_Pos                         29U                                            /*!< APSR
 279:../../../PY32F002B_Firmware_V1.2.1/PY32F002B_Firmware_V1.2.1/Drivers/CMSIS/Include/core_cm0plus.h **** #define APSR_C_Msk                         (1UL << APSR_C_Pos)                            /*!< APSR
 280:../../../PY32F002B_Firmware_V1.2.1/PY32F002B_Firmware_V1.2.1/Drivers/CMSIS/Include/core_cm0plus.h **** 
 281:../../../PY32F002B_Firmware_V1.2.1/PY32F002B_Firmware_V1.2.1/Drivers/CMSIS/Include/core_cm0plus.h **** #define APSR_V_Pos                         28U                                            /*!< APSR
 282:../../../PY32F002B_Firmware_V1.2.1/PY32F002B_Firmware_V1.2.1/Drivers/CMSIS/Include/core_cm0plus.h **** #define APSR_V_Msk                         (1UL << APSR_V_Pos)                            /*!< APSR
 283:../../../PY32F002B_Firmware_V1.2.1/PY32F002B_Firmware_V1.2.1/Drivers/CMSIS/Include/core_cm0plus.h **** 
 284:../../../PY32F002B_Firmware_V1.2.1/PY32F002B_Firmware_V1.2.1/Drivers/CMSIS/Include/core_cm0plus.h **** 
 285:../../../PY32F002B_Firmware_V1.2.1/PY32F002B_Firmware_V1.2.1/Drivers/CMSIS/Include/core_cm0plus.h **** /**
 286:../../../PY32F002B_Firmware_V1.2.1/PY32F002B_Firmware_V1.2.1/Drivers/CMSIS/Include/core_cm0plus.h ****   \brief  Union type to access the Interrupt Program Status Register (IPSR).
 287:../../../PY32F002B_Firmware_V1.2.1/PY32F002B_Firmware_V1.2.1/Drivers/CMSIS/Include/core_cm0plus.h ****  */
 288:../../../PY32F002B_Firmware_V1.2.1/PY32F002B_Firmware_V1.2.1/Drivers/CMSIS/Include/core_cm0plus.h **** typedef union
 289:../../../PY32F002B_Firmware_V1.2.1/PY32F002B_Firmware_V1.2.1/Drivers/CMSIS/Include/core_cm0plus.h **** {
 290:../../../PY32F002B_Firmware_V1.2.1/PY32F002B_Firmware_V1.2.1/Drivers/CMSIS/Include/core_cm0plus.h ****   struct
 291:../../../PY32F002B_Firmware_V1.2.1/PY32F002B_Firmware_V1.2.1/Drivers/CMSIS/Include/core_cm0plus.h ****   {
 292:../../../PY32F002B_Firmware_V1.2.1/PY32F002B_Firmware_V1.2.1/Drivers/CMSIS/Include/core_cm0plus.h ****     uint32_t ISR:9;                      /*!< bit:  0.. 8  Exception number */
 293:../../../PY32F002B_Firmware_V1.2.1/PY32F002B_Firmware_V1.2.1/Drivers/CMSIS/Include/core_cm0plus.h ****     uint32_t _reserved0:23;              /*!< bit:  9..31  Reserved */
 294:../../../PY32F002B_Firmware_V1.2.1/PY32F002B_Firmware_V1.2.1/Drivers/CMSIS/Include/core_cm0plus.h ****   } b;                                   /*!< Structure used for bit  access */
 295:../../../PY32F002B_Firmware_V1.2.1/PY32F002B_Firmware_V1.2.1/Drivers/CMSIS/Include/core_cm0plus.h ****   uint32_t w;                            /*!< Type      used for word access */
 296:../../../PY32F002B_Firmware_V1.2.1/PY32F002B_Firmware_V1.2.1/Drivers/CMSIS/Include/core_cm0plus.h **** } IPSR_Type;
 297:../../../PY32F002B_Firmware_V1.2.1/PY32F002B_Firmware_V1.2.1/Drivers/CMSIS/Include/core_cm0plus.h **** 
 298:../../../PY32F002B_Firmware_V1.2.1/PY32F002B_Firmware_V1.2.1/Drivers/CMSIS/Include/core_cm0plus.h **** /* IPSR Register Definitions */
 299:../../../PY32F002B_Firmware_V1.2.1/PY32F002B_Firmware_V1.2.1/Drivers/CMSIS/Include/core_cm0plus.h **** #define IPSR_ISR_Pos                        0U                                            /*!< IPSR
 300:../../../PY32F002B_Firmware_V1.2.1/PY32F002B_Firmware_V1.2.1/Drivers/CMSIS/Include/core_cm0plus.h **** #define IPSR_ISR_Msk                       (0x1FFUL /*<< IPSR_ISR_Pos*/)                  /*!< IPSR
 301:../../../PY32F002B_Firmware_V1.2.1/PY32F002B_Firmware_V1.2.1/Drivers/CMSIS/Include/core_cm0plus.h **** 
 302:../../../PY32F002B_Firmware_V1.2.1/PY32F002B_Firmware_V1.2.1/Drivers/CMSIS/Include/core_cm0plus.h **** 
 303:../../../PY32F002B_Firmware_V1.2.1/PY32F002B_Firmware_V1.2.1/Drivers/CMSIS/Include/core_cm0plus.h **** /**
 304:../../../PY32F002B_Firmware_V1.2.1/PY32F002B_Firmware_V1.2.1/Drivers/CMSIS/Include/core_cm0plus.h ****   \brief  Union type to access the Special-Purpose Program Status Registers (xPSR).
ARM GAS  C:\Users\Gautam\AppData\Local\Temp\cchduyDh.s 			page 11


 305:../../../PY32F002B_Firmware_V1.2.1/PY32F002B_Firmware_V1.2.1/Drivers/CMSIS/Include/core_cm0plus.h ****  */
 306:../../../PY32F002B_Firmware_V1.2.1/PY32F002B_Firmware_V1.2.1/Drivers/CMSIS/Include/core_cm0plus.h **** typedef union
 307:../../../PY32F002B_Firmware_V1.2.1/PY32F002B_Firmware_V1.2.1/Drivers/CMSIS/Include/core_cm0plus.h **** {
 308:../../../PY32F002B_Firmware_V1.2.1/PY32F002B_Firmware_V1.2.1/Drivers/CMSIS/Include/core_cm0plus.h ****   struct
 309:../../../PY32F002B_Firmware_V1.2.1/PY32F002B_Firmware_V1.2.1/Drivers/CMSIS/Include/core_cm0plus.h ****   {
 310:../../../PY32F002B_Firmware_V1.2.1/PY32F002B_Firmware_V1.2.1/Drivers/CMSIS/Include/core_cm0plus.h ****     uint32_t ISR:9;                      /*!< bit:  0.. 8  Exception number */
 311:../../../PY32F002B_Firmware_V1.2.1/PY32F002B_Firmware_V1.2.1/Drivers/CMSIS/Include/core_cm0plus.h ****     uint32_t _reserved0:15;              /*!< bit:  9..23  Reserved */
 312:../../../PY32F002B_Firmware_V1.2.1/PY32F002B_Firmware_V1.2.1/Drivers/CMSIS/Include/core_cm0plus.h ****     uint32_t T:1;                        /*!< bit:     24  Thumb bit        (read 0) */
 313:../../../PY32F002B_Firmware_V1.2.1/PY32F002B_Firmware_V1.2.1/Drivers/CMSIS/Include/core_cm0plus.h ****     uint32_t _reserved1:3;               /*!< bit: 25..27  Reserved */
 314:../../../PY32F002B_Firmware_V1.2.1/PY32F002B_Firmware_V1.2.1/Drivers/CMSIS/Include/core_cm0plus.h ****     uint32_t V:1;                        /*!< bit:     28  Overflow condition code flag */
 315:../../../PY32F002B_Firmware_V1.2.1/PY32F002B_Firmware_V1.2.1/Drivers/CMSIS/Include/core_cm0plus.h ****     uint32_t C:1;                        /*!< bit:     29  Carry condition code flag */
 316:../../../PY32F002B_Firmware_V1.2.1/PY32F002B_Firmware_V1.2.1/Drivers/CMSIS/Include/core_cm0plus.h ****     uint32_t Z:1;                        /*!< bit:     30  Zero condition code flag */
 317:../../../PY32F002B_Firmware_V1.2.1/PY32F002B_Firmware_V1.2.1/Drivers/CMSIS/Include/core_cm0plus.h ****     uint32_t N:1;                        /*!< bit:     31  Negative condition code flag */
 318:../../../PY32F002B_Firmware_V1.2.1/PY32F002B_Firmware_V1.2.1/Drivers/CMSIS/Include/core_cm0plus.h ****   } b;                                   /*!< Structure used for bit  access */
 319:../../../PY32F002B_Firmware_V1.2.1/PY32F002B_Firmware_V1.2.1/Drivers/CMSIS/Include/core_cm0plus.h ****   uint32_t w;                            /*!< Type      used for word access */
 320:../../../PY32F002B_Firmware_V1.2.1/PY32F002B_Firmware_V1.2.1/Drivers/CMSIS/Include/core_cm0plus.h **** } xPSR_Type;
 321:../../../PY32F002B_Firmware_V1.2.1/PY32F002B_Firmware_V1.2.1/Drivers/CMSIS/Include/core_cm0plus.h **** 
 322:../../../PY32F002B_Firmware_V1.2.1/PY32F002B_Firmware_V1.2.1/Drivers/CMSIS/Include/core_cm0plus.h **** /* xPSR Register Definitions */
 323:../../../PY32F002B_Firmware_V1.2.1/PY32F002B_Firmware_V1.2.1/Drivers/CMSIS/Include/core_cm0plus.h **** #define xPSR_N_Pos                         31U                                            /*!< xPSR
 324:../../../PY32F002B_Firmware_V1.2.1/PY32F002B_Firmware_V1.2.1/Drivers/CMSIS/Include/core_cm0plus.h **** #define xPSR_N_Msk                         (1UL << xPSR_N_Pos)                            /*!< xPSR
 325:../../../PY32F002B_Firmware_V1.2.1/PY32F002B_Firmware_V1.2.1/Drivers/CMSIS/Include/core_cm0plus.h **** 
 326:../../../PY32F002B_Firmware_V1.2.1/PY32F002B_Firmware_V1.2.1/Drivers/CMSIS/Include/core_cm0plus.h **** #define xPSR_Z_Pos                         30U                                            /*!< xPSR
 327:../../../PY32F002B_Firmware_V1.2.1/PY32F002B_Firmware_V1.2.1/Drivers/CMSIS/Include/core_cm0plus.h **** #define xPSR_Z_Msk                         (1UL << xPSR_Z_Pos)                            /*!< xPSR
 328:../../../PY32F002B_Firmware_V1.2.1/PY32F002B_Firmware_V1.2.1/Drivers/CMSIS/Include/core_cm0plus.h **** 
 329:../../../PY32F002B_Firmware_V1.2.1/PY32F002B_Firmware_V1.2.1/Drivers/CMSIS/Include/core_cm0plus.h **** #define xPSR_C_Pos                         29U                                            /*!< xPSR
 330:../../../PY32F002B_Firmware_V1.2.1/PY32F002B_Firmware_V1.2.1/Drivers/CMSIS/Include/core_cm0plus.h **** #define xPSR_C_Msk                         (1UL << xPSR_C_Pos)                            /*!< xPSR
 331:../../../PY32F002B_Firmware_V1.2.1/PY32F002B_Firmware_V1.2.1/Drivers/CMSIS/Include/core_cm0plus.h **** 
 332:../../../PY32F002B_Firmware_V1.2.1/PY32F002B_Firmware_V1.2.1/Drivers/CMSIS/Include/core_cm0plus.h **** #define xPSR_V_Pos                         28U                                            /*!< xPSR
 333:../../../PY32F002B_Firmware_V1.2.1/PY32F002B_Firmware_V1.2.1/Drivers/CMSIS/Include/core_cm0plus.h **** #define xPSR_V_Msk                         (1UL << xPSR_V_Pos)                            /*!< xPSR
 334:../../../PY32F002B_Firmware_V1.2.1/PY32F002B_Firmware_V1.2.1/Drivers/CMSIS/Include/core_cm0plus.h **** 
 335:../../../PY32F002B_Firmware_V1.2.1/PY32F002B_Firmware_V1.2.1/Drivers/CMSIS/Include/core_cm0plus.h **** #define xPSR_T_Pos                         24U                                            /*!< xPSR
 336:../../../PY32F002B_Firmware_V1.2.1/PY32F002B_Firmware_V1.2.1/Drivers/CMSIS/Include/core_cm0plus.h **** #define xPSR_T_Msk                         (1UL << xPSR_T_Pos)                            /*!< xPSR
 337:../../../PY32F002B_Firmware_V1.2.1/PY32F002B_Firmware_V1.2.1/Drivers/CMSIS/Include/core_cm0plus.h **** 
 338:../../../PY32F002B_Firmware_V1.2.1/PY32F002B_Firmware_V1.2.1/Drivers/CMSIS/Include/core_cm0plus.h **** #define xPSR_ISR_Pos                        0U                                            /*!< xPSR
 339:../../../PY32F002B_Firmware_V1.2.1/PY32F002B_Firmware_V1.2.1/Drivers/CMSIS/Include/core_cm0plus.h **** #define xPSR_ISR_Msk                       (0x1FFUL /*<< xPSR_ISR_Pos*/)                  /*!< xPSR
 340:../../../PY32F002B_Firmware_V1.2.1/PY32F002B_Firmware_V1.2.1/Drivers/CMSIS/Include/core_cm0plus.h **** 
 341:../../../PY32F002B_Firmware_V1.2.1/PY32F002B_Firmware_V1.2.1/Drivers/CMSIS/Include/core_cm0plus.h **** 
 342:../../../PY32F002B_Firmware_V1.2.1/PY32F002B_Firmware_V1.2.1/Drivers/CMSIS/Include/core_cm0plus.h **** /**
 343:../../../PY32F002B_Firmware_V1.2.1/PY32F002B_Firmware_V1.2.1/Drivers/CMSIS/Include/core_cm0plus.h ****   \brief  Union type to access the Control Registers (CONTROL).
 344:../../../PY32F002B_Firmware_V1.2.1/PY32F002B_Firmware_V1.2.1/Drivers/CMSIS/Include/core_cm0plus.h ****  */
 345:../../../PY32F002B_Firmware_V1.2.1/PY32F002B_Firmware_V1.2.1/Drivers/CMSIS/Include/core_cm0plus.h **** typedef union
 346:../../../PY32F002B_Firmware_V1.2.1/PY32F002B_Firmware_V1.2.1/Drivers/CMSIS/Include/core_cm0plus.h **** {
 347:../../../PY32F002B_Firmware_V1.2.1/PY32F002B_Firmware_V1.2.1/Drivers/CMSIS/Include/core_cm0plus.h ****   struct
 348:../../../PY32F002B_Firmware_V1.2.1/PY32F002B_Firmware_V1.2.1/Drivers/CMSIS/Include/core_cm0plus.h ****   {
 349:../../../PY32F002B_Firmware_V1.2.1/PY32F002B_Firmware_V1.2.1/Drivers/CMSIS/Include/core_cm0plus.h ****     uint32_t nPRIV:1;                    /*!< bit:      0  Execution privilege in Thread mode */
 350:../../../PY32F002B_Firmware_V1.2.1/PY32F002B_Firmware_V1.2.1/Drivers/CMSIS/Include/core_cm0plus.h ****     uint32_t SPSEL:1;                    /*!< bit:      1  Stack to be used */
 351:../../../PY32F002B_Firmware_V1.2.1/PY32F002B_Firmware_V1.2.1/Drivers/CMSIS/Include/core_cm0plus.h ****     uint32_t _reserved1:30;              /*!< bit:  2..31  Reserved */
 352:../../../PY32F002B_Firmware_V1.2.1/PY32F002B_Firmware_V1.2.1/Drivers/CMSIS/Include/core_cm0plus.h ****   } b;                                   /*!< Structure used for bit  access */
 353:../../../PY32F002B_Firmware_V1.2.1/PY32F002B_Firmware_V1.2.1/Drivers/CMSIS/Include/core_cm0plus.h ****   uint32_t w;                            /*!< Type      used for word access */
 354:../../../PY32F002B_Firmware_V1.2.1/PY32F002B_Firmware_V1.2.1/Drivers/CMSIS/Include/core_cm0plus.h **** } CONTROL_Type;
 355:../../../PY32F002B_Firmware_V1.2.1/PY32F002B_Firmware_V1.2.1/Drivers/CMSIS/Include/core_cm0plus.h **** 
 356:../../../PY32F002B_Firmware_V1.2.1/PY32F002B_Firmware_V1.2.1/Drivers/CMSIS/Include/core_cm0plus.h **** /* CONTROL Register Definitions */
 357:../../../PY32F002B_Firmware_V1.2.1/PY32F002B_Firmware_V1.2.1/Drivers/CMSIS/Include/core_cm0plus.h **** #define CONTROL_SPSEL_Pos                   1U                                            /*!< CONT
 358:../../../PY32F002B_Firmware_V1.2.1/PY32F002B_Firmware_V1.2.1/Drivers/CMSIS/Include/core_cm0plus.h **** #define CONTROL_SPSEL_Msk                  (1UL << CONTROL_SPSEL_Pos)                     /*!< CONT
 359:../../../PY32F002B_Firmware_V1.2.1/PY32F002B_Firmware_V1.2.1/Drivers/CMSIS/Include/core_cm0plus.h **** 
 360:../../../PY32F002B_Firmware_V1.2.1/PY32F002B_Firmware_V1.2.1/Drivers/CMSIS/Include/core_cm0plus.h **** #define CONTROL_nPRIV_Pos                   0U                                            /*!< CONT
 361:../../../PY32F002B_Firmware_V1.2.1/PY32F002B_Firmware_V1.2.1/Drivers/CMSIS/Include/core_cm0plus.h **** #define CONTROL_nPRIV_Msk                  (1UL /*<< CONTROL_nPRIV_Pos*/)                 /*!< CONT
ARM GAS  C:\Users\Gautam\AppData\Local\Temp\cchduyDh.s 			page 12


 362:../../../PY32F002B_Firmware_V1.2.1/PY32F002B_Firmware_V1.2.1/Drivers/CMSIS/Include/core_cm0plus.h **** 
 363:../../../PY32F002B_Firmware_V1.2.1/PY32F002B_Firmware_V1.2.1/Drivers/CMSIS/Include/core_cm0plus.h **** /*@} end of group CMSIS_CORE */
 364:../../../PY32F002B_Firmware_V1.2.1/PY32F002B_Firmware_V1.2.1/Drivers/CMSIS/Include/core_cm0plus.h **** 
 365:../../../PY32F002B_Firmware_V1.2.1/PY32F002B_Firmware_V1.2.1/Drivers/CMSIS/Include/core_cm0plus.h **** 
 366:../../../PY32F002B_Firmware_V1.2.1/PY32F002B_Firmware_V1.2.1/Drivers/CMSIS/Include/core_cm0plus.h **** /**
 367:../../../PY32F002B_Firmware_V1.2.1/PY32F002B_Firmware_V1.2.1/Drivers/CMSIS/Include/core_cm0plus.h ****   \ingroup    CMSIS_core_register
 368:../../../PY32F002B_Firmware_V1.2.1/PY32F002B_Firmware_V1.2.1/Drivers/CMSIS/Include/core_cm0plus.h ****   \defgroup   CMSIS_NVIC  Nested Vectored Interrupt Controller (NVIC)
 369:../../../PY32F002B_Firmware_V1.2.1/PY32F002B_Firmware_V1.2.1/Drivers/CMSIS/Include/core_cm0plus.h ****   \brief      Type definitions for the NVIC Registers
 370:../../../PY32F002B_Firmware_V1.2.1/PY32F002B_Firmware_V1.2.1/Drivers/CMSIS/Include/core_cm0plus.h ****   @{
 371:../../../PY32F002B_Firmware_V1.2.1/PY32F002B_Firmware_V1.2.1/Drivers/CMSIS/Include/core_cm0plus.h ****  */
 372:../../../PY32F002B_Firmware_V1.2.1/PY32F002B_Firmware_V1.2.1/Drivers/CMSIS/Include/core_cm0plus.h **** 
 373:../../../PY32F002B_Firmware_V1.2.1/PY32F002B_Firmware_V1.2.1/Drivers/CMSIS/Include/core_cm0plus.h **** /**
 374:../../../PY32F002B_Firmware_V1.2.1/PY32F002B_Firmware_V1.2.1/Drivers/CMSIS/Include/core_cm0plus.h ****   \brief  Structure type to access the Nested Vectored Interrupt Controller (NVIC).
 375:../../../PY32F002B_Firmware_V1.2.1/PY32F002B_Firmware_V1.2.1/Drivers/CMSIS/Include/core_cm0plus.h ****  */
 376:../../../PY32F002B_Firmware_V1.2.1/PY32F002B_Firmware_V1.2.1/Drivers/CMSIS/Include/core_cm0plus.h **** typedef struct
 377:../../../PY32F002B_Firmware_V1.2.1/PY32F002B_Firmware_V1.2.1/Drivers/CMSIS/Include/core_cm0plus.h **** {
 378:../../../PY32F002B_Firmware_V1.2.1/PY32F002B_Firmware_V1.2.1/Drivers/CMSIS/Include/core_cm0plus.h ****   __IOM uint32_t ISER[1U];               /*!< Offset: 0x000 (R/W)  Interrupt Set Enable Register */
 379:../../../PY32F002B_Firmware_V1.2.1/PY32F002B_Firmware_V1.2.1/Drivers/CMSIS/Include/core_cm0plus.h ****         uint32_t RESERVED0[31U];
 380:../../../PY32F002B_Firmware_V1.2.1/PY32F002B_Firmware_V1.2.1/Drivers/CMSIS/Include/core_cm0plus.h ****   __IOM uint32_t ICER[1U];               /*!< Offset: 0x080 (R/W)  Interrupt Clear Enable Register 
 381:../../../PY32F002B_Firmware_V1.2.1/PY32F002B_Firmware_V1.2.1/Drivers/CMSIS/Include/core_cm0plus.h ****         uint32_t RSERVED1[31U];
 382:../../../PY32F002B_Firmware_V1.2.1/PY32F002B_Firmware_V1.2.1/Drivers/CMSIS/Include/core_cm0plus.h ****   __IOM uint32_t ISPR[1U];               /*!< Offset: 0x100 (R/W)  Interrupt Set Pending Register *
 383:../../../PY32F002B_Firmware_V1.2.1/PY32F002B_Firmware_V1.2.1/Drivers/CMSIS/Include/core_cm0plus.h ****         uint32_t RESERVED2[31U];
 384:../../../PY32F002B_Firmware_V1.2.1/PY32F002B_Firmware_V1.2.1/Drivers/CMSIS/Include/core_cm0plus.h ****   __IOM uint32_t ICPR[1U];               /*!< Offset: 0x180 (R/W)  Interrupt Clear Pending Register
 385:../../../PY32F002B_Firmware_V1.2.1/PY32F002B_Firmware_V1.2.1/Drivers/CMSIS/Include/core_cm0plus.h ****         uint32_t RESERVED3[31U];
 386:../../../PY32F002B_Firmware_V1.2.1/PY32F002B_Firmware_V1.2.1/Drivers/CMSIS/Include/core_cm0plus.h ****         uint32_t RESERVED4[64U];
 387:../../../PY32F002B_Firmware_V1.2.1/PY32F002B_Firmware_V1.2.1/Drivers/CMSIS/Include/core_cm0plus.h ****   __IOM uint32_t IP[8U];                 /*!< Offset: 0x300 (R/W)  Interrupt Priority Register */
 388:../../../PY32F002B_Firmware_V1.2.1/PY32F002B_Firmware_V1.2.1/Drivers/CMSIS/Include/core_cm0plus.h **** }  NVIC_Type;
 389:../../../PY32F002B_Firmware_V1.2.1/PY32F002B_Firmware_V1.2.1/Drivers/CMSIS/Include/core_cm0plus.h **** 
 390:../../../PY32F002B_Firmware_V1.2.1/PY32F002B_Firmware_V1.2.1/Drivers/CMSIS/Include/core_cm0plus.h **** /*@} end of group CMSIS_NVIC */
 391:../../../PY32F002B_Firmware_V1.2.1/PY32F002B_Firmware_V1.2.1/Drivers/CMSIS/Include/core_cm0plus.h **** 
 392:../../../PY32F002B_Firmware_V1.2.1/PY32F002B_Firmware_V1.2.1/Drivers/CMSIS/Include/core_cm0plus.h **** 
 393:../../../PY32F002B_Firmware_V1.2.1/PY32F002B_Firmware_V1.2.1/Drivers/CMSIS/Include/core_cm0plus.h **** /**
 394:../../../PY32F002B_Firmware_V1.2.1/PY32F002B_Firmware_V1.2.1/Drivers/CMSIS/Include/core_cm0plus.h ****   \ingroup  CMSIS_core_register
 395:../../../PY32F002B_Firmware_V1.2.1/PY32F002B_Firmware_V1.2.1/Drivers/CMSIS/Include/core_cm0plus.h ****   \defgroup CMSIS_SCB     System Control Block (SCB)
 396:../../../PY32F002B_Firmware_V1.2.1/PY32F002B_Firmware_V1.2.1/Drivers/CMSIS/Include/core_cm0plus.h ****   \brief    Type definitions for the System Control Block Registers
 397:../../../PY32F002B_Firmware_V1.2.1/PY32F002B_Firmware_V1.2.1/Drivers/CMSIS/Include/core_cm0plus.h ****   @{
 398:../../../PY32F002B_Firmware_V1.2.1/PY32F002B_Firmware_V1.2.1/Drivers/CMSIS/Include/core_cm0plus.h ****  */
 399:../../../PY32F002B_Firmware_V1.2.1/PY32F002B_Firmware_V1.2.1/Drivers/CMSIS/Include/core_cm0plus.h **** 
 400:../../../PY32F002B_Firmware_V1.2.1/PY32F002B_Firmware_V1.2.1/Drivers/CMSIS/Include/core_cm0plus.h **** /**
 401:../../../PY32F002B_Firmware_V1.2.1/PY32F002B_Firmware_V1.2.1/Drivers/CMSIS/Include/core_cm0plus.h ****   \brief  Structure type to access the System Control Block (SCB).
 402:../../../PY32F002B_Firmware_V1.2.1/PY32F002B_Firmware_V1.2.1/Drivers/CMSIS/Include/core_cm0plus.h ****  */
 403:../../../PY32F002B_Firmware_V1.2.1/PY32F002B_Firmware_V1.2.1/Drivers/CMSIS/Include/core_cm0plus.h **** typedef struct
 404:../../../PY32F002B_Firmware_V1.2.1/PY32F002B_Firmware_V1.2.1/Drivers/CMSIS/Include/core_cm0plus.h **** {
 405:../../../PY32F002B_Firmware_V1.2.1/PY32F002B_Firmware_V1.2.1/Drivers/CMSIS/Include/core_cm0plus.h ****   __IM  uint32_t CPUID;                  /*!< Offset: 0x000 (R/ )  CPUID Base Register */
 406:../../../PY32F002B_Firmware_V1.2.1/PY32F002B_Firmware_V1.2.1/Drivers/CMSIS/Include/core_cm0plus.h ****   __IOM uint32_t ICSR;                   /*!< Offset: 0x004 (R/W)  Interrupt Control and State Regi
 407:../../../PY32F002B_Firmware_V1.2.1/PY32F002B_Firmware_V1.2.1/Drivers/CMSIS/Include/core_cm0plus.h **** #if (__VTOR_PRESENT == 1U)
 408:../../../PY32F002B_Firmware_V1.2.1/PY32F002B_Firmware_V1.2.1/Drivers/CMSIS/Include/core_cm0plus.h ****   __IOM uint32_t VTOR;                   /*!< Offset: 0x008 (R/W)  Vector Table Offset Register */
 409:../../../PY32F002B_Firmware_V1.2.1/PY32F002B_Firmware_V1.2.1/Drivers/CMSIS/Include/core_cm0plus.h **** #else
 410:../../../PY32F002B_Firmware_V1.2.1/PY32F002B_Firmware_V1.2.1/Drivers/CMSIS/Include/core_cm0plus.h ****         uint32_t RESERVED0;
 411:../../../PY32F002B_Firmware_V1.2.1/PY32F002B_Firmware_V1.2.1/Drivers/CMSIS/Include/core_cm0plus.h **** #endif
 412:../../../PY32F002B_Firmware_V1.2.1/PY32F002B_Firmware_V1.2.1/Drivers/CMSIS/Include/core_cm0plus.h ****   __IOM uint32_t AIRCR;                  /*!< Offset: 0x00C (R/W)  Application Interrupt and Reset 
 413:../../../PY32F002B_Firmware_V1.2.1/PY32F002B_Firmware_V1.2.1/Drivers/CMSIS/Include/core_cm0plus.h ****   __IOM uint32_t SCR;                    /*!< Offset: 0x010 (R/W)  System Control Register */
 414:../../../PY32F002B_Firmware_V1.2.1/PY32F002B_Firmware_V1.2.1/Drivers/CMSIS/Include/core_cm0plus.h ****   __IOM uint32_t CCR;                    /*!< Offset: 0x014 (R/W)  Configuration Control Register *
 415:../../../PY32F002B_Firmware_V1.2.1/PY32F002B_Firmware_V1.2.1/Drivers/CMSIS/Include/core_cm0plus.h ****         uint32_t RESERVED1;
 416:../../../PY32F002B_Firmware_V1.2.1/PY32F002B_Firmware_V1.2.1/Drivers/CMSIS/Include/core_cm0plus.h ****   __IOM uint32_t SHP[2U];                /*!< Offset: 0x01C (R/W)  System Handlers Priority Registe
 417:../../../PY32F002B_Firmware_V1.2.1/PY32F002B_Firmware_V1.2.1/Drivers/CMSIS/Include/core_cm0plus.h ****   __IOM uint32_t SHCSR;                  /*!< Offset: 0x024 (R/W)  System Handler Control and State
 418:../../../PY32F002B_Firmware_V1.2.1/PY32F002B_Firmware_V1.2.1/Drivers/CMSIS/Include/core_cm0plus.h **** } SCB_Type;
ARM GAS  C:\Users\Gautam\AppData\Local\Temp\cchduyDh.s 			page 13


 419:../../../PY32F002B_Firmware_V1.2.1/PY32F002B_Firmware_V1.2.1/Drivers/CMSIS/Include/core_cm0plus.h **** 
 420:../../../PY32F002B_Firmware_V1.2.1/PY32F002B_Firmware_V1.2.1/Drivers/CMSIS/Include/core_cm0plus.h **** /* SCB CPUID Register Definitions */
 421:../../../PY32F002B_Firmware_V1.2.1/PY32F002B_Firmware_V1.2.1/Drivers/CMSIS/Include/core_cm0plus.h **** #define SCB_CPUID_IMPLEMENTER_Pos          24U                                            /*!< SCB 
 422:../../../PY32F002B_Firmware_V1.2.1/PY32F002B_Firmware_V1.2.1/Drivers/CMSIS/Include/core_cm0plus.h **** #define SCB_CPUID_IMPLEMENTER_Msk          (0xFFUL << SCB_CPUID_IMPLEMENTER_Pos)          /*!< SCB 
 423:../../../PY32F002B_Firmware_V1.2.1/PY32F002B_Firmware_V1.2.1/Drivers/CMSIS/Include/core_cm0plus.h **** 
 424:../../../PY32F002B_Firmware_V1.2.1/PY32F002B_Firmware_V1.2.1/Drivers/CMSIS/Include/core_cm0plus.h **** #define SCB_CPUID_VARIANT_Pos              20U                                            /*!< SCB 
 425:../../../PY32F002B_Firmware_V1.2.1/PY32F002B_Firmware_V1.2.1/Drivers/CMSIS/Include/core_cm0plus.h **** #define SCB_CPUID_VARIANT_Msk              (0xFUL << SCB_CPUID_VARIANT_Pos)               /*!< SCB 
 426:../../../PY32F002B_Firmware_V1.2.1/PY32F002B_Firmware_V1.2.1/Drivers/CMSIS/Include/core_cm0plus.h **** 
 427:../../../PY32F002B_Firmware_V1.2.1/PY32F002B_Firmware_V1.2.1/Drivers/CMSIS/Include/core_cm0plus.h **** #define SCB_CPUID_ARCHITECTURE_Pos         16U                                            /*!< SCB 
 428:../../../PY32F002B_Firmware_V1.2.1/PY32F002B_Firmware_V1.2.1/Drivers/CMSIS/Include/core_cm0plus.h **** #define SCB_CPUID_ARCHITECTURE_Msk         (0xFUL << SCB_CPUID_ARCHITECTURE_Pos)          /*!< SCB 
 429:../../../PY32F002B_Firmware_V1.2.1/PY32F002B_Firmware_V1.2.1/Drivers/CMSIS/Include/core_cm0plus.h **** 
 430:../../../PY32F002B_Firmware_V1.2.1/PY32F002B_Firmware_V1.2.1/Drivers/CMSIS/Include/core_cm0plus.h **** #define SCB_CPUID_PARTNO_Pos                4U                                            /*!< SCB 
 431:../../../PY32F002B_Firmware_V1.2.1/PY32F002B_Firmware_V1.2.1/Drivers/CMSIS/Include/core_cm0plus.h **** #define SCB_CPUID_PARTNO_Msk               (0xFFFUL << SCB_CPUID_PARTNO_Pos)              /*!< SCB 
 432:../../../PY32F002B_Firmware_V1.2.1/PY32F002B_Firmware_V1.2.1/Drivers/CMSIS/Include/core_cm0plus.h **** 
 433:../../../PY32F002B_Firmware_V1.2.1/PY32F002B_Firmware_V1.2.1/Drivers/CMSIS/Include/core_cm0plus.h **** #define SCB_CPUID_REVISION_Pos              0U                                            /*!< SCB 
 434:../../../PY32F002B_Firmware_V1.2.1/PY32F002B_Firmware_V1.2.1/Drivers/CMSIS/Include/core_cm0plus.h **** #define SCB_CPUID_REVISION_Msk             (0xFUL /*<< SCB_CPUID_REVISION_Pos*/)          /*!< SCB 
 435:../../../PY32F002B_Firmware_V1.2.1/PY32F002B_Firmware_V1.2.1/Drivers/CMSIS/Include/core_cm0plus.h **** 
 436:../../../PY32F002B_Firmware_V1.2.1/PY32F002B_Firmware_V1.2.1/Drivers/CMSIS/Include/core_cm0plus.h **** /* SCB Interrupt Control State Register Definitions */
 437:../../../PY32F002B_Firmware_V1.2.1/PY32F002B_Firmware_V1.2.1/Drivers/CMSIS/Include/core_cm0plus.h **** #define SCB_ICSR_NMIPENDSET_Pos            31U                                            /*!< SCB 
 438:../../../PY32F002B_Firmware_V1.2.1/PY32F002B_Firmware_V1.2.1/Drivers/CMSIS/Include/core_cm0plus.h **** #define SCB_ICSR_NMIPENDSET_Msk            (1UL << SCB_ICSR_NMIPENDSET_Pos)               /*!< SCB 
 439:../../../PY32F002B_Firmware_V1.2.1/PY32F002B_Firmware_V1.2.1/Drivers/CMSIS/Include/core_cm0plus.h **** 
 440:../../../PY32F002B_Firmware_V1.2.1/PY32F002B_Firmware_V1.2.1/Drivers/CMSIS/Include/core_cm0plus.h **** #define SCB_ICSR_PENDSVSET_Pos             28U                                            /*!< SCB 
 441:../../../PY32F002B_Firmware_V1.2.1/PY32F002B_Firmware_V1.2.1/Drivers/CMSIS/Include/core_cm0plus.h **** #define SCB_ICSR_PENDSVSET_Msk             (1UL << SCB_ICSR_PENDSVSET_Pos)                /*!< SCB 
 442:../../../PY32F002B_Firmware_V1.2.1/PY32F002B_Firmware_V1.2.1/Drivers/CMSIS/Include/core_cm0plus.h **** 
 443:../../../PY32F002B_Firmware_V1.2.1/PY32F002B_Firmware_V1.2.1/Drivers/CMSIS/Include/core_cm0plus.h **** #define SCB_ICSR_PENDSVCLR_Pos             27U                                            /*!< SCB 
 444:../../../PY32F002B_Firmware_V1.2.1/PY32F002B_Firmware_V1.2.1/Drivers/CMSIS/Include/core_cm0plus.h **** #define SCB_ICSR_PENDSVCLR_Msk             (1UL << SCB_ICSR_PENDSVCLR_Pos)                /*!< SCB 
 445:../../../PY32F002B_Firmware_V1.2.1/PY32F002B_Firmware_V1.2.1/Drivers/CMSIS/Include/core_cm0plus.h **** 
 446:../../../PY32F002B_Firmware_V1.2.1/PY32F002B_Firmware_V1.2.1/Drivers/CMSIS/Include/core_cm0plus.h **** #define SCB_ICSR_PENDSTSET_Pos             26U                                            /*!< SCB 
 447:../../../PY32F002B_Firmware_V1.2.1/PY32F002B_Firmware_V1.2.1/Drivers/CMSIS/Include/core_cm0plus.h **** #define SCB_ICSR_PENDSTSET_Msk             (1UL << SCB_ICSR_PENDSTSET_Pos)                /*!< SCB 
 448:../../../PY32F002B_Firmware_V1.2.1/PY32F002B_Firmware_V1.2.1/Drivers/CMSIS/Include/core_cm0plus.h **** 
 449:../../../PY32F002B_Firmware_V1.2.1/PY32F002B_Firmware_V1.2.1/Drivers/CMSIS/Include/core_cm0plus.h **** #define SCB_ICSR_PENDSTCLR_Pos             25U                                            /*!< SCB 
 450:../../../PY32F002B_Firmware_V1.2.1/PY32F002B_Firmware_V1.2.1/Drivers/CMSIS/Include/core_cm0plus.h **** #define SCB_ICSR_PENDSTCLR_Msk             (1UL << SCB_ICSR_PENDSTCLR_Pos)                /*!< SCB 
 451:../../../PY32F002B_Firmware_V1.2.1/PY32F002B_Firmware_V1.2.1/Drivers/CMSIS/Include/core_cm0plus.h **** 
 452:../../../PY32F002B_Firmware_V1.2.1/PY32F002B_Firmware_V1.2.1/Drivers/CMSIS/Include/core_cm0plus.h **** #define SCB_ICSR_ISRPREEMPT_Pos            23U                                            /*!< SCB 
 453:../../../PY32F002B_Firmware_V1.2.1/PY32F002B_Firmware_V1.2.1/Drivers/CMSIS/Include/core_cm0plus.h **** #define SCB_ICSR_ISRPREEMPT_Msk            (1UL << SCB_ICSR_ISRPREEMPT_Pos)               /*!< SCB 
 454:../../../PY32F002B_Firmware_V1.2.1/PY32F002B_Firmware_V1.2.1/Drivers/CMSIS/Include/core_cm0plus.h **** 
 455:../../../PY32F002B_Firmware_V1.2.1/PY32F002B_Firmware_V1.2.1/Drivers/CMSIS/Include/core_cm0plus.h **** #define SCB_ICSR_ISRPENDING_Pos            22U                                            /*!< SCB 
 456:../../../PY32F002B_Firmware_V1.2.1/PY32F002B_Firmware_V1.2.1/Drivers/CMSIS/Include/core_cm0plus.h **** #define SCB_ICSR_ISRPENDING_Msk            (1UL << SCB_ICSR_ISRPENDING_Pos)               /*!< SCB 
 457:../../../PY32F002B_Firmware_V1.2.1/PY32F002B_Firmware_V1.2.1/Drivers/CMSIS/Include/core_cm0plus.h **** 
 458:../../../PY32F002B_Firmware_V1.2.1/PY32F002B_Firmware_V1.2.1/Drivers/CMSIS/Include/core_cm0plus.h **** #define SCB_ICSR_VECTPENDING_Pos           12U                                            /*!< SCB 
 459:../../../PY32F002B_Firmware_V1.2.1/PY32F002B_Firmware_V1.2.1/Drivers/CMSIS/Include/core_cm0plus.h **** #define SCB_ICSR_VECTPENDING_Msk           (0x1FFUL << SCB_ICSR_VECTPENDING_Pos)          /*!< SCB 
 460:../../../PY32F002B_Firmware_V1.2.1/PY32F002B_Firmware_V1.2.1/Drivers/CMSIS/Include/core_cm0plus.h **** 
 461:../../../PY32F002B_Firmware_V1.2.1/PY32F002B_Firmware_V1.2.1/Drivers/CMSIS/Include/core_cm0plus.h **** #define SCB_ICSR_VECTACTIVE_Pos             0U                                            /*!< SCB 
 462:../../../PY32F002B_Firmware_V1.2.1/PY32F002B_Firmware_V1.2.1/Drivers/CMSIS/Include/core_cm0plus.h **** #define SCB_ICSR_VECTACTIVE_Msk            (0x1FFUL /*<< SCB_ICSR_VECTACTIVE_Pos*/)       /*!< SCB 
 463:../../../PY32F002B_Firmware_V1.2.1/PY32F002B_Firmware_V1.2.1/Drivers/CMSIS/Include/core_cm0plus.h **** 
 464:../../../PY32F002B_Firmware_V1.2.1/PY32F002B_Firmware_V1.2.1/Drivers/CMSIS/Include/core_cm0plus.h **** #if (__VTOR_PRESENT == 1U)
 465:../../../PY32F002B_Firmware_V1.2.1/PY32F002B_Firmware_V1.2.1/Drivers/CMSIS/Include/core_cm0plus.h **** /* SCB Interrupt Control State Register Definitions */
 466:../../../PY32F002B_Firmware_V1.2.1/PY32F002B_Firmware_V1.2.1/Drivers/CMSIS/Include/core_cm0plus.h **** #define SCB_VTOR_TBLOFF_Pos                 8U                                            /*!< SCB 
 467:../../../PY32F002B_Firmware_V1.2.1/PY32F002B_Firmware_V1.2.1/Drivers/CMSIS/Include/core_cm0plus.h **** #define SCB_VTOR_TBLOFF_Msk                (0xFFFFFFUL << SCB_VTOR_TBLOFF_Pos)            /*!< SCB 
 468:../../../PY32F002B_Firmware_V1.2.1/PY32F002B_Firmware_V1.2.1/Drivers/CMSIS/Include/core_cm0plus.h **** #endif
 469:../../../PY32F002B_Firmware_V1.2.1/PY32F002B_Firmware_V1.2.1/Drivers/CMSIS/Include/core_cm0plus.h **** 
 470:../../../PY32F002B_Firmware_V1.2.1/PY32F002B_Firmware_V1.2.1/Drivers/CMSIS/Include/core_cm0plus.h **** /* SCB Application Interrupt and Reset Control Register Definitions */
 471:../../../PY32F002B_Firmware_V1.2.1/PY32F002B_Firmware_V1.2.1/Drivers/CMSIS/Include/core_cm0plus.h **** #define SCB_AIRCR_VECTKEY_Pos              16U                                            /*!< SCB 
 472:../../../PY32F002B_Firmware_V1.2.1/PY32F002B_Firmware_V1.2.1/Drivers/CMSIS/Include/core_cm0plus.h **** #define SCB_AIRCR_VECTKEY_Msk              (0xFFFFUL << SCB_AIRCR_VECTKEY_Pos)            /*!< SCB 
 473:../../../PY32F002B_Firmware_V1.2.1/PY32F002B_Firmware_V1.2.1/Drivers/CMSIS/Include/core_cm0plus.h **** 
 474:../../../PY32F002B_Firmware_V1.2.1/PY32F002B_Firmware_V1.2.1/Drivers/CMSIS/Include/core_cm0plus.h **** #define SCB_AIRCR_VECTKEYSTAT_Pos          16U                                            /*!< SCB 
 475:../../../PY32F002B_Firmware_V1.2.1/PY32F002B_Firmware_V1.2.1/Drivers/CMSIS/Include/core_cm0plus.h **** #define SCB_AIRCR_VECTKEYSTAT_Msk          (0xFFFFUL << SCB_AIRCR_VECTKEYSTAT_Pos)        /*!< SCB 
ARM GAS  C:\Users\Gautam\AppData\Local\Temp\cchduyDh.s 			page 14


 476:../../../PY32F002B_Firmware_V1.2.1/PY32F002B_Firmware_V1.2.1/Drivers/CMSIS/Include/core_cm0plus.h **** 
 477:../../../PY32F002B_Firmware_V1.2.1/PY32F002B_Firmware_V1.2.1/Drivers/CMSIS/Include/core_cm0plus.h **** #define SCB_AIRCR_ENDIANESS_Pos            15U                                            /*!< SCB 
 478:../../../PY32F002B_Firmware_V1.2.1/PY32F002B_Firmware_V1.2.1/Drivers/CMSIS/Include/core_cm0plus.h **** #define SCB_AIRCR_ENDIANESS_Msk            (1UL << SCB_AIRCR_ENDIANESS_Pos)               /*!< SCB 
 479:../../../PY32F002B_Firmware_V1.2.1/PY32F002B_Firmware_V1.2.1/Drivers/CMSIS/Include/core_cm0plus.h **** 
 480:../../../PY32F002B_Firmware_V1.2.1/PY32F002B_Firmware_V1.2.1/Drivers/CMSIS/Include/core_cm0plus.h **** #define SCB_AIRCR_SYSRESETREQ_Pos           2U                                            /*!< SCB 
 481:../../../PY32F002B_Firmware_V1.2.1/PY32F002B_Firmware_V1.2.1/Drivers/CMSIS/Include/core_cm0plus.h **** #define SCB_AIRCR_SYSRESETREQ_Msk          (1UL << SCB_AIRCR_SYSRESETREQ_Pos)             /*!< SCB 
 482:../../../PY32F002B_Firmware_V1.2.1/PY32F002B_Firmware_V1.2.1/Drivers/CMSIS/Include/core_cm0plus.h **** 
 483:../../../PY32F002B_Firmware_V1.2.1/PY32F002B_Firmware_V1.2.1/Drivers/CMSIS/Include/core_cm0plus.h **** #define SCB_AIRCR_VECTCLRACTIVE_Pos         1U                                            /*!< SCB 
 484:../../../PY32F002B_Firmware_V1.2.1/PY32F002B_Firmware_V1.2.1/Drivers/CMSIS/Include/core_cm0plus.h **** #define SCB_AIRCR_VECTCLRACTIVE_Msk        (1UL << SCB_AIRCR_VECTCLRACTIVE_Pos)           /*!< SCB 
 485:../../../PY32F002B_Firmware_V1.2.1/PY32F002B_Firmware_V1.2.1/Drivers/CMSIS/Include/core_cm0plus.h **** 
 486:../../../PY32F002B_Firmware_V1.2.1/PY32F002B_Firmware_V1.2.1/Drivers/CMSIS/Include/core_cm0plus.h **** /* SCB System Control Register Definitions */
 487:../../../PY32F002B_Firmware_V1.2.1/PY32F002B_Firmware_V1.2.1/Drivers/CMSIS/Include/core_cm0plus.h **** #define SCB_SCR_SEVONPEND_Pos               4U                                            /*!< SCB 
 488:../../../PY32F002B_Firmware_V1.2.1/PY32F002B_Firmware_V1.2.1/Drivers/CMSIS/Include/core_cm0plus.h **** #define SCB_SCR_SEVONPEND_Msk              (1UL << SCB_SCR_SEVONPEND_Pos)                 /*!< SCB 
 489:../../../PY32F002B_Firmware_V1.2.1/PY32F002B_Firmware_V1.2.1/Drivers/CMSIS/Include/core_cm0plus.h **** 
 490:../../../PY32F002B_Firmware_V1.2.1/PY32F002B_Firmware_V1.2.1/Drivers/CMSIS/Include/core_cm0plus.h **** #define SCB_SCR_SLEEPDEEP_Pos               2U                                            /*!< SCB 
 491:../../../PY32F002B_Firmware_V1.2.1/PY32F002B_Firmware_V1.2.1/Drivers/CMSIS/Include/core_cm0plus.h **** #define SCB_SCR_SLEEPDEEP_Msk              (1UL << SCB_SCR_SLEEPDEEP_Pos)                 /*!< SCB 
 492:../../../PY32F002B_Firmware_V1.2.1/PY32F002B_Firmware_V1.2.1/Drivers/CMSIS/Include/core_cm0plus.h **** 
 493:../../../PY32F002B_Firmware_V1.2.1/PY32F002B_Firmware_V1.2.1/Drivers/CMSIS/Include/core_cm0plus.h **** #define SCB_SCR_SLEEPONEXIT_Pos             1U                                            /*!< SCB 
 494:../../../PY32F002B_Firmware_V1.2.1/PY32F002B_Firmware_V1.2.1/Drivers/CMSIS/Include/core_cm0plus.h **** #define SCB_SCR_SLEEPONEXIT_Msk            (1UL << SCB_SCR_SLEEPONEXIT_Pos)               /*!< SCB 
 495:../../../PY32F002B_Firmware_V1.2.1/PY32F002B_Firmware_V1.2.1/Drivers/CMSIS/Include/core_cm0plus.h **** 
 496:../../../PY32F002B_Firmware_V1.2.1/PY32F002B_Firmware_V1.2.1/Drivers/CMSIS/Include/core_cm0plus.h **** /* SCB Configuration Control Register Definitions */
 497:../../../PY32F002B_Firmware_V1.2.1/PY32F002B_Firmware_V1.2.1/Drivers/CMSIS/Include/core_cm0plus.h **** #define SCB_CCR_STKALIGN_Pos                9U                                            /*!< SCB 
 498:../../../PY32F002B_Firmware_V1.2.1/PY32F002B_Firmware_V1.2.1/Drivers/CMSIS/Include/core_cm0plus.h **** #define SCB_CCR_STKALIGN_Msk               (1UL << SCB_CCR_STKALIGN_Pos)                  /*!< SCB 
 499:../../../PY32F002B_Firmware_V1.2.1/PY32F002B_Firmware_V1.2.1/Drivers/CMSIS/Include/core_cm0plus.h **** 
 500:../../../PY32F002B_Firmware_V1.2.1/PY32F002B_Firmware_V1.2.1/Drivers/CMSIS/Include/core_cm0plus.h **** #define SCB_CCR_UNALIGN_TRP_Pos             3U                                            /*!< SCB 
 501:../../../PY32F002B_Firmware_V1.2.1/PY32F002B_Firmware_V1.2.1/Drivers/CMSIS/Include/core_cm0plus.h **** #define SCB_CCR_UNALIGN_TRP_Msk            (1UL << SCB_CCR_UNALIGN_TRP_Pos)               /*!< SCB 
 502:../../../PY32F002B_Firmware_V1.2.1/PY32F002B_Firmware_V1.2.1/Drivers/CMSIS/Include/core_cm0plus.h **** 
 503:../../../PY32F002B_Firmware_V1.2.1/PY32F002B_Firmware_V1.2.1/Drivers/CMSIS/Include/core_cm0plus.h **** /* SCB System Handler Control and State Register Definitions */
 504:../../../PY32F002B_Firmware_V1.2.1/PY32F002B_Firmware_V1.2.1/Drivers/CMSIS/Include/core_cm0plus.h **** #define SCB_SHCSR_SVCALLPENDED_Pos         15U                                            /*!< SCB 
 505:../../../PY32F002B_Firmware_V1.2.1/PY32F002B_Firmware_V1.2.1/Drivers/CMSIS/Include/core_cm0plus.h **** #define SCB_SHCSR_SVCALLPENDED_Msk         (1UL << SCB_SHCSR_SVCALLPENDED_Pos)            /*!< SCB 
 506:../../../PY32F002B_Firmware_V1.2.1/PY32F002B_Firmware_V1.2.1/Drivers/CMSIS/Include/core_cm0plus.h **** 
 507:../../../PY32F002B_Firmware_V1.2.1/PY32F002B_Firmware_V1.2.1/Drivers/CMSIS/Include/core_cm0plus.h **** /*@} end of group CMSIS_SCB */
 508:../../../PY32F002B_Firmware_V1.2.1/PY32F002B_Firmware_V1.2.1/Drivers/CMSIS/Include/core_cm0plus.h **** 
 509:../../../PY32F002B_Firmware_V1.2.1/PY32F002B_Firmware_V1.2.1/Drivers/CMSIS/Include/core_cm0plus.h **** 
 510:../../../PY32F002B_Firmware_V1.2.1/PY32F002B_Firmware_V1.2.1/Drivers/CMSIS/Include/core_cm0plus.h **** /**
 511:../../../PY32F002B_Firmware_V1.2.1/PY32F002B_Firmware_V1.2.1/Drivers/CMSIS/Include/core_cm0plus.h ****   \ingroup  CMSIS_core_register
 512:../../../PY32F002B_Firmware_V1.2.1/PY32F002B_Firmware_V1.2.1/Drivers/CMSIS/Include/core_cm0plus.h ****   \defgroup CMSIS_SysTick     System Tick Timer (SysTick)
 513:../../../PY32F002B_Firmware_V1.2.1/PY32F002B_Firmware_V1.2.1/Drivers/CMSIS/Include/core_cm0plus.h ****   \brief    Type definitions for the System Timer Registers.
 514:../../../PY32F002B_Firmware_V1.2.1/PY32F002B_Firmware_V1.2.1/Drivers/CMSIS/Include/core_cm0plus.h ****   @{
 515:../../../PY32F002B_Firmware_V1.2.1/PY32F002B_Firmware_V1.2.1/Drivers/CMSIS/Include/core_cm0plus.h ****  */
 516:../../../PY32F002B_Firmware_V1.2.1/PY32F002B_Firmware_V1.2.1/Drivers/CMSIS/Include/core_cm0plus.h **** 
 517:../../../PY32F002B_Firmware_V1.2.1/PY32F002B_Firmware_V1.2.1/Drivers/CMSIS/Include/core_cm0plus.h **** /**
 518:../../../PY32F002B_Firmware_V1.2.1/PY32F002B_Firmware_V1.2.1/Drivers/CMSIS/Include/core_cm0plus.h ****   \brief  Structure type to access the System Timer (SysTick).
 519:../../../PY32F002B_Firmware_V1.2.1/PY32F002B_Firmware_V1.2.1/Drivers/CMSIS/Include/core_cm0plus.h ****  */
 520:../../../PY32F002B_Firmware_V1.2.1/PY32F002B_Firmware_V1.2.1/Drivers/CMSIS/Include/core_cm0plus.h **** typedef struct
 521:../../../PY32F002B_Firmware_V1.2.1/PY32F002B_Firmware_V1.2.1/Drivers/CMSIS/Include/core_cm0plus.h **** {
 522:../../../PY32F002B_Firmware_V1.2.1/PY32F002B_Firmware_V1.2.1/Drivers/CMSIS/Include/core_cm0plus.h ****   __IOM uint32_t CTRL;                   /*!< Offset: 0x000 (R/W)  SysTick Control and Status Regis
 523:../../../PY32F002B_Firmware_V1.2.1/PY32F002B_Firmware_V1.2.1/Drivers/CMSIS/Include/core_cm0plus.h ****   __IOM uint32_t LOAD;                   /*!< Offset: 0x004 (R/W)  SysTick Reload Value Register */
 524:../../../PY32F002B_Firmware_V1.2.1/PY32F002B_Firmware_V1.2.1/Drivers/CMSIS/Include/core_cm0plus.h ****   __IOM uint32_t VAL;                    /*!< Offset: 0x008 (R/W)  SysTick Current Value Register *
 525:../../../PY32F002B_Firmware_V1.2.1/PY32F002B_Firmware_V1.2.1/Drivers/CMSIS/Include/core_cm0plus.h ****   __IM  uint32_t CALIB;                  /*!< Offset: 0x00C (R/ )  SysTick Calibration Register */
 526:../../../PY32F002B_Firmware_V1.2.1/PY32F002B_Firmware_V1.2.1/Drivers/CMSIS/Include/core_cm0plus.h **** } SysTick_Type;
 527:../../../PY32F002B_Firmware_V1.2.1/PY32F002B_Firmware_V1.2.1/Drivers/CMSIS/Include/core_cm0plus.h **** 
 528:../../../PY32F002B_Firmware_V1.2.1/PY32F002B_Firmware_V1.2.1/Drivers/CMSIS/Include/core_cm0plus.h **** /* SysTick Control / Status Register Definitions */
 529:../../../PY32F002B_Firmware_V1.2.1/PY32F002B_Firmware_V1.2.1/Drivers/CMSIS/Include/core_cm0plus.h **** #define SysTick_CTRL_COUNTFLAG_Pos         16U                                            /*!< SysT
 530:../../../PY32F002B_Firmware_V1.2.1/PY32F002B_Firmware_V1.2.1/Drivers/CMSIS/Include/core_cm0plus.h **** #define SysTick_CTRL_COUNTFLAG_Msk         (1UL << SysTick_CTRL_COUNTFLAG_Pos)            /*!< SysT
 531:../../../PY32F002B_Firmware_V1.2.1/PY32F002B_Firmware_V1.2.1/Drivers/CMSIS/Include/core_cm0plus.h **** 
 532:../../../PY32F002B_Firmware_V1.2.1/PY32F002B_Firmware_V1.2.1/Drivers/CMSIS/Include/core_cm0plus.h **** #define SysTick_CTRL_CLKSOURCE_Pos          2U                                            /*!< SysT
ARM GAS  C:\Users\Gautam\AppData\Local\Temp\cchduyDh.s 			page 15


 533:../../../PY32F002B_Firmware_V1.2.1/PY32F002B_Firmware_V1.2.1/Drivers/CMSIS/Include/core_cm0plus.h **** #define SysTick_CTRL_CLKSOURCE_Msk         (1UL << SysTick_CTRL_CLKSOURCE_Pos)            /*!< SysT
 534:../../../PY32F002B_Firmware_V1.2.1/PY32F002B_Firmware_V1.2.1/Drivers/CMSIS/Include/core_cm0plus.h **** 
 535:../../../PY32F002B_Firmware_V1.2.1/PY32F002B_Firmware_V1.2.1/Drivers/CMSIS/Include/core_cm0plus.h **** #define SysTick_CTRL_TICKINT_Pos            1U                                            /*!< SysT
 536:../../../PY32F002B_Firmware_V1.2.1/PY32F002B_Firmware_V1.2.1/Drivers/CMSIS/Include/core_cm0plus.h **** #define SysTick_CTRL_TICKINT_Msk           (1UL << SysTick_CTRL_TICKINT_Pos)              /*!< SysT
 537:../../../PY32F002B_Firmware_V1.2.1/PY32F002B_Firmware_V1.2.1/Drivers/CMSIS/Include/core_cm0plus.h **** 
 538:../../../PY32F002B_Firmware_V1.2.1/PY32F002B_Firmware_V1.2.1/Drivers/CMSIS/Include/core_cm0plus.h **** #define SysTick_CTRL_ENABLE_Pos             0U                                            /*!< SysT
 539:../../../PY32F002B_Firmware_V1.2.1/PY32F002B_Firmware_V1.2.1/Drivers/CMSIS/Include/core_cm0plus.h **** #define SysTick_CTRL_ENABLE_Msk            (1UL /*<< SysTick_CTRL_ENABLE_Pos*/)           /*!< SysT
 540:../../../PY32F002B_Firmware_V1.2.1/PY32F002B_Firmware_V1.2.1/Drivers/CMSIS/Include/core_cm0plus.h **** 
 541:../../../PY32F002B_Firmware_V1.2.1/PY32F002B_Firmware_V1.2.1/Drivers/CMSIS/Include/core_cm0plus.h **** /* SysTick Reload Register Definitions */
 542:../../../PY32F002B_Firmware_V1.2.1/PY32F002B_Firmware_V1.2.1/Drivers/CMSIS/Include/core_cm0plus.h **** #define SysTick_LOAD_RELOAD_Pos             0U                                            /*!< SysT
 543:../../../PY32F002B_Firmware_V1.2.1/PY32F002B_Firmware_V1.2.1/Drivers/CMSIS/Include/core_cm0plus.h **** #define SysTick_LOAD_RELOAD_Msk            (0xFFFFFFUL /*<< SysTick_LOAD_RELOAD_Pos*/)    /*!< SysT
 544:../../../PY32F002B_Firmware_V1.2.1/PY32F002B_Firmware_V1.2.1/Drivers/CMSIS/Include/core_cm0plus.h **** 
 545:../../../PY32F002B_Firmware_V1.2.1/PY32F002B_Firmware_V1.2.1/Drivers/CMSIS/Include/core_cm0plus.h **** /* SysTick Current Register Definitions */
 546:../../../PY32F002B_Firmware_V1.2.1/PY32F002B_Firmware_V1.2.1/Drivers/CMSIS/Include/core_cm0plus.h **** #define SysTick_VAL_CURRENT_Pos             0U                                            /*!< SysT
 547:../../../PY32F002B_Firmware_V1.2.1/PY32F002B_Firmware_V1.2.1/Drivers/CMSIS/Include/core_cm0plus.h **** #define SysTick_VAL_CURRENT_Msk            (0xFFFFFFUL /*<< SysTick_VAL_CURRENT_Pos*/)    /*!< SysT
 548:../../../PY32F002B_Firmware_V1.2.1/PY32F002B_Firmware_V1.2.1/Drivers/CMSIS/Include/core_cm0plus.h **** 
 549:../../../PY32F002B_Firmware_V1.2.1/PY32F002B_Firmware_V1.2.1/Drivers/CMSIS/Include/core_cm0plus.h **** /* SysTick Calibration Register Definitions */
 550:../../../PY32F002B_Firmware_V1.2.1/PY32F002B_Firmware_V1.2.1/Drivers/CMSIS/Include/core_cm0plus.h **** #define SysTick_CALIB_NOREF_Pos            31U                                            /*!< SysT
 551:../../../PY32F002B_Firmware_V1.2.1/PY32F002B_Firmware_V1.2.1/Drivers/CMSIS/Include/core_cm0plus.h **** #define SysTick_CALIB_NOREF_Msk            (1UL << SysTick_CALIB_NOREF_Pos)               /*!< SysT
 552:../../../PY32F002B_Firmware_V1.2.1/PY32F002B_Firmware_V1.2.1/Drivers/CMSIS/Include/core_cm0plus.h **** 
 553:../../../PY32F002B_Firmware_V1.2.1/PY32F002B_Firmware_V1.2.1/Drivers/CMSIS/Include/core_cm0plus.h **** #define SysTick_CALIB_SKEW_Pos             30U                                            /*!< SysT
 554:../../../PY32F002B_Firmware_V1.2.1/PY32F002B_Firmware_V1.2.1/Drivers/CMSIS/Include/core_cm0plus.h **** #define SysTick_CALIB_SKEW_Msk             (1UL << SysTick_CALIB_SKEW_Pos)                /*!< SysT
 555:../../../PY32F002B_Firmware_V1.2.1/PY32F002B_Firmware_V1.2.1/Drivers/CMSIS/Include/core_cm0plus.h **** 
 556:../../../PY32F002B_Firmware_V1.2.1/PY32F002B_Firmware_V1.2.1/Drivers/CMSIS/Include/core_cm0plus.h **** #define SysTick_CALIB_TENMS_Pos             0U                                            /*!< SysT
 557:../../../PY32F002B_Firmware_V1.2.1/PY32F002B_Firmware_V1.2.1/Drivers/CMSIS/Include/core_cm0plus.h **** #define SysTick_CALIB_TENMS_Msk            (0xFFFFFFUL /*<< SysTick_CALIB_TENMS_Pos*/)    /*!< SysT
 558:../../../PY32F002B_Firmware_V1.2.1/PY32F002B_Firmware_V1.2.1/Drivers/CMSIS/Include/core_cm0plus.h **** 
 559:../../../PY32F002B_Firmware_V1.2.1/PY32F002B_Firmware_V1.2.1/Drivers/CMSIS/Include/core_cm0plus.h **** /*@} end of group CMSIS_SysTick */
 560:../../../PY32F002B_Firmware_V1.2.1/PY32F002B_Firmware_V1.2.1/Drivers/CMSIS/Include/core_cm0plus.h **** 
 561:../../../PY32F002B_Firmware_V1.2.1/PY32F002B_Firmware_V1.2.1/Drivers/CMSIS/Include/core_cm0plus.h **** #if (__MPU_PRESENT == 1U)
 562:../../../PY32F002B_Firmware_V1.2.1/PY32F002B_Firmware_V1.2.1/Drivers/CMSIS/Include/core_cm0plus.h **** /**
 563:../../../PY32F002B_Firmware_V1.2.1/PY32F002B_Firmware_V1.2.1/Drivers/CMSIS/Include/core_cm0plus.h ****   \ingroup  CMSIS_core_register
 564:../../../PY32F002B_Firmware_V1.2.1/PY32F002B_Firmware_V1.2.1/Drivers/CMSIS/Include/core_cm0plus.h ****   \defgroup CMSIS_MPU     Memory Protection Unit (MPU)
 565:../../../PY32F002B_Firmware_V1.2.1/PY32F002B_Firmware_V1.2.1/Drivers/CMSIS/Include/core_cm0plus.h ****   \brief    Type definitions for the Memory Protection Unit (MPU)
 566:../../../PY32F002B_Firmware_V1.2.1/PY32F002B_Firmware_V1.2.1/Drivers/CMSIS/Include/core_cm0plus.h ****   @{
 567:../../../PY32F002B_Firmware_V1.2.1/PY32F002B_Firmware_V1.2.1/Drivers/CMSIS/Include/core_cm0plus.h ****  */
 568:../../../PY32F002B_Firmware_V1.2.1/PY32F002B_Firmware_V1.2.1/Drivers/CMSIS/Include/core_cm0plus.h **** 
 569:../../../PY32F002B_Firmware_V1.2.1/PY32F002B_Firmware_V1.2.1/Drivers/CMSIS/Include/core_cm0plus.h **** /**
 570:../../../PY32F002B_Firmware_V1.2.1/PY32F002B_Firmware_V1.2.1/Drivers/CMSIS/Include/core_cm0plus.h ****   \brief  Structure type to access the Memory Protection Unit (MPU).
 571:../../../PY32F002B_Firmware_V1.2.1/PY32F002B_Firmware_V1.2.1/Drivers/CMSIS/Include/core_cm0plus.h ****  */
 572:../../../PY32F002B_Firmware_V1.2.1/PY32F002B_Firmware_V1.2.1/Drivers/CMSIS/Include/core_cm0plus.h **** typedef struct
 573:../../../PY32F002B_Firmware_V1.2.1/PY32F002B_Firmware_V1.2.1/Drivers/CMSIS/Include/core_cm0plus.h **** {
 574:../../../PY32F002B_Firmware_V1.2.1/PY32F002B_Firmware_V1.2.1/Drivers/CMSIS/Include/core_cm0plus.h ****   __IM  uint32_t TYPE;                   /*!< Offset: 0x000 (R/ )  MPU Type Register */
 575:../../../PY32F002B_Firmware_V1.2.1/PY32F002B_Firmware_V1.2.1/Drivers/CMSIS/Include/core_cm0plus.h ****   __IOM uint32_t CTRL;                   /*!< Offset: 0x004 (R/W)  MPU Control Register */
 576:../../../PY32F002B_Firmware_V1.2.1/PY32F002B_Firmware_V1.2.1/Drivers/CMSIS/Include/core_cm0plus.h ****   __IOM uint32_t RNR;                    /*!< Offset: 0x008 (R/W)  MPU Region RNRber Register */
 577:../../../PY32F002B_Firmware_V1.2.1/PY32F002B_Firmware_V1.2.1/Drivers/CMSIS/Include/core_cm0plus.h ****   __IOM uint32_t RBAR;                   /*!< Offset: 0x00C (R/W)  MPU Region Base Address Register
 578:../../../PY32F002B_Firmware_V1.2.1/PY32F002B_Firmware_V1.2.1/Drivers/CMSIS/Include/core_cm0plus.h ****   __IOM uint32_t RASR;                   /*!< Offset: 0x010 (R/W)  MPU Region Attribute and Size Re
 579:../../../PY32F002B_Firmware_V1.2.1/PY32F002B_Firmware_V1.2.1/Drivers/CMSIS/Include/core_cm0plus.h **** } MPU_Type;
 580:../../../PY32F002B_Firmware_V1.2.1/PY32F002B_Firmware_V1.2.1/Drivers/CMSIS/Include/core_cm0plus.h **** 
 581:../../../PY32F002B_Firmware_V1.2.1/PY32F002B_Firmware_V1.2.1/Drivers/CMSIS/Include/core_cm0plus.h **** /* MPU Type Register Definitions */
 582:../../../PY32F002B_Firmware_V1.2.1/PY32F002B_Firmware_V1.2.1/Drivers/CMSIS/Include/core_cm0plus.h **** #define MPU_TYPE_IREGION_Pos               16U                                            /*!< MPU 
 583:../../../PY32F002B_Firmware_V1.2.1/PY32F002B_Firmware_V1.2.1/Drivers/CMSIS/Include/core_cm0plus.h **** #define MPU_TYPE_IREGION_Msk               (0xFFUL << MPU_TYPE_IREGION_Pos)               /*!< MPU 
 584:../../../PY32F002B_Firmware_V1.2.1/PY32F002B_Firmware_V1.2.1/Drivers/CMSIS/Include/core_cm0plus.h **** 
 585:../../../PY32F002B_Firmware_V1.2.1/PY32F002B_Firmware_V1.2.1/Drivers/CMSIS/Include/core_cm0plus.h **** #define MPU_TYPE_DREGION_Pos                8U                                            /*!< MPU 
 586:../../../PY32F002B_Firmware_V1.2.1/PY32F002B_Firmware_V1.2.1/Drivers/CMSIS/Include/core_cm0plus.h **** #define MPU_TYPE_DREGION_Msk               (0xFFUL << MPU_TYPE_DREGION_Pos)               /*!< MPU 
 587:../../../PY32F002B_Firmware_V1.2.1/PY32F002B_Firmware_V1.2.1/Drivers/CMSIS/Include/core_cm0plus.h **** 
 588:../../../PY32F002B_Firmware_V1.2.1/PY32F002B_Firmware_V1.2.1/Drivers/CMSIS/Include/core_cm0plus.h **** #define MPU_TYPE_SEPARATE_Pos               0U                                            /*!< MPU 
 589:../../../PY32F002B_Firmware_V1.2.1/PY32F002B_Firmware_V1.2.1/Drivers/CMSIS/Include/core_cm0plus.h **** #define MPU_TYPE_SEPARATE_Msk              (1UL /*<< MPU_TYPE_SEPARATE_Pos*/)             /*!< MPU 
ARM GAS  C:\Users\Gautam\AppData\Local\Temp\cchduyDh.s 			page 16


 590:../../../PY32F002B_Firmware_V1.2.1/PY32F002B_Firmware_V1.2.1/Drivers/CMSIS/Include/core_cm0plus.h **** 
 591:../../../PY32F002B_Firmware_V1.2.1/PY32F002B_Firmware_V1.2.1/Drivers/CMSIS/Include/core_cm0plus.h **** /* MPU Control Register Definitions */
 592:../../../PY32F002B_Firmware_V1.2.1/PY32F002B_Firmware_V1.2.1/Drivers/CMSIS/Include/core_cm0plus.h **** #define MPU_CTRL_PRIVDEFENA_Pos             2U                                            /*!< MPU 
 593:../../../PY32F002B_Firmware_V1.2.1/PY32F002B_Firmware_V1.2.1/Drivers/CMSIS/Include/core_cm0plus.h **** #define MPU_CTRL_PRIVDEFENA_Msk            (1UL << MPU_CTRL_PRIVDEFENA_Pos)               /*!< MPU 
 594:../../../PY32F002B_Firmware_V1.2.1/PY32F002B_Firmware_V1.2.1/Drivers/CMSIS/Include/core_cm0plus.h **** 
 595:../../../PY32F002B_Firmware_V1.2.1/PY32F002B_Firmware_V1.2.1/Drivers/CMSIS/Include/core_cm0plus.h **** #define MPU_CTRL_HFNMIENA_Pos               1U                                            /*!< MPU 
 596:../../../PY32F002B_Firmware_V1.2.1/PY32F002B_Firmware_V1.2.1/Drivers/CMSIS/Include/core_cm0plus.h **** #define MPU_CTRL_HFNMIENA_Msk              (1UL << MPU_CTRL_HFNMIENA_Pos)                 /*!< MPU 
 597:../../../PY32F002B_Firmware_V1.2.1/PY32F002B_Firmware_V1.2.1/Drivers/CMSIS/Include/core_cm0plus.h **** 
 598:../../../PY32F002B_Firmware_V1.2.1/PY32F002B_Firmware_V1.2.1/Drivers/CMSIS/Include/core_cm0plus.h **** #define MPU_CTRL_ENABLE_Pos                 0U                                            /*!< MPU 
 599:../../../PY32F002B_Firmware_V1.2.1/PY32F002B_Firmware_V1.2.1/Drivers/CMSIS/Include/core_cm0plus.h **** #define MPU_CTRL_ENABLE_Msk                (1UL /*<< MPU_CTRL_ENABLE_Pos*/)               /*!< MPU 
 600:../../../PY32F002B_Firmware_V1.2.1/PY32F002B_Firmware_V1.2.1/Drivers/CMSIS/Include/core_cm0plus.h **** 
 601:../../../PY32F002B_Firmware_V1.2.1/PY32F002B_Firmware_V1.2.1/Drivers/CMSIS/Include/core_cm0plus.h **** /* MPU Region Number Register Definitions */
 602:../../../PY32F002B_Firmware_V1.2.1/PY32F002B_Firmware_V1.2.1/Drivers/CMSIS/Include/core_cm0plus.h **** #define MPU_RNR_REGION_Pos                  0U                                            /*!< MPU 
 603:../../../PY32F002B_Firmware_V1.2.1/PY32F002B_Firmware_V1.2.1/Drivers/CMSIS/Include/core_cm0plus.h **** #define MPU_RNR_REGION_Msk                 (0xFFUL /*<< MPU_RNR_REGION_Pos*/)             /*!< MPU 
 604:../../../PY32F002B_Firmware_V1.2.1/PY32F002B_Firmware_V1.2.1/Drivers/CMSIS/Include/core_cm0plus.h **** 
 605:../../../PY32F002B_Firmware_V1.2.1/PY32F002B_Firmware_V1.2.1/Drivers/CMSIS/Include/core_cm0plus.h **** /* MPU Region Base Address Register Definitions */
 606:../../../PY32F002B_Firmware_V1.2.1/PY32F002B_Firmware_V1.2.1/Drivers/CMSIS/Include/core_cm0plus.h **** #define MPU_RBAR_ADDR_Pos                   8U                                            /*!< MPU 
 607:../../../PY32F002B_Firmware_V1.2.1/PY32F002B_Firmware_V1.2.1/Drivers/CMSIS/Include/core_cm0plus.h **** #define MPU_RBAR_ADDR_Msk                  (0xFFFFFFUL << MPU_RBAR_ADDR_Pos)              /*!< MPU 
 608:../../../PY32F002B_Firmware_V1.2.1/PY32F002B_Firmware_V1.2.1/Drivers/CMSIS/Include/core_cm0plus.h **** 
 609:../../../PY32F002B_Firmware_V1.2.1/PY32F002B_Firmware_V1.2.1/Drivers/CMSIS/Include/core_cm0plus.h **** #define MPU_RBAR_VALID_Pos                  4U                                            /*!< MPU 
 610:../../../PY32F002B_Firmware_V1.2.1/PY32F002B_Firmware_V1.2.1/Drivers/CMSIS/Include/core_cm0plus.h **** #define MPU_RBAR_VALID_Msk                 (1UL << MPU_RBAR_VALID_Pos)                    /*!< MPU 
 611:../../../PY32F002B_Firmware_V1.2.1/PY32F002B_Firmware_V1.2.1/Drivers/CMSIS/Include/core_cm0plus.h **** 
 612:../../../PY32F002B_Firmware_V1.2.1/PY32F002B_Firmware_V1.2.1/Drivers/CMSIS/Include/core_cm0plus.h **** #define MPU_RBAR_REGION_Pos                 0U                                            /*!< MPU 
 613:../../../PY32F002B_Firmware_V1.2.1/PY32F002B_Firmware_V1.2.1/Drivers/CMSIS/Include/core_cm0plus.h **** #define MPU_RBAR_REGION_Msk                (0xFUL /*<< MPU_RBAR_REGION_Pos*/)             /*!< MPU 
 614:../../../PY32F002B_Firmware_V1.2.1/PY32F002B_Firmware_V1.2.1/Drivers/CMSIS/Include/core_cm0plus.h **** 
 615:../../../PY32F002B_Firmware_V1.2.1/PY32F002B_Firmware_V1.2.1/Drivers/CMSIS/Include/core_cm0plus.h **** /* MPU Region Attribute and Size Register Definitions */
 616:../../../PY32F002B_Firmware_V1.2.1/PY32F002B_Firmware_V1.2.1/Drivers/CMSIS/Include/core_cm0plus.h **** #define MPU_RASR_ATTRS_Pos                 16U                                            /*!< MPU 
 617:../../../PY32F002B_Firmware_V1.2.1/PY32F002B_Firmware_V1.2.1/Drivers/CMSIS/Include/core_cm0plus.h **** #define MPU_RASR_ATTRS_Msk                 (0xFFFFUL << MPU_RASR_ATTRS_Pos)               /*!< MPU 
 618:../../../PY32F002B_Firmware_V1.2.1/PY32F002B_Firmware_V1.2.1/Drivers/CMSIS/Include/core_cm0plus.h **** 
 619:../../../PY32F002B_Firmware_V1.2.1/PY32F002B_Firmware_V1.2.1/Drivers/CMSIS/Include/core_cm0plus.h **** #define MPU_RASR_XN_Pos                    28U                                            /*!< MPU 
 620:../../../PY32F002B_Firmware_V1.2.1/PY32F002B_Firmware_V1.2.1/Drivers/CMSIS/Include/core_cm0plus.h **** #define MPU_RASR_XN_Msk                    (1UL << MPU_RASR_XN_Pos)                       /*!< MPU 
 621:../../../PY32F002B_Firmware_V1.2.1/PY32F002B_Firmware_V1.2.1/Drivers/CMSIS/Include/core_cm0plus.h **** 
 622:../../../PY32F002B_Firmware_V1.2.1/PY32F002B_Firmware_V1.2.1/Drivers/CMSIS/Include/core_cm0plus.h **** #define MPU_RASR_AP_Pos                    24U                                            /*!< MPU 
 623:../../../PY32F002B_Firmware_V1.2.1/PY32F002B_Firmware_V1.2.1/Drivers/CMSIS/Include/core_cm0plus.h **** #define MPU_RASR_AP_Msk                    (0x7UL << MPU_RASR_AP_Pos)                     /*!< MPU 
 624:../../../PY32F002B_Firmware_V1.2.1/PY32F002B_Firmware_V1.2.1/Drivers/CMSIS/Include/core_cm0plus.h **** 
 625:../../../PY32F002B_Firmware_V1.2.1/PY32F002B_Firmware_V1.2.1/Drivers/CMSIS/Include/core_cm0plus.h **** #define MPU_RASR_TEX_Pos                   19U                                            /*!< MPU 
 626:../../../PY32F002B_Firmware_V1.2.1/PY32F002B_Firmware_V1.2.1/Drivers/CMSIS/Include/core_cm0plus.h **** #define MPU_RASR_TEX_Msk                   (0x7UL << MPU_RASR_TEX_Pos)                    /*!< MPU 
 627:../../../PY32F002B_Firmware_V1.2.1/PY32F002B_Firmware_V1.2.1/Drivers/CMSIS/Include/core_cm0plus.h **** 
 628:../../../PY32F002B_Firmware_V1.2.1/PY32F002B_Firmware_V1.2.1/Drivers/CMSIS/Include/core_cm0plus.h **** #define MPU_RASR_S_Pos                     18U                                            /*!< MPU 
 629:../../../PY32F002B_Firmware_V1.2.1/PY32F002B_Firmware_V1.2.1/Drivers/CMSIS/Include/core_cm0plus.h **** #define MPU_RASR_S_Msk                     (1UL << MPU_RASR_S_Pos)                        /*!< MPU 
 630:../../../PY32F002B_Firmware_V1.2.1/PY32F002B_Firmware_V1.2.1/Drivers/CMSIS/Include/core_cm0plus.h **** 
 631:../../../PY32F002B_Firmware_V1.2.1/PY32F002B_Firmware_V1.2.1/Drivers/CMSIS/Include/core_cm0plus.h **** #define MPU_RASR_C_Pos                     17U                                            /*!< MPU 
 632:../../../PY32F002B_Firmware_V1.2.1/PY32F002B_Firmware_V1.2.1/Drivers/CMSIS/Include/core_cm0plus.h **** #define MPU_RASR_C_Msk                     (1UL << MPU_RASR_C_Pos)                        /*!< MPU 
 633:../../../PY32F002B_Firmware_V1.2.1/PY32F002B_Firmware_V1.2.1/Drivers/CMSIS/Include/core_cm0plus.h **** 
 634:../../../PY32F002B_Firmware_V1.2.1/PY32F002B_Firmware_V1.2.1/Drivers/CMSIS/Include/core_cm0plus.h **** #define MPU_RASR_B_Pos                     16U                                            /*!< MPU 
 635:../../../PY32F002B_Firmware_V1.2.1/PY32F002B_Firmware_V1.2.1/Drivers/CMSIS/Include/core_cm0plus.h **** #define MPU_RASR_B_Msk                     (1UL << MPU_RASR_B_Pos)                        /*!< MPU 
 636:../../../PY32F002B_Firmware_V1.2.1/PY32F002B_Firmware_V1.2.1/Drivers/CMSIS/Include/core_cm0plus.h **** 
 637:../../../PY32F002B_Firmware_V1.2.1/PY32F002B_Firmware_V1.2.1/Drivers/CMSIS/Include/core_cm0plus.h **** #define MPU_RASR_SRD_Pos                    8U                                            /*!< MPU 
 638:../../../PY32F002B_Firmware_V1.2.1/PY32F002B_Firmware_V1.2.1/Drivers/CMSIS/Include/core_cm0plus.h **** #define MPU_RASR_SRD_Msk                   (0xFFUL << MPU_RASR_SRD_Pos)                   /*!< MPU 
 639:../../../PY32F002B_Firmware_V1.2.1/PY32F002B_Firmware_V1.2.1/Drivers/CMSIS/Include/core_cm0plus.h **** 
 640:../../../PY32F002B_Firmware_V1.2.1/PY32F002B_Firmware_V1.2.1/Drivers/CMSIS/Include/core_cm0plus.h **** #define MPU_RASR_SIZE_Pos                   1U                                            /*!< MPU 
 641:../../../PY32F002B_Firmware_V1.2.1/PY32F002B_Firmware_V1.2.1/Drivers/CMSIS/Include/core_cm0plus.h **** #define MPU_RASR_SIZE_Msk                  (0x1FUL << MPU_RASR_SIZE_Pos)                  /*!< MPU 
 642:../../../PY32F002B_Firmware_V1.2.1/PY32F002B_Firmware_V1.2.1/Drivers/CMSIS/Include/core_cm0plus.h **** 
 643:../../../PY32F002B_Firmware_V1.2.1/PY32F002B_Firmware_V1.2.1/Drivers/CMSIS/Include/core_cm0plus.h **** #define MPU_RASR_ENABLE_Pos                 0U                                            /*!< MPU 
 644:../../../PY32F002B_Firmware_V1.2.1/PY32F002B_Firmware_V1.2.1/Drivers/CMSIS/Include/core_cm0plus.h **** #define MPU_RASR_ENABLE_Msk                (1UL /*<< MPU_RASR_ENABLE_Pos*/)               /*!< MPU 
 645:../../../PY32F002B_Firmware_V1.2.1/PY32F002B_Firmware_V1.2.1/Drivers/CMSIS/Include/core_cm0plus.h **** 
 646:../../../PY32F002B_Firmware_V1.2.1/PY32F002B_Firmware_V1.2.1/Drivers/CMSIS/Include/core_cm0plus.h **** /*@} end of group CMSIS_MPU */
ARM GAS  C:\Users\Gautam\AppData\Local\Temp\cchduyDh.s 			page 17


 647:../../../PY32F002B_Firmware_V1.2.1/PY32F002B_Firmware_V1.2.1/Drivers/CMSIS/Include/core_cm0plus.h **** #endif
 648:../../../PY32F002B_Firmware_V1.2.1/PY32F002B_Firmware_V1.2.1/Drivers/CMSIS/Include/core_cm0plus.h **** 
 649:../../../PY32F002B_Firmware_V1.2.1/PY32F002B_Firmware_V1.2.1/Drivers/CMSIS/Include/core_cm0plus.h **** 
 650:../../../PY32F002B_Firmware_V1.2.1/PY32F002B_Firmware_V1.2.1/Drivers/CMSIS/Include/core_cm0plus.h **** /**
 651:../../../PY32F002B_Firmware_V1.2.1/PY32F002B_Firmware_V1.2.1/Drivers/CMSIS/Include/core_cm0plus.h ****   \ingroup  CMSIS_core_register
 652:../../../PY32F002B_Firmware_V1.2.1/PY32F002B_Firmware_V1.2.1/Drivers/CMSIS/Include/core_cm0plus.h ****   \defgroup CMSIS_CoreDebug       Core Debug Registers (CoreDebug)
 653:../../../PY32F002B_Firmware_V1.2.1/PY32F002B_Firmware_V1.2.1/Drivers/CMSIS/Include/core_cm0plus.h ****   \brief    Cortex-M0+ Core Debug Registers (DCB registers, SHCSR, and DFSR) are only accessible ov
 654:../../../PY32F002B_Firmware_V1.2.1/PY32F002B_Firmware_V1.2.1/Drivers/CMSIS/Include/core_cm0plus.h ****             Therefore they are not covered by the Cortex-M0+ header file.
 655:../../../PY32F002B_Firmware_V1.2.1/PY32F002B_Firmware_V1.2.1/Drivers/CMSIS/Include/core_cm0plus.h ****   @{
 656:../../../PY32F002B_Firmware_V1.2.1/PY32F002B_Firmware_V1.2.1/Drivers/CMSIS/Include/core_cm0plus.h ****  */
 657:../../../PY32F002B_Firmware_V1.2.1/PY32F002B_Firmware_V1.2.1/Drivers/CMSIS/Include/core_cm0plus.h **** /*@} end of group CMSIS_CoreDebug */
 658:../../../PY32F002B_Firmware_V1.2.1/PY32F002B_Firmware_V1.2.1/Drivers/CMSIS/Include/core_cm0plus.h **** 
 659:../../../PY32F002B_Firmware_V1.2.1/PY32F002B_Firmware_V1.2.1/Drivers/CMSIS/Include/core_cm0plus.h **** 
 660:../../../PY32F002B_Firmware_V1.2.1/PY32F002B_Firmware_V1.2.1/Drivers/CMSIS/Include/core_cm0plus.h **** /**
 661:../../../PY32F002B_Firmware_V1.2.1/PY32F002B_Firmware_V1.2.1/Drivers/CMSIS/Include/core_cm0plus.h ****   \ingroup    CMSIS_core_register
 662:../../../PY32F002B_Firmware_V1.2.1/PY32F002B_Firmware_V1.2.1/Drivers/CMSIS/Include/core_cm0plus.h ****   \defgroup   CMSIS_core_bitfield     Core register bit field macros
 663:../../../PY32F002B_Firmware_V1.2.1/PY32F002B_Firmware_V1.2.1/Drivers/CMSIS/Include/core_cm0plus.h ****   \brief      Macros for use with bit field definitions (xxx_Pos, xxx_Msk).
 664:../../../PY32F002B_Firmware_V1.2.1/PY32F002B_Firmware_V1.2.1/Drivers/CMSIS/Include/core_cm0plus.h ****   @{
 665:../../../PY32F002B_Firmware_V1.2.1/PY32F002B_Firmware_V1.2.1/Drivers/CMSIS/Include/core_cm0plus.h ****  */
 666:../../../PY32F002B_Firmware_V1.2.1/PY32F002B_Firmware_V1.2.1/Drivers/CMSIS/Include/core_cm0plus.h **** 
 667:../../../PY32F002B_Firmware_V1.2.1/PY32F002B_Firmware_V1.2.1/Drivers/CMSIS/Include/core_cm0plus.h **** /**
 668:../../../PY32F002B_Firmware_V1.2.1/PY32F002B_Firmware_V1.2.1/Drivers/CMSIS/Include/core_cm0plus.h ****   \brief   Mask and shift a bit field value for use in a register bit range.
 669:../../../PY32F002B_Firmware_V1.2.1/PY32F002B_Firmware_V1.2.1/Drivers/CMSIS/Include/core_cm0plus.h ****   \param[in] field  Name of the register bit field.
 670:../../../PY32F002B_Firmware_V1.2.1/PY32F002B_Firmware_V1.2.1/Drivers/CMSIS/Include/core_cm0plus.h ****   \param[in] value  Value of the bit field.
 671:../../../PY32F002B_Firmware_V1.2.1/PY32F002B_Firmware_V1.2.1/Drivers/CMSIS/Include/core_cm0plus.h ****   \return           Masked and shifted value.
 672:../../../PY32F002B_Firmware_V1.2.1/PY32F002B_Firmware_V1.2.1/Drivers/CMSIS/Include/core_cm0plus.h **** */
 673:../../../PY32F002B_Firmware_V1.2.1/PY32F002B_Firmware_V1.2.1/Drivers/CMSIS/Include/core_cm0plus.h **** #define _VAL2FLD(field, value)    ((value << field ## _Pos) & field ## _Msk)
 674:../../../PY32F002B_Firmware_V1.2.1/PY32F002B_Firmware_V1.2.1/Drivers/CMSIS/Include/core_cm0plus.h **** 
 675:../../../PY32F002B_Firmware_V1.2.1/PY32F002B_Firmware_V1.2.1/Drivers/CMSIS/Include/core_cm0plus.h **** /**
 676:../../../PY32F002B_Firmware_V1.2.1/PY32F002B_Firmware_V1.2.1/Drivers/CMSIS/Include/core_cm0plus.h ****   \brief     Mask and shift a register value to extract a bit filed value.
 677:../../../PY32F002B_Firmware_V1.2.1/PY32F002B_Firmware_V1.2.1/Drivers/CMSIS/Include/core_cm0plus.h ****   \param[in] field  Name of the register bit field.
 678:../../../PY32F002B_Firmware_V1.2.1/PY32F002B_Firmware_V1.2.1/Drivers/CMSIS/Include/core_cm0plus.h ****   \param[in] value  Value of register.
 679:../../../PY32F002B_Firmware_V1.2.1/PY32F002B_Firmware_V1.2.1/Drivers/CMSIS/Include/core_cm0plus.h ****   \return           Masked and shifted bit field value.
 680:../../../PY32F002B_Firmware_V1.2.1/PY32F002B_Firmware_V1.2.1/Drivers/CMSIS/Include/core_cm0plus.h **** */
 681:../../../PY32F002B_Firmware_V1.2.1/PY32F002B_Firmware_V1.2.1/Drivers/CMSIS/Include/core_cm0plus.h **** #define _FLD2VAL(field, value)    ((value & field ## _Msk) >> field ## _Pos)
 682:../../../PY32F002B_Firmware_V1.2.1/PY32F002B_Firmware_V1.2.1/Drivers/CMSIS/Include/core_cm0plus.h **** 
 683:../../../PY32F002B_Firmware_V1.2.1/PY32F002B_Firmware_V1.2.1/Drivers/CMSIS/Include/core_cm0plus.h **** /*@} end of group CMSIS_core_bitfield */
 684:../../../PY32F002B_Firmware_V1.2.1/PY32F002B_Firmware_V1.2.1/Drivers/CMSIS/Include/core_cm0plus.h **** 
 685:../../../PY32F002B_Firmware_V1.2.1/PY32F002B_Firmware_V1.2.1/Drivers/CMSIS/Include/core_cm0plus.h **** 
 686:../../../PY32F002B_Firmware_V1.2.1/PY32F002B_Firmware_V1.2.1/Drivers/CMSIS/Include/core_cm0plus.h **** /**
 687:../../../PY32F002B_Firmware_V1.2.1/PY32F002B_Firmware_V1.2.1/Drivers/CMSIS/Include/core_cm0plus.h ****   \ingroup    CMSIS_core_register
 688:../../../PY32F002B_Firmware_V1.2.1/PY32F002B_Firmware_V1.2.1/Drivers/CMSIS/Include/core_cm0plus.h ****   \defgroup   CMSIS_core_base     Core Definitions
 689:../../../PY32F002B_Firmware_V1.2.1/PY32F002B_Firmware_V1.2.1/Drivers/CMSIS/Include/core_cm0plus.h ****   \brief      Definitions for base addresses, unions, and structures.
 690:../../../PY32F002B_Firmware_V1.2.1/PY32F002B_Firmware_V1.2.1/Drivers/CMSIS/Include/core_cm0plus.h ****   @{
 691:../../../PY32F002B_Firmware_V1.2.1/PY32F002B_Firmware_V1.2.1/Drivers/CMSIS/Include/core_cm0plus.h ****  */
 692:../../../PY32F002B_Firmware_V1.2.1/PY32F002B_Firmware_V1.2.1/Drivers/CMSIS/Include/core_cm0plus.h **** 
 693:../../../PY32F002B_Firmware_V1.2.1/PY32F002B_Firmware_V1.2.1/Drivers/CMSIS/Include/core_cm0plus.h **** /* Memory mapping of Cortex-M0+ Hardware */
 694:../../../PY32F002B_Firmware_V1.2.1/PY32F002B_Firmware_V1.2.1/Drivers/CMSIS/Include/core_cm0plus.h **** #define SCS_BASE            (0xE000E000UL)                            /*!< System Control Space Bas
 695:../../../PY32F002B_Firmware_V1.2.1/PY32F002B_Firmware_V1.2.1/Drivers/CMSIS/Include/core_cm0plus.h **** #define SysTick_BASE        (SCS_BASE +  0x0010UL)                    /*!< SysTick Base Address */
 696:../../../PY32F002B_Firmware_V1.2.1/PY32F002B_Firmware_V1.2.1/Drivers/CMSIS/Include/core_cm0plus.h **** #define NVIC_BASE           (SCS_BASE +  0x0100UL)                    /*!< NVIC Base Address */
 697:../../../PY32F002B_Firmware_V1.2.1/PY32F002B_Firmware_V1.2.1/Drivers/CMSIS/Include/core_cm0plus.h **** #define SCB_BASE            (SCS_BASE +  0x0D00UL)                    /*!< System Control Block Bas
 698:../../../PY32F002B_Firmware_V1.2.1/PY32F002B_Firmware_V1.2.1/Drivers/CMSIS/Include/core_cm0plus.h **** 
 699:../../../PY32F002B_Firmware_V1.2.1/PY32F002B_Firmware_V1.2.1/Drivers/CMSIS/Include/core_cm0plus.h **** #define SCB                 ((SCB_Type       *)     SCB_BASE      )   /*!< SCB configuration struct
 700:../../../PY32F002B_Firmware_V1.2.1/PY32F002B_Firmware_V1.2.1/Drivers/CMSIS/Include/core_cm0plus.h **** #define SysTick             ((SysTick_Type   *)     SysTick_BASE  )   /*!< SysTick configuration st
 701:../../../PY32F002B_Firmware_V1.2.1/PY32F002B_Firmware_V1.2.1/Drivers/CMSIS/Include/core_cm0plus.h **** #define NVIC                ((NVIC_Type      *)     NVIC_BASE     )   /*!< NVIC configuration struc
 702:../../../PY32F002B_Firmware_V1.2.1/PY32F002B_Firmware_V1.2.1/Drivers/CMSIS/Include/core_cm0plus.h **** 
 703:../../../PY32F002B_Firmware_V1.2.1/PY32F002B_Firmware_V1.2.1/Drivers/CMSIS/Include/core_cm0plus.h **** #if (__MPU_PRESENT == 1U)
ARM GAS  C:\Users\Gautam\AppData\Local\Temp\cchduyDh.s 			page 18


 704:../../../PY32F002B_Firmware_V1.2.1/PY32F002B_Firmware_V1.2.1/Drivers/CMSIS/Include/core_cm0plus.h ****   #define MPU_BASE          (SCS_BASE +  0x0D90UL)                    /*!< Memory Protection Unit *
 705:../../../PY32F002B_Firmware_V1.2.1/PY32F002B_Firmware_V1.2.1/Drivers/CMSIS/Include/core_cm0plus.h ****   #define MPU               ((MPU_Type       *)     MPU_BASE      )   /*!< Memory Protection Unit *
 706:../../../PY32F002B_Firmware_V1.2.1/PY32F002B_Firmware_V1.2.1/Drivers/CMSIS/Include/core_cm0plus.h **** #endif
 707:../../../PY32F002B_Firmware_V1.2.1/PY32F002B_Firmware_V1.2.1/Drivers/CMSIS/Include/core_cm0plus.h **** 
 708:../../../PY32F002B_Firmware_V1.2.1/PY32F002B_Firmware_V1.2.1/Drivers/CMSIS/Include/core_cm0plus.h **** /*@} */
 709:../../../PY32F002B_Firmware_V1.2.1/PY32F002B_Firmware_V1.2.1/Drivers/CMSIS/Include/core_cm0plus.h **** 
 710:../../../PY32F002B_Firmware_V1.2.1/PY32F002B_Firmware_V1.2.1/Drivers/CMSIS/Include/core_cm0plus.h **** 
 711:../../../PY32F002B_Firmware_V1.2.1/PY32F002B_Firmware_V1.2.1/Drivers/CMSIS/Include/core_cm0plus.h **** 
 712:../../../PY32F002B_Firmware_V1.2.1/PY32F002B_Firmware_V1.2.1/Drivers/CMSIS/Include/core_cm0plus.h **** /*******************************************************************************
 713:../../../PY32F002B_Firmware_V1.2.1/PY32F002B_Firmware_V1.2.1/Drivers/CMSIS/Include/core_cm0plus.h ****  *                Hardware Abstraction Layer
 714:../../../PY32F002B_Firmware_V1.2.1/PY32F002B_Firmware_V1.2.1/Drivers/CMSIS/Include/core_cm0plus.h ****   Core Function Interface contains:
 715:../../../PY32F002B_Firmware_V1.2.1/PY32F002B_Firmware_V1.2.1/Drivers/CMSIS/Include/core_cm0plus.h ****   - Core NVIC Functions
 716:../../../PY32F002B_Firmware_V1.2.1/PY32F002B_Firmware_V1.2.1/Drivers/CMSIS/Include/core_cm0plus.h ****   - Core SysTick Functions
 717:../../../PY32F002B_Firmware_V1.2.1/PY32F002B_Firmware_V1.2.1/Drivers/CMSIS/Include/core_cm0plus.h ****   - Core Register Access Functions
 718:../../../PY32F002B_Firmware_V1.2.1/PY32F002B_Firmware_V1.2.1/Drivers/CMSIS/Include/core_cm0plus.h ****  ******************************************************************************/
 719:../../../PY32F002B_Firmware_V1.2.1/PY32F002B_Firmware_V1.2.1/Drivers/CMSIS/Include/core_cm0plus.h **** /**
 720:../../../PY32F002B_Firmware_V1.2.1/PY32F002B_Firmware_V1.2.1/Drivers/CMSIS/Include/core_cm0plus.h ****   \defgroup CMSIS_Core_FunctionInterface Functions and Instructions Reference
 721:../../../PY32F002B_Firmware_V1.2.1/PY32F002B_Firmware_V1.2.1/Drivers/CMSIS/Include/core_cm0plus.h **** */
 722:../../../PY32F002B_Firmware_V1.2.1/PY32F002B_Firmware_V1.2.1/Drivers/CMSIS/Include/core_cm0plus.h **** 
 723:../../../PY32F002B_Firmware_V1.2.1/PY32F002B_Firmware_V1.2.1/Drivers/CMSIS/Include/core_cm0plus.h **** 
 724:../../../PY32F002B_Firmware_V1.2.1/PY32F002B_Firmware_V1.2.1/Drivers/CMSIS/Include/core_cm0plus.h **** 
 725:../../../PY32F002B_Firmware_V1.2.1/PY32F002B_Firmware_V1.2.1/Drivers/CMSIS/Include/core_cm0plus.h **** /* ##########################   NVIC functions  #################################### */
 726:../../../PY32F002B_Firmware_V1.2.1/PY32F002B_Firmware_V1.2.1/Drivers/CMSIS/Include/core_cm0plus.h **** /**
 727:../../../PY32F002B_Firmware_V1.2.1/PY32F002B_Firmware_V1.2.1/Drivers/CMSIS/Include/core_cm0plus.h ****   \ingroup  CMSIS_Core_FunctionInterface
 728:../../../PY32F002B_Firmware_V1.2.1/PY32F002B_Firmware_V1.2.1/Drivers/CMSIS/Include/core_cm0plus.h ****   \defgroup CMSIS_Core_NVICFunctions NVIC Functions
 729:../../../PY32F002B_Firmware_V1.2.1/PY32F002B_Firmware_V1.2.1/Drivers/CMSIS/Include/core_cm0plus.h ****   \brief    Functions that manage interrupts and exceptions via the NVIC.
 730:../../../PY32F002B_Firmware_V1.2.1/PY32F002B_Firmware_V1.2.1/Drivers/CMSIS/Include/core_cm0plus.h ****   @{
 731:../../../PY32F002B_Firmware_V1.2.1/PY32F002B_Firmware_V1.2.1/Drivers/CMSIS/Include/core_cm0plus.h ****  */
 732:../../../PY32F002B_Firmware_V1.2.1/PY32F002B_Firmware_V1.2.1/Drivers/CMSIS/Include/core_cm0plus.h **** 
 733:../../../PY32F002B_Firmware_V1.2.1/PY32F002B_Firmware_V1.2.1/Drivers/CMSIS/Include/core_cm0plus.h **** /* Interrupt Priorities are WORD accessible only under ARMv6M                   */
 734:../../../PY32F002B_Firmware_V1.2.1/PY32F002B_Firmware_V1.2.1/Drivers/CMSIS/Include/core_cm0plus.h **** /* The following MACROS handle generation of the register offset and byte masks */
 735:../../../PY32F002B_Firmware_V1.2.1/PY32F002B_Firmware_V1.2.1/Drivers/CMSIS/Include/core_cm0plus.h **** #define _BIT_SHIFT(IRQn)         (  ((((uint32_t)(int32_t)(IRQn))         )      &  0x03UL) * 8UL)
 736:../../../PY32F002B_Firmware_V1.2.1/PY32F002B_Firmware_V1.2.1/Drivers/CMSIS/Include/core_cm0plus.h **** #define _SHP_IDX(IRQn)           ( (((((uint32_t)(int32_t)(IRQn)) & 0x0FUL)-8UL) >>    2UL)      )
 737:../../../PY32F002B_Firmware_V1.2.1/PY32F002B_Firmware_V1.2.1/Drivers/CMSIS/Include/core_cm0plus.h **** #define _IP_IDX(IRQn)            (   (((uint32_t)(int32_t)(IRQn))                >>    2UL)      )
 738:../../../PY32F002B_Firmware_V1.2.1/PY32F002B_Firmware_V1.2.1/Drivers/CMSIS/Include/core_cm0plus.h **** 
 739:../../../PY32F002B_Firmware_V1.2.1/PY32F002B_Firmware_V1.2.1/Drivers/CMSIS/Include/core_cm0plus.h **** 
 740:../../../PY32F002B_Firmware_V1.2.1/PY32F002B_Firmware_V1.2.1/Drivers/CMSIS/Include/core_cm0plus.h **** /**
 741:../../../PY32F002B_Firmware_V1.2.1/PY32F002B_Firmware_V1.2.1/Drivers/CMSIS/Include/core_cm0plus.h ****   \brief   Enable External Interrupt
 742:../../../PY32F002B_Firmware_V1.2.1/PY32F002B_Firmware_V1.2.1/Drivers/CMSIS/Include/core_cm0plus.h ****   \details Enables a device-specific interrupt in the NVIC interrupt controller.
 743:../../../PY32F002B_Firmware_V1.2.1/PY32F002B_Firmware_V1.2.1/Drivers/CMSIS/Include/core_cm0plus.h ****   \param [in]      IRQn  External interrupt number. Value cannot be negative.
 744:../../../PY32F002B_Firmware_V1.2.1/PY32F002B_Firmware_V1.2.1/Drivers/CMSIS/Include/core_cm0plus.h ****  */
 745:../../../PY32F002B_Firmware_V1.2.1/PY32F002B_Firmware_V1.2.1/Drivers/CMSIS/Include/core_cm0plus.h **** __STATIC_INLINE void NVIC_EnableIRQ(IRQn_Type IRQn)
 746:../../../PY32F002B_Firmware_V1.2.1/PY32F002B_Firmware_V1.2.1/Drivers/CMSIS/Include/core_cm0plus.h **** {
 747:../../../PY32F002B_Firmware_V1.2.1/PY32F002B_Firmware_V1.2.1/Drivers/CMSIS/Include/core_cm0plus.h ****   NVIC->ISER[0U] = (uint32_t)(1UL << (((uint32_t)(int32_t)IRQn) & 0x1FUL));
 748:../../../PY32F002B_Firmware_V1.2.1/PY32F002B_Firmware_V1.2.1/Drivers/CMSIS/Include/core_cm0plus.h **** }
 749:../../../PY32F002B_Firmware_V1.2.1/PY32F002B_Firmware_V1.2.1/Drivers/CMSIS/Include/core_cm0plus.h **** 
 750:../../../PY32F002B_Firmware_V1.2.1/PY32F002B_Firmware_V1.2.1/Drivers/CMSIS/Include/core_cm0plus.h **** 
 751:../../../PY32F002B_Firmware_V1.2.1/PY32F002B_Firmware_V1.2.1/Drivers/CMSIS/Include/core_cm0plus.h **** /**
 752:../../../PY32F002B_Firmware_V1.2.1/PY32F002B_Firmware_V1.2.1/Drivers/CMSIS/Include/core_cm0plus.h ****   \brief   Disable External Interrupt
 753:../../../PY32F002B_Firmware_V1.2.1/PY32F002B_Firmware_V1.2.1/Drivers/CMSIS/Include/core_cm0plus.h ****   \details Disables a device-specific interrupt in the NVIC interrupt controller.
 754:../../../PY32F002B_Firmware_V1.2.1/PY32F002B_Firmware_V1.2.1/Drivers/CMSIS/Include/core_cm0plus.h ****   \param [in]      IRQn  External interrupt number. Value cannot be negative.
 755:../../../PY32F002B_Firmware_V1.2.1/PY32F002B_Firmware_V1.2.1/Drivers/CMSIS/Include/core_cm0plus.h ****  */
 756:../../../PY32F002B_Firmware_V1.2.1/PY32F002B_Firmware_V1.2.1/Drivers/CMSIS/Include/core_cm0plus.h **** __STATIC_INLINE void NVIC_DisableIRQ(IRQn_Type IRQn)
 757:../../../PY32F002B_Firmware_V1.2.1/PY32F002B_Firmware_V1.2.1/Drivers/CMSIS/Include/core_cm0plus.h **** {
 758:../../../PY32F002B_Firmware_V1.2.1/PY32F002B_Firmware_V1.2.1/Drivers/CMSIS/Include/core_cm0plus.h ****   NVIC->ICER[0U] = (uint32_t)(1UL << (((uint32_t)(int32_t)IRQn) & 0x1FUL));
 759:../../../PY32F002B_Firmware_V1.2.1/PY32F002B_Firmware_V1.2.1/Drivers/CMSIS/Include/core_cm0plus.h **** }
 760:../../../PY32F002B_Firmware_V1.2.1/PY32F002B_Firmware_V1.2.1/Drivers/CMSIS/Include/core_cm0plus.h **** 
ARM GAS  C:\Users\Gautam\AppData\Local\Temp\cchduyDh.s 			page 19


 761:../../../PY32F002B_Firmware_V1.2.1/PY32F002B_Firmware_V1.2.1/Drivers/CMSIS/Include/core_cm0plus.h **** 
 762:../../../PY32F002B_Firmware_V1.2.1/PY32F002B_Firmware_V1.2.1/Drivers/CMSIS/Include/core_cm0plus.h **** /**
 763:../../../PY32F002B_Firmware_V1.2.1/PY32F002B_Firmware_V1.2.1/Drivers/CMSIS/Include/core_cm0plus.h ****   \brief   Get Pending Interrupt
 764:../../../PY32F002B_Firmware_V1.2.1/PY32F002B_Firmware_V1.2.1/Drivers/CMSIS/Include/core_cm0plus.h ****   \details Reads the pending register in the NVIC and returns the pending bit for the specified int
 765:../../../PY32F002B_Firmware_V1.2.1/PY32F002B_Firmware_V1.2.1/Drivers/CMSIS/Include/core_cm0plus.h ****   \param [in]      IRQn  Interrupt number.
 766:../../../PY32F002B_Firmware_V1.2.1/PY32F002B_Firmware_V1.2.1/Drivers/CMSIS/Include/core_cm0plus.h ****   \return             0  Interrupt status is not pending.
 767:../../../PY32F002B_Firmware_V1.2.1/PY32F002B_Firmware_V1.2.1/Drivers/CMSIS/Include/core_cm0plus.h ****   \return             1  Interrupt status is pending.
 768:../../../PY32F002B_Firmware_V1.2.1/PY32F002B_Firmware_V1.2.1/Drivers/CMSIS/Include/core_cm0plus.h ****  */
 769:../../../PY32F002B_Firmware_V1.2.1/PY32F002B_Firmware_V1.2.1/Drivers/CMSIS/Include/core_cm0plus.h **** __STATIC_INLINE uint32_t NVIC_GetPendingIRQ(IRQn_Type IRQn)
 770:../../../PY32F002B_Firmware_V1.2.1/PY32F002B_Firmware_V1.2.1/Drivers/CMSIS/Include/core_cm0plus.h **** {
 771:../../../PY32F002B_Firmware_V1.2.1/PY32F002B_Firmware_V1.2.1/Drivers/CMSIS/Include/core_cm0plus.h ****   return((uint32_t)(((NVIC->ISPR[0U] & (1UL << (((uint32_t)(int32_t)IRQn) & 0x1FUL))) != 0UL) ? 1UL
 772:../../../PY32F002B_Firmware_V1.2.1/PY32F002B_Firmware_V1.2.1/Drivers/CMSIS/Include/core_cm0plus.h **** }
 773:../../../PY32F002B_Firmware_V1.2.1/PY32F002B_Firmware_V1.2.1/Drivers/CMSIS/Include/core_cm0plus.h **** 
 774:../../../PY32F002B_Firmware_V1.2.1/PY32F002B_Firmware_V1.2.1/Drivers/CMSIS/Include/core_cm0plus.h **** 
 775:../../../PY32F002B_Firmware_V1.2.1/PY32F002B_Firmware_V1.2.1/Drivers/CMSIS/Include/core_cm0plus.h **** /**
 776:../../../PY32F002B_Firmware_V1.2.1/PY32F002B_Firmware_V1.2.1/Drivers/CMSIS/Include/core_cm0plus.h ****   \brief   Set Pending Interrupt
 777:../../../PY32F002B_Firmware_V1.2.1/PY32F002B_Firmware_V1.2.1/Drivers/CMSIS/Include/core_cm0plus.h ****   \details Sets the pending bit of an external interrupt.
 778:../../../PY32F002B_Firmware_V1.2.1/PY32F002B_Firmware_V1.2.1/Drivers/CMSIS/Include/core_cm0plus.h ****   \param [in]      IRQn  Interrupt number. Value cannot be negative.
 779:../../../PY32F002B_Firmware_V1.2.1/PY32F002B_Firmware_V1.2.1/Drivers/CMSIS/Include/core_cm0plus.h ****  */
 780:../../../PY32F002B_Firmware_V1.2.1/PY32F002B_Firmware_V1.2.1/Drivers/CMSIS/Include/core_cm0plus.h **** __STATIC_INLINE void NVIC_SetPendingIRQ(IRQn_Type IRQn)
 781:../../../PY32F002B_Firmware_V1.2.1/PY32F002B_Firmware_V1.2.1/Drivers/CMSIS/Include/core_cm0plus.h **** {
 782:../../../PY32F002B_Firmware_V1.2.1/PY32F002B_Firmware_V1.2.1/Drivers/CMSIS/Include/core_cm0plus.h ****   NVIC->ISPR[0U] = (uint32_t)(1UL << (((uint32_t)(int32_t)IRQn) & 0x1FUL));
 783:../../../PY32F002B_Firmware_V1.2.1/PY32F002B_Firmware_V1.2.1/Drivers/CMSIS/Include/core_cm0plus.h **** }
 784:../../../PY32F002B_Firmware_V1.2.1/PY32F002B_Firmware_V1.2.1/Drivers/CMSIS/Include/core_cm0plus.h **** 
 785:../../../PY32F002B_Firmware_V1.2.1/PY32F002B_Firmware_V1.2.1/Drivers/CMSIS/Include/core_cm0plus.h **** 
 786:../../../PY32F002B_Firmware_V1.2.1/PY32F002B_Firmware_V1.2.1/Drivers/CMSIS/Include/core_cm0plus.h **** /**
 787:../../../PY32F002B_Firmware_V1.2.1/PY32F002B_Firmware_V1.2.1/Drivers/CMSIS/Include/core_cm0plus.h ****   \brief   Clear Pending Interrupt
 788:../../../PY32F002B_Firmware_V1.2.1/PY32F002B_Firmware_V1.2.1/Drivers/CMSIS/Include/core_cm0plus.h ****   \details Clears the pending bit of an external interrupt.
 789:../../../PY32F002B_Firmware_V1.2.1/PY32F002B_Firmware_V1.2.1/Drivers/CMSIS/Include/core_cm0plus.h ****   \param [in]      IRQn  External interrupt number. Value cannot be negative.
 790:../../../PY32F002B_Firmware_V1.2.1/PY32F002B_Firmware_V1.2.1/Drivers/CMSIS/Include/core_cm0plus.h ****  */
 791:../../../PY32F002B_Firmware_V1.2.1/PY32F002B_Firmware_V1.2.1/Drivers/CMSIS/Include/core_cm0plus.h **** __STATIC_INLINE void NVIC_ClearPendingIRQ(IRQn_Type IRQn)
 792:../../../PY32F002B_Firmware_V1.2.1/PY32F002B_Firmware_V1.2.1/Drivers/CMSIS/Include/core_cm0plus.h **** {
 793:../../../PY32F002B_Firmware_V1.2.1/PY32F002B_Firmware_V1.2.1/Drivers/CMSIS/Include/core_cm0plus.h ****   NVIC->ICPR[0U] = (uint32_t)(1UL << (((uint32_t)(int32_t)IRQn) & 0x1FUL));
 794:../../../PY32F002B_Firmware_V1.2.1/PY32F002B_Firmware_V1.2.1/Drivers/CMSIS/Include/core_cm0plus.h **** }
 795:../../../PY32F002B_Firmware_V1.2.1/PY32F002B_Firmware_V1.2.1/Drivers/CMSIS/Include/core_cm0plus.h **** 
 796:../../../PY32F002B_Firmware_V1.2.1/PY32F002B_Firmware_V1.2.1/Drivers/CMSIS/Include/core_cm0plus.h **** 
 797:../../../PY32F002B_Firmware_V1.2.1/PY32F002B_Firmware_V1.2.1/Drivers/CMSIS/Include/core_cm0plus.h **** /**
 798:../../../PY32F002B_Firmware_V1.2.1/PY32F002B_Firmware_V1.2.1/Drivers/CMSIS/Include/core_cm0plus.h ****   \brief   Set Interrupt Priority
 799:../../../PY32F002B_Firmware_V1.2.1/PY32F002B_Firmware_V1.2.1/Drivers/CMSIS/Include/core_cm0plus.h ****   \details Sets the priority of an interrupt.
 800:../../../PY32F002B_Firmware_V1.2.1/PY32F002B_Firmware_V1.2.1/Drivers/CMSIS/Include/core_cm0plus.h ****   \note    The priority cannot be set for every core interrupt.
 801:../../../PY32F002B_Firmware_V1.2.1/PY32F002B_Firmware_V1.2.1/Drivers/CMSIS/Include/core_cm0plus.h ****   \param [in]      IRQn  Interrupt number.
 802:../../../PY32F002B_Firmware_V1.2.1/PY32F002B_Firmware_V1.2.1/Drivers/CMSIS/Include/core_cm0plus.h ****   \param [in]  priority  Priority to set.
 803:../../../PY32F002B_Firmware_V1.2.1/PY32F002B_Firmware_V1.2.1/Drivers/CMSIS/Include/core_cm0plus.h ****  */
 804:../../../PY32F002B_Firmware_V1.2.1/PY32F002B_Firmware_V1.2.1/Drivers/CMSIS/Include/core_cm0plus.h **** __STATIC_INLINE void NVIC_SetPriority(IRQn_Type IRQn, uint32_t priority)
 805:../../../PY32F002B_Firmware_V1.2.1/PY32F002B_Firmware_V1.2.1/Drivers/CMSIS/Include/core_cm0plus.h **** {
 806:../../../PY32F002B_Firmware_V1.2.1/PY32F002B_Firmware_V1.2.1/Drivers/CMSIS/Include/core_cm0plus.h ****   if ((int32_t)(IRQn) < 0)
 807:../../../PY32F002B_Firmware_V1.2.1/PY32F002B_Firmware_V1.2.1/Drivers/CMSIS/Include/core_cm0plus.h ****   {
 808:../../../PY32F002B_Firmware_V1.2.1/PY32F002B_Firmware_V1.2.1/Drivers/CMSIS/Include/core_cm0plus.h ****     SCB->SHP[_SHP_IDX(IRQn)] = ((uint32_t)(SCB->SHP[_SHP_IDX(IRQn)] & ~(0xFFUL << _BIT_SHIFT(IRQn))
 809:../../../PY32F002B_Firmware_V1.2.1/PY32F002B_Firmware_V1.2.1/Drivers/CMSIS/Include/core_cm0plus.h ****        (((priority << (8U - __NVIC_PRIO_BITS)) & (uint32_t)0xFFUL) << _BIT_SHIFT(IRQn)));
 810:../../../PY32F002B_Firmware_V1.2.1/PY32F002B_Firmware_V1.2.1/Drivers/CMSIS/Include/core_cm0plus.h ****   }
 811:../../../PY32F002B_Firmware_V1.2.1/PY32F002B_Firmware_V1.2.1/Drivers/CMSIS/Include/core_cm0plus.h ****   else
 812:../../../PY32F002B_Firmware_V1.2.1/PY32F002B_Firmware_V1.2.1/Drivers/CMSIS/Include/core_cm0plus.h ****   {
 813:../../../PY32F002B_Firmware_V1.2.1/PY32F002B_Firmware_V1.2.1/Drivers/CMSIS/Include/core_cm0plus.h ****     NVIC->IP[_IP_IDX(IRQn)]  = ((uint32_t)(NVIC->IP[_IP_IDX(IRQn)]  & ~(0xFFUL << _BIT_SHIFT(IRQn))
 814:../../../PY32F002B_Firmware_V1.2.1/PY32F002B_Firmware_V1.2.1/Drivers/CMSIS/Include/core_cm0plus.h ****        (((priority << (8U - __NVIC_PRIO_BITS)) & (uint32_t)0xFFUL) << _BIT_SHIFT(IRQn)));
 815:../../../PY32F002B_Firmware_V1.2.1/PY32F002B_Firmware_V1.2.1/Drivers/CMSIS/Include/core_cm0plus.h ****   }
 816:../../../PY32F002B_Firmware_V1.2.1/PY32F002B_Firmware_V1.2.1/Drivers/CMSIS/Include/core_cm0plus.h **** }
 817:../../../PY32F002B_Firmware_V1.2.1/PY32F002B_Firmware_V1.2.1/Drivers/CMSIS/Include/core_cm0plus.h **** 
ARM GAS  C:\Users\Gautam\AppData\Local\Temp\cchduyDh.s 			page 20


 818:../../../PY32F002B_Firmware_V1.2.1/PY32F002B_Firmware_V1.2.1/Drivers/CMSIS/Include/core_cm0plus.h **** 
 819:../../../PY32F002B_Firmware_V1.2.1/PY32F002B_Firmware_V1.2.1/Drivers/CMSIS/Include/core_cm0plus.h **** /**
 820:../../../PY32F002B_Firmware_V1.2.1/PY32F002B_Firmware_V1.2.1/Drivers/CMSIS/Include/core_cm0plus.h ****   \brief   Get Interrupt Priority
 821:../../../PY32F002B_Firmware_V1.2.1/PY32F002B_Firmware_V1.2.1/Drivers/CMSIS/Include/core_cm0plus.h ****   \details Reads the priority of an interrupt.
 822:../../../PY32F002B_Firmware_V1.2.1/PY32F002B_Firmware_V1.2.1/Drivers/CMSIS/Include/core_cm0plus.h ****            The interrupt number can be positive to specify an external (device specific) interrupt,
 823:../../../PY32F002B_Firmware_V1.2.1/PY32F002B_Firmware_V1.2.1/Drivers/CMSIS/Include/core_cm0plus.h ****            or negative to specify an internal (core) interrupt.
 824:../../../PY32F002B_Firmware_V1.2.1/PY32F002B_Firmware_V1.2.1/Drivers/CMSIS/Include/core_cm0plus.h ****   \param [in]   IRQn  Interrupt number.
 825:../../../PY32F002B_Firmware_V1.2.1/PY32F002B_Firmware_V1.2.1/Drivers/CMSIS/Include/core_cm0plus.h ****   \return             Interrupt Priority.
 826:../../../PY32F002B_Firmware_V1.2.1/PY32F002B_Firmware_V1.2.1/Drivers/CMSIS/Include/core_cm0plus.h ****                       Value is aligned automatically to the implemented priority bits of the microc
 827:../../../PY32F002B_Firmware_V1.2.1/PY32F002B_Firmware_V1.2.1/Drivers/CMSIS/Include/core_cm0plus.h ****  */
 828:../../../PY32F002B_Firmware_V1.2.1/PY32F002B_Firmware_V1.2.1/Drivers/CMSIS/Include/core_cm0plus.h **** __STATIC_INLINE uint32_t NVIC_GetPriority(IRQn_Type IRQn)
 829:../../../PY32F002B_Firmware_V1.2.1/PY32F002B_Firmware_V1.2.1/Drivers/CMSIS/Include/core_cm0plus.h **** {
 830:../../../PY32F002B_Firmware_V1.2.1/PY32F002B_Firmware_V1.2.1/Drivers/CMSIS/Include/core_cm0plus.h **** 
 831:../../../PY32F002B_Firmware_V1.2.1/PY32F002B_Firmware_V1.2.1/Drivers/CMSIS/Include/core_cm0plus.h ****   if ((int32_t)(IRQn) < 0)
 832:../../../PY32F002B_Firmware_V1.2.1/PY32F002B_Firmware_V1.2.1/Drivers/CMSIS/Include/core_cm0plus.h ****   {
 833:../../../PY32F002B_Firmware_V1.2.1/PY32F002B_Firmware_V1.2.1/Drivers/CMSIS/Include/core_cm0plus.h ****     return((uint32_t)(((SCB->SHP[_SHP_IDX(IRQn)] >> _BIT_SHIFT(IRQn) ) & (uint32_t)0xFFUL) >> (8U -
 834:../../../PY32F002B_Firmware_V1.2.1/PY32F002B_Firmware_V1.2.1/Drivers/CMSIS/Include/core_cm0plus.h ****   }
 835:../../../PY32F002B_Firmware_V1.2.1/PY32F002B_Firmware_V1.2.1/Drivers/CMSIS/Include/core_cm0plus.h ****   else
 836:../../../PY32F002B_Firmware_V1.2.1/PY32F002B_Firmware_V1.2.1/Drivers/CMSIS/Include/core_cm0plus.h ****   {
 837:../../../PY32F002B_Firmware_V1.2.1/PY32F002B_Firmware_V1.2.1/Drivers/CMSIS/Include/core_cm0plus.h ****     return((uint32_t)(((NVIC->IP[ _IP_IDX(IRQn)] >> _BIT_SHIFT(IRQn) ) & (uint32_t)0xFFUL) >> (8U -
 838:../../../PY32F002B_Firmware_V1.2.1/PY32F002B_Firmware_V1.2.1/Drivers/CMSIS/Include/core_cm0plus.h ****   }
 839:../../../PY32F002B_Firmware_V1.2.1/PY32F002B_Firmware_V1.2.1/Drivers/CMSIS/Include/core_cm0plus.h **** }
 840:../../../PY32F002B_Firmware_V1.2.1/PY32F002B_Firmware_V1.2.1/Drivers/CMSIS/Include/core_cm0plus.h **** 
 841:../../../PY32F002B_Firmware_V1.2.1/PY32F002B_Firmware_V1.2.1/Drivers/CMSIS/Include/core_cm0plus.h **** 
 842:../../../PY32F002B_Firmware_V1.2.1/PY32F002B_Firmware_V1.2.1/Drivers/CMSIS/Include/core_cm0plus.h **** /**
 843:../../../PY32F002B_Firmware_V1.2.1/PY32F002B_Firmware_V1.2.1/Drivers/CMSIS/Include/core_cm0plus.h ****   \brief   System Reset
 844:../../../PY32F002B_Firmware_V1.2.1/PY32F002B_Firmware_V1.2.1/Drivers/CMSIS/Include/core_cm0plus.h ****   \details Initiates a system reset request to reset the MCU.
 845:../../../PY32F002B_Firmware_V1.2.1/PY32F002B_Firmware_V1.2.1/Drivers/CMSIS/Include/core_cm0plus.h ****  */
 846:../../../PY32F002B_Firmware_V1.2.1/PY32F002B_Firmware_V1.2.1/Drivers/CMSIS/Include/core_cm0plus.h **** __STATIC_INLINE void NVIC_SystemReset(void)
 847:../../../PY32F002B_Firmware_V1.2.1/PY32F002B_Firmware_V1.2.1/Drivers/CMSIS/Include/core_cm0plus.h **** {
 848:../../../PY32F002B_Firmware_V1.2.1/PY32F002B_Firmware_V1.2.1/Drivers/CMSIS/Include/core_cm0plus.h ****   __DSB();                                                          /* Ensure all outstanding memor
 849:../../../PY32F002B_Firmware_V1.2.1/PY32F002B_Firmware_V1.2.1/Drivers/CMSIS/Include/core_cm0plus.h ****                                                                        buffered write are completed
 850:../../../PY32F002B_Firmware_V1.2.1/PY32F002B_Firmware_V1.2.1/Drivers/CMSIS/Include/core_cm0plus.h ****   SCB->AIRCR  = ((0x5FAUL << SCB_AIRCR_VECTKEY_Pos) |
 851:../../../PY32F002B_Firmware_V1.2.1/PY32F002B_Firmware_V1.2.1/Drivers/CMSIS/Include/core_cm0plus.h ****                  SCB_AIRCR_SYSRESETREQ_Msk);
 852:../../../PY32F002B_Firmware_V1.2.1/PY32F002B_Firmware_V1.2.1/Drivers/CMSIS/Include/core_cm0plus.h ****   __DSB();                                                          /* Ensure completion of memory 
 853:../../../PY32F002B_Firmware_V1.2.1/PY32F002B_Firmware_V1.2.1/Drivers/CMSIS/Include/core_cm0plus.h **** 
 854:../../../PY32F002B_Firmware_V1.2.1/PY32F002B_Firmware_V1.2.1/Drivers/CMSIS/Include/core_cm0plus.h ****   for(;;)                                                           /* wait until reset */
 855:../../../PY32F002B_Firmware_V1.2.1/PY32F002B_Firmware_V1.2.1/Drivers/CMSIS/Include/core_cm0plus.h ****   {
 856:../../../PY32F002B_Firmware_V1.2.1/PY32F002B_Firmware_V1.2.1/Drivers/CMSIS/Include/core_cm0plus.h ****     __NOP();
 857:../../../PY32F002B_Firmware_V1.2.1/PY32F002B_Firmware_V1.2.1/Drivers/CMSIS/Include/core_cm0plus.h ****   }
 858:../../../PY32F002B_Firmware_V1.2.1/PY32F002B_Firmware_V1.2.1/Drivers/CMSIS/Include/core_cm0plus.h **** }
 859:../../../PY32F002B_Firmware_V1.2.1/PY32F002B_Firmware_V1.2.1/Drivers/CMSIS/Include/core_cm0plus.h **** 
 860:../../../PY32F002B_Firmware_V1.2.1/PY32F002B_Firmware_V1.2.1/Drivers/CMSIS/Include/core_cm0plus.h **** /*@} end of CMSIS_Core_NVICFunctions */
 861:../../../PY32F002B_Firmware_V1.2.1/PY32F002B_Firmware_V1.2.1/Drivers/CMSIS/Include/core_cm0plus.h **** 
 862:../../../PY32F002B_Firmware_V1.2.1/PY32F002B_Firmware_V1.2.1/Drivers/CMSIS/Include/core_cm0plus.h **** 
 863:../../../PY32F002B_Firmware_V1.2.1/PY32F002B_Firmware_V1.2.1/Drivers/CMSIS/Include/core_cm0plus.h **** 
 864:../../../PY32F002B_Firmware_V1.2.1/PY32F002B_Firmware_V1.2.1/Drivers/CMSIS/Include/core_cm0plus.h **** /* ##################################    SysTick function  ########################################
 865:../../../PY32F002B_Firmware_V1.2.1/PY32F002B_Firmware_V1.2.1/Drivers/CMSIS/Include/core_cm0plus.h **** /**
 866:../../../PY32F002B_Firmware_V1.2.1/PY32F002B_Firmware_V1.2.1/Drivers/CMSIS/Include/core_cm0plus.h ****   \ingroup  CMSIS_Core_FunctionInterface
 867:../../../PY32F002B_Firmware_V1.2.1/PY32F002B_Firmware_V1.2.1/Drivers/CMSIS/Include/core_cm0plus.h ****   \defgroup CMSIS_Core_SysTickFunctions SysTick Functions
 868:../../../PY32F002B_Firmware_V1.2.1/PY32F002B_Firmware_V1.2.1/Drivers/CMSIS/Include/core_cm0plus.h ****   \brief    Functions that configure the System.
 869:../../../PY32F002B_Firmware_V1.2.1/PY32F002B_Firmware_V1.2.1/Drivers/CMSIS/Include/core_cm0plus.h ****   @{
 870:../../../PY32F002B_Firmware_V1.2.1/PY32F002B_Firmware_V1.2.1/Drivers/CMSIS/Include/core_cm0plus.h ****  */
 871:../../../PY32F002B_Firmware_V1.2.1/PY32F002B_Firmware_V1.2.1/Drivers/CMSIS/Include/core_cm0plus.h **** 
 872:../../../PY32F002B_Firmware_V1.2.1/PY32F002B_Firmware_V1.2.1/Drivers/CMSIS/Include/core_cm0plus.h **** #if (__Vendor_SysTickConfig == 0U)
 873:../../../PY32F002B_Firmware_V1.2.1/PY32F002B_Firmware_V1.2.1/Drivers/CMSIS/Include/core_cm0plus.h **** 
 874:../../../PY32F002B_Firmware_V1.2.1/PY32F002B_Firmware_V1.2.1/Drivers/CMSIS/Include/core_cm0plus.h **** /**
ARM GAS  C:\Users\Gautam\AppData\Local\Temp\cchduyDh.s 			page 21


 875:../../../PY32F002B_Firmware_V1.2.1/PY32F002B_Firmware_V1.2.1/Drivers/CMSIS/Include/core_cm0plus.h ****   \brief   System Tick Configuration
 876:../../../PY32F002B_Firmware_V1.2.1/PY32F002B_Firmware_V1.2.1/Drivers/CMSIS/Include/core_cm0plus.h ****   \details Initializes the System Timer and its interrupt, and starts the System Tick Timer.
 877:../../../PY32F002B_Firmware_V1.2.1/PY32F002B_Firmware_V1.2.1/Drivers/CMSIS/Include/core_cm0plus.h ****            Counter is in free running mode to generate periodic interrupts.
 878:../../../PY32F002B_Firmware_V1.2.1/PY32F002B_Firmware_V1.2.1/Drivers/CMSIS/Include/core_cm0plus.h ****   \param [in]  ticks  Number of ticks between two interrupts.
 879:../../../PY32F002B_Firmware_V1.2.1/PY32F002B_Firmware_V1.2.1/Drivers/CMSIS/Include/core_cm0plus.h ****   \return          0  Function succeeded.
 880:../../../PY32F002B_Firmware_V1.2.1/PY32F002B_Firmware_V1.2.1/Drivers/CMSIS/Include/core_cm0plus.h ****   \return          1  Function failed.
 881:../../../PY32F002B_Firmware_V1.2.1/PY32F002B_Firmware_V1.2.1/Drivers/CMSIS/Include/core_cm0plus.h ****   \note    When the variable <b>__Vendor_SysTickConfig</b> is set to 1, then the
 882:../../../PY32F002B_Firmware_V1.2.1/PY32F002B_Firmware_V1.2.1/Drivers/CMSIS/Include/core_cm0plus.h ****            function <b>SysTick_Config</b> is not included. In this case, the file <b><i>device</i>.
 883:../../../PY32F002B_Firmware_V1.2.1/PY32F002B_Firmware_V1.2.1/Drivers/CMSIS/Include/core_cm0plus.h ****            must contain a vendor-specific implementation of this function.
 884:../../../PY32F002B_Firmware_V1.2.1/PY32F002B_Firmware_V1.2.1/Drivers/CMSIS/Include/core_cm0plus.h ****  */
 885:../../../PY32F002B_Firmware_V1.2.1/PY32F002B_Firmware_V1.2.1/Drivers/CMSIS/Include/core_cm0plus.h **** __STATIC_INLINE uint32_t SysTick_Config(uint32_t ticks)
 184              		.loc 2 885 26 view .LVU53
 185              	.LBB15:
 886:../../../PY32F002B_Firmware_V1.2.1/PY32F002B_Firmware_V1.2.1/Drivers/CMSIS/Include/core_cm0plus.h **** {
 887:../../../PY32F002B_Firmware_V1.2.1/PY32F002B_Firmware_V1.2.1/Drivers/CMSIS/Include/core_cm0plus.h ****   if ((ticks - 1UL) > SysTick_LOAD_RELOAD_Msk)
 186              		.loc 2 887 3 view .LVU54
 888:../../../PY32F002B_Firmware_V1.2.1/PY32F002B_Firmware_V1.2.1/Drivers/CMSIS/Include/core_cm0plus.h ****   {
 889:../../../PY32F002B_Firmware_V1.2.1/PY32F002B_Firmware_V1.2.1/Drivers/CMSIS/Include/core_cm0plus.h ****     return (1UL);                                                   /* Reload value impossible */
 890:../../../PY32F002B_Firmware_V1.2.1/PY32F002B_Firmware_V1.2.1/Drivers/CMSIS/Include/core_cm0plus.h ****   }
 891:../../../PY32F002B_Firmware_V1.2.1/PY32F002B_Firmware_V1.2.1/Drivers/CMSIS/Include/core_cm0plus.h **** 
 892:../../../PY32F002B_Firmware_V1.2.1/PY32F002B_Firmware_V1.2.1/Drivers/CMSIS/Include/core_cm0plus.h ****   SysTick->LOAD  = (uint32_t)(ticks - 1UL);                         /* set reload register */
 187              		.loc 2 892 3 view .LVU55
 188              		.loc 2 892 18 is_stmt 0 view .LVU56
 189 0000 074A     		ldr	r2, .L5
 190 0002 084B     		ldr	r3, .L5+4
 191 0004 5360     		str	r3, [r2, #4]
 893:../../../PY32F002B_Firmware_V1.2.1/PY32F002B_Firmware_V1.2.1/Drivers/CMSIS/Include/core_cm0plus.h ****   NVIC_SetPriority (SysTick_IRQn, (1UL << __NVIC_PRIO_BITS) - 1UL); /* set Priority for Systick Int
 192              		.loc 2 893 3 is_stmt 1 view .LVU57
 193              	.LVL1:
 194              	.LBB16:
 195              	.LBI16:
 804:../../../PY32F002B_Firmware_V1.2.1/PY32F002B_Firmware_V1.2.1/Drivers/CMSIS/Include/core_cm0plus.h **** {
 196              		.loc 2 804 22 view .LVU58
 197              	.LBB17:
 806:../../../PY32F002B_Firmware_V1.2.1/PY32F002B_Firmware_V1.2.1/Drivers/CMSIS/Include/core_cm0plus.h ****   {
 198              		.loc 2 806 3 view .LVU59
 808:../../../PY32F002B_Firmware_V1.2.1/PY32F002B_Firmware_V1.2.1/Drivers/CMSIS/Include/core_cm0plus.h ****        (((priority << (8U - __NVIC_PRIO_BITS)) & (uint32_t)0xFFUL) << _BIT_SHIFT(IRQn)));
 199              		.loc 2 808 5 view .LVU60
 808:../../../PY32F002B_Firmware_V1.2.1/PY32F002B_Firmware_V1.2.1/Drivers/CMSIS/Include/core_cm0plus.h ****        (((priority << (8U - __NVIC_PRIO_BITS)) & (uint32_t)0xFFUL) << _BIT_SHIFT(IRQn)));
 200              		.loc 2 808 52 is_stmt 0 view .LVU61
 201 0006 0848     		ldr	r0, .L5+8
 202 0008 036A     		ldr	r3, [r0, #32]
 808:../../../PY32F002B_Firmware_V1.2.1/PY32F002B_Firmware_V1.2.1/Drivers/CMSIS/Include/core_cm0plus.h ****        (((priority << (8U - __NVIC_PRIO_BITS)) & (uint32_t)0xFFUL) << _BIT_SHIFT(IRQn)));
 203              		.loc 2 808 33 view .LVU62
 204 000a 1B02     		lsls	r3, r3, #8
 205 000c 1B0A     		lsrs	r3, r3, #8
 808:../../../PY32F002B_Firmware_V1.2.1/PY32F002B_Firmware_V1.2.1/Drivers/CMSIS/Include/core_cm0plus.h ****        (((priority << (8U - __NVIC_PRIO_BITS)) & (uint32_t)0xFFUL) << _BIT_SHIFT(IRQn)));
 206              		.loc 2 808 102 view .LVU63
 207 000e C021     		movs	r1, #192
 208 0010 0906     		lsls	r1, r1, #24
 209 0012 0B43     		orrs	r3, r1
 808:../../../PY32F002B_Firmware_V1.2.1/PY32F002B_Firmware_V1.2.1/Drivers/CMSIS/Include/core_cm0plus.h ****        (((priority << (8U - __NVIC_PRIO_BITS)) & (uint32_t)0xFFUL) << _BIT_SHIFT(IRQn)));
 210              		.loc 2 808 30 view .LVU64
 211 0014 0362     		str	r3, [r0, #32]
 212              	.LVL2:
 808:../../../PY32F002B_Firmware_V1.2.1/PY32F002B_Firmware_V1.2.1/Drivers/CMSIS/Include/core_cm0plus.h ****        (((priority << (8U - __NVIC_PRIO_BITS)) & (uint32_t)0xFFUL) << _BIT_SHIFT(IRQn)));
 213              		.loc 2 808 30 view .LVU65
ARM GAS  C:\Users\Gautam\AppData\Local\Temp\cchduyDh.s 			page 22


 214              	.LBE17:
 215              	.LBE16:
 894:../../../PY32F002B_Firmware_V1.2.1/PY32F002B_Firmware_V1.2.1/Drivers/CMSIS/Include/core_cm0plus.h ****   SysTick->VAL   = 0UL;                                             /* Load the SysTick Counter Val
 216              		.loc 2 894 3 is_stmt 1 view .LVU66
 217              		.loc 2 894 18 is_stmt 0 view .LVU67
 218 0016 0023     		movs	r3, #0
 219 0018 9360     		str	r3, [r2, #8]
 895:../../../PY32F002B_Firmware_V1.2.1/PY32F002B_Firmware_V1.2.1/Drivers/CMSIS/Include/core_cm0plus.h ****   SysTick->CTRL  = SysTick_CTRL_CLKSOURCE_Msk |
 220              		.loc 2 895 3 is_stmt 1 view .LVU68
 221              		.loc 2 895 18 is_stmt 0 view .LVU69
 222 001a 0733     		adds	r3, r3, #7
 223 001c 1360     		str	r3, [r2]
 896:../../../PY32F002B_Firmware_V1.2.1/PY32F002B_Firmware_V1.2.1/Drivers/CMSIS/Include/core_cm0plus.h ****                    SysTick_CTRL_TICKINT_Msk   |
 897:../../../PY32F002B_Firmware_V1.2.1/PY32F002B_Firmware_V1.2.1/Drivers/CMSIS/Include/core_cm0plus.h ****                    SysTick_CTRL_ENABLE_Msk;                         /* Enable SysTick IRQ and SysTi
 898:../../../PY32F002B_Firmware_V1.2.1/PY32F002B_Firmware_V1.2.1/Drivers/CMSIS/Include/core_cm0plus.h ****   return (0UL);                                                     /* Function successful */
 224              		.loc 2 898 3 is_stmt 1 view .LVU70
 225              	.LVL3:
 226              		.loc 2 898 3 is_stmt 0 view .LVU71
 227              	.LBE15:
 228              	.LBE14:
  87:../Src/main.c **** }
 229              		.loc 1 87 1 view .LVU72
 230              		@ sp needed
 231 001e 7047     		bx	lr
 232              	.L6:
 233              		.align	2
 234              	.L5:
 235 0020 10E000E0 		.word	-536813552
 236 0024 7F380100 		.word	79999
 237 0028 00ED00E0 		.word	-536810240
 238              		.cfi_endproc
 239              	.LFE39:
 241              		.section	.text.Task_100ms,"ax",%progbits
 242              		.align	1
 243              		.syntax unified
 244              		.code	16
 245              		.thumb_func
 247              	Task_100ms:
 248              	.LFB43:
  88:../Src/main.c **** 
  89:../Src/main.c **** static void SystemInit_ADC(void)
  90:../Src/main.c **** {
  91:../Src/main.c ****     // Configure ADC for channels: VBAT, IBAT, TEMP_MOSFET, TEMP_NTC
  92:../Src/main.c ****     ADCConfig_t adc_cfg = {
  93:../Src/main.c ****         .vbat_scale = 20,           // 20 mV per ADC count (adjust per divider)
  94:../Src/main.c ****         .ibat_scale = 3,            // 3 mA per ADC count (adjust per sense R)
  95:../Src/main.c ****         .vbat_offset = 0,
  96:../Src/main.c ****         .ibat_offset = 2000,        // ~1.64V offset for 0A (mid-range sensor)
  97:../Src/main.c ****         .adc_ov_limit = 4000,       // ~80V (over-voltage)
  98:../Src/main.c ****         .adc_uv_limit = 500,        // ~10V (under-voltage / reverse polarity)
  99:../Src/main.c ****         .adc_temp_warn = 1200,      // 80°C
 100:../Src/main.c ****         .adc_temp_shutdown = 1000,  // 90°C
 101:../Src/main.c ****     };
 102:../Src/main.c ****     
 103:../Src/main.c ****     ADC_Init(&adc_cfg);
 104:../Src/main.c **** }
 105:../Src/main.c **** 
ARM GAS  C:\Users\Gautam\AppData\Local\Temp\cchduyDh.s 			page 23


 106:../Src/main.c **** /* =====================================================
 107:../Src/main.c ****    Charger Configuration
 108:../Src/main.c ****    ===================================================== */
 109:../Src/main.c **** 
 110:../Src/main.c **** static void ChargerInit(void)
 111:../Src/main.c **** {
 112:../Src/main.c ****     ChargerConfig_t cfg = {
 113:../Src/main.c ****         .vset = 67200,           // Default 67.2V
 114:../Src/main.c ****         .cset = 6200,            // Default 6.2A
 115:../Src/main.c ****         .adc_ov_threshold = 75000,  // 75V over-voltage
 116:../Src/main.c ****         .adc_uv_threshold = 10000,  // 10V under-voltage
 117:../Src/main.c ****         .adc_temp_warn = 1200,      // 80°C warning (ADC units)
 118:../Src/main.c ****         .adc_temp_shutdown = 1000,  // 90°C shutdown
 119:../Src/main.c ****         .vset_wake_duration = 60,
 120:../Src/main.c ****         .cv_timeout_minutes = 60,
 121:../Src/main.c ****         .total_timeout_hours = 7,
 122:../Src/main.c ****         .softstart_ramp_rate = 1,   // ADC will handle the 0.3A/sec ramp
 123:../Src/main.c ****     };
 124:../Src/main.c ****     
 125:../Src/main.c ****     ChargerSM_Init(&cfg);
 126:../Src/main.c ****     Battery_Init(&(BatteryConfig_t){
 127:../Src/main.c ****         .vset = 67200,
 128:../Src/main.c ****         .threshold_20 = 13440,
 129:../Src/main.c ****         .threshold_40 = 26880,
 130:../Src/main.c ****         .threshold_65 = 43680,
 131:../Src/main.c ****         .debounce_count = 0,
 132:../Src/main.c ****         .debounce_samples = 5,
 133:../Src/main.c ****     });
 134:../Src/main.c ****     
 135:../Src/main.c ****     SOC_Init(&(SOCConfig_t){
 136:../Src/main.c ****         .vset = 67200,
 137:../Src/main.c ****         .hysteresis_pct = 2,
 138:../Src/main.c ****     });
 139:../Src/main.c **** }
 140:../Src/main.c **** 
 141:../Src/main.c **** /* =====================================================
 142:../Src/main.c ****    Main Loop - 10 ms Tick
 143:../Src/main.c ****    ===================================================== */
 144:../Src/main.c **** 
 145:../Src/main.c **** static void Task_10ms(void)
 146:../Src/main.c **** {
 147:../Src/main.c ****     // Process button input
 148:../Src/main.c ****     Button_Task();
 149:../Src/main.c ****     
 150:../Src/main.c ****     // Process menu (only if in menu mode)
 151:../Src/main.c ****     if (g_display_mode == DISPLAY_MENU) {
 152:../Src/main.c ****         Menu_Task();
 153:../Src/main.c ****     }
 154:../Src/main.c **** 
 155:../Src/main.c ****     if (Menu_IsActive()) {
 156:../Src/main.c ****         g_menu_was_active = true;
 157:../Src/main.c ****         g_display_mode = DISPLAY_MENU;
 158:../Src/main.c ****         g_display_timer = 0;
 159:../Src/main.c ****     } else if (g_menu_was_active) {
 160:../Src/main.c ****         g_menu_was_active = false;
 161:../Src/main.c ****         g_display_mode = DISPLAY_VOLTAGE;
 162:../Src/main.c ****         g_display_timer = 0;
ARM GAS  C:\Users\Gautam\AppData\Local\Temp\cchduyDh.s 			page 24


 163:../Src/main.c ****     }
 164:../Src/main.c **** }
 165:../Src/main.c **** 
 166:../Src/main.c **** /* =====================================================
 167:../Src/main.c ****    ADC Sampling - 100 ms Tick
 168:../Src/main.c ****    ===================================================== */
 169:../Src/main.c **** 
 170:../Src/main.c **** static void Task_100ms(void)
 171:../Src/main.c **** {
 249              		.loc 1 171 1 is_stmt 1 view -0
 250              		.cfi_startproc
 251              		@ args = 0, pretend = 0, frame = 24
 252              		@ frame_needed = 0, uses_anonymous_args = 0
 253 0000 30B5     		push	{r4, r5, lr}
 254              	.LCFI2:
 255              		.cfi_def_cfa_offset 12
 256              		.cfi_offset 4, -12
 257              		.cfi_offset 5, -8
 258              		.cfi_offset 14, -4
 259 0002 87B0     		sub	sp, sp, #28
 260              	.LCFI3:
 261              		.cfi_def_cfa_offset 40
 172:../Src/main.c ****     // Get latest ADC measurements
 173:../Src/main.c ****     ADCMeasurement_t meas = ADC_GetMeasurement();
 262              		.loc 1 173 5 view .LVU74
 263              		.loc 1 173 29 is_stmt 0 view .LVU75
 264 0004 01AC     		add	r4, sp, #4
 265 0006 2000     		movs	r0, r4
 266 0008 FFF7FEFF 		bl	ADC_GetMeasurement
 267              	.LVL4:
 174:../Src/main.c ****     
 175:../Src/main.c ****     // Update battery health classifier
 176:../Src/main.c ****     Battery_Update(meas.vbat_mv);
 268              		.loc 1 176 5 is_stmt 1 view .LVU76
 269 000c 019D     		ldr	r5, [sp, #4]
 270 000e 2800     		movs	r0, r5
 271 0010 FFF7FEFF 		bl	Battery_Update
 272              	.LVL5:
 177:../Src/main.c ****     
 178:../Src/main.c ****     // Update SOC calculator
 179:../Src/main.c ****     SOC_Update(meas.vbat_mv);
 273              		.loc 1 179 5 view .LVU77
 274 0014 2800     		movs	r0, r5
 275 0016 FFF7FEFF 		bl	SOC_Update
 276              	.LVL6:
 180:../Src/main.c ****     
 181:../Src/main.c ****     // Call charger state machine (every 100ms = 1 decisecond)
 182:../Src/main.c ****     ChargerSM_Task(meas.vbat_mv, meas.ibat_ma,
 277              		.loc 1 182 5 view .LVU78
 278 001a 2389     		ldrh	r3, [r4, #8]
 279 001c E288     		ldrh	r2, [r4, #6]
 280 001e A188     		ldrh	r1, [r4, #4]
 281 0020 2800     		movs	r0, r5
 282 0022 FFF7FEFF 		bl	ChargerSM_Task
 283              	.LVL7:
 183:../Src/main.c ****                    meas.temp_mosfet, meas.temp_ntc);
 184:../Src/main.c ****     
ARM GAS  C:\Users\Gautam\AppData\Local\Temp\cchduyDh.s 			page 25


 185:../Src/main.c ****     // Trigger next ADC conversion
 186:../Src/main.c ****     ADC_StartConversion();
 284              		.loc 1 186 5 view .LVU79
 285 0026 FFF7FEFF 		bl	ADC_StartConversion
 286              	.LVL8:
 187:../Src/main.c **** }
 287              		.loc 1 187 1 is_stmt 0 view .LVU80
 288 002a 07B0     		add	sp, sp, #28
 289              		@ sp needed
 290 002c 30BD     		pop	{r4, r5, pc}
 291              		.cfi_endproc
 292              	.LFE43:
 294              		.section	.text.UpdateLED,"ax",%progbits
 295              		.align	1
 296              		.syntax unified
 297              		.code	16
 298              		.thumb_func
 300              	UpdateLED:
 301              	.LFB46:
 188:../Src/main.c **** 
 189:../Src/main.c **** /* =====================================================
 190:../Src/main.c ****    Display Manager - 1 Second Tick
 191:../Src/main.c ****    ===================================================== */
 192:../Src/main.c **** 
 193:../Src/main.c **** static void Task_1sec(void)
 194:../Src/main.c **** {
 195:../Src/main.c ****     ChargerState_t state = ChargerSM_GetState();
 196:../Src/main.c ****     
 197:../Src/main.c ****     
 198:../Src/main.c ****     // If in fault state, show fault code
 199:../Src/main.c ****     if (state == STATE_FAULT) {
 200:../Src/main.c ****         g_display_mode = DISPLAY_FAULT_CODE;
 201:../Src/main.c ****     }
 202:../Src/main.c ****     // If menu is active, show menu
 203:../Src/main.c ****     else if (Menu_IsActive()) {
 204:../Src/main.c ****         g_display_mode = DISPLAY_MENU;
 205:../Src/main.c ****     }
 206:../Src/main.c ****     // During charging, alternate between voltage and SOC
 207:../Src/main.c ****     else if (ChargerSM_IsCharging()) {
 208:../Src/main.c ****         g_display_timer++;
 209:../Src/main.c ****         if (g_display_timer >= 10) {  // Every 10 seconds
 210:../Src/main.c ****             g_display_timer = 0;
 211:../Src/main.c ****             g_display_mode = (g_display_mode == DISPLAY_VOLTAGE) 
 212:../Src/main.c ****                            ? DISPLAY_SOC : DISPLAY_VOLTAGE;
 213:../Src/main.c ****         }
 214:../Src/main.c ****     }
 215:../Src/main.c ****     // Otherwise show voltage
 216:../Src/main.c ****     else {
 217:../Src/main.c ****         g_display_mode = DISPLAY_VOLTAGE;
 218:../Src/main.c ****     }
 219:../Src/main.c **** }
 220:../Src/main.c **** 
 221:../Src/main.c **** /* =====================================================
 222:../Src/main.c ****    Display Update - Synchronized with Display Manager
 223:../Src/main.c ****    ===================================================== */
 224:../Src/main.c **** 
 225:../Src/main.c **** static void UpdateDisplay(void)
ARM GAS  C:\Users\Gautam\AppData\Local\Temp\cchduyDh.s 			page 26


 226:../Src/main.c **** {
 227:../Src/main.c ****     ADCMeasurement_t meas = ADC_GetMeasurement();
 228:../Src/main.c ****     uint8_t soc = SOC_GetDisplaySOC();
 229:../Src/main.c ****     
 230:../Src/main.c ****     switch (g_display_mode) {
 231:../Src/main.c ****         case DISPLAY_VOLTAGE: {
 232:../Src/main.c ****             // Display battery voltage (TM1637_DisplayVoltage expects 0.01V units)
 233:../Src/main.c ****             TM1637_DisplayVoltage((uint16_t)(meas.vbat_mv / 10));
 234:../Src/main.c ****             break;
 235:../Src/main.c ****         }
 236:../Src/main.c ****         case DISPLAY_CURRENT: {
 237:../Src/main.c ****             uint16_t amps = meas.ibat_ma / 1000;
 238:../Src/main.c ****             TM1637_DisplayNumber(amps);
 239:../Src/main.c ****             break;
 240:../Src/main.c ****         }
 241:../Src/main.c ****         case DISPLAY_SOC: {
 242:../Src/main.c ****             if (SOC_IsQualified()) {
 243:../Src/main.c ****                 TM1637_DisplayNumber(soc);
 244:../Src/main.c ****             } else {
 245:../Src/main.c ****                 TM1637_DisplayNumber(soc);  // Keep showing old value during qualification
 246:../Src/main.c ****             }
 247:../Src/main.c ****             break;
 248:../Src/main.c ****         }
 249:../Src/main.c ****         case DISPLAY_FAULT_CODE: {
 250:../Src/main.c ****             FaultCode_t fault = ChargerSM_GetFault();
 251:../Src/main.c ****             TM1637_DisplayNumber((uint16_t)fault);
 252:../Src/main.c ****             break;
 253:../Src/main.c ****         }
 254:../Src/main.c ****         case DISPLAY_MENU: {
 255:../Src/main.c ****             Menu_UpdateDisplay();
 256:../Src/main.c ****             break;
 257:../Src/main.c ****         }
 258:../Src/main.c ****     }
 259:../Src/main.c **** }
 260:../Src/main.c **** 
 261:../Src/main.c **** /* =====================================================
 262:../Src/main.c ****    Hardware Output Controls
 263:../Src/main.c ****    ===================================================== */
 264:../Src/main.c **** 
 265:../Src/main.c **** 
 266:../Src/main.c **** 
 267:../Src/main.c **** 
 268:../Src/main.c **** static void UpdateLED(void)
 269:../Src/main.c **** {
 302              		.loc 1 269 1 is_stmt 1 view -0
 303              		.cfi_startproc
 304              		@ args = 0, pretend = 0, frame = 0
 305              		@ frame_needed = 0, uses_anonymous_args = 0
 306 0000 10B5     		push	{r4, lr}
 307              	.LCFI4:
 308              		.cfi_def_cfa_offset 8
 309              		.cfi_offset 4, -8
 310              		.cfi_offset 14, -4
 270:../Src/main.c ****     ChargerState_t state = ChargerSM_GetState();
 311              		.loc 1 270 5 view .LVU82
 312              		.loc 1 270 28 is_stmt 0 view .LVU83
 313 0002 FFF7FEFF 		bl	ChargerSM_GetState
ARM GAS  C:\Users\Gautam\AppData\Local\Temp\cchduyDh.s 			page 27


 314              	.LVL9:
 271:../Src/main.c ****     // Assuming LED is on PA5 (Example)
 272:../Src/main.c ****     if (state == STATE_POWER_ON || ChargerSM_IsCharging()) {
 315              		.loc 1 272 5 is_stmt 1 view .LVU84
 316              		.loc 1 272 8 is_stmt 0 view .LVU85
 317 0006 0028     		cmp	r0, #0
 318 0008 00D1     		bne	.L10
 319              	.LVL10:
 320              	.L8:
 273:../Src/main.c ****         // GPIOA->BSRR = GPIO_PIN_5;
 274:../Src/main.c ****     } else if (state == STATE_FAULT) {
 275:../Src/main.c ****         // Toggle logic
 276:../Src/main.c ****     } else {
 277:../Src/main.c ****         // GPIOA->BRR = GPIO_PIN_5;
 278:../Src/main.c ****     }
 279:../Src/main.c **** }
 321              		.loc 1 279 1 view .LVU86
 322              		@ sp needed
 323 000a 10BD     		pop	{r4, pc}
 324              	.LVL11:
 325              	.L10:
 272:../Src/main.c ****         // GPIOA->BSRR = GPIO_PIN_5;
 326              		.loc 1 272 36 discriminator 1 view .LVU87
 327 000c FFF7FEFF 		bl	ChargerSM_IsCharging
 328              	.LVL12:
 274:../Src/main.c ****         // Toggle logic
 329              		.loc 1 274 12 is_stmt 1 view .LVU88
 276:../Src/main.c ****         // GPIOA->BRR = GPIO_PIN_5;
 330              		.loc 1 276 5 view .LVU89
 278:../Src/main.c **** }
 331              		.loc 1 278 5 view .LVU90
 332              		.loc 1 279 1 is_stmt 0 view .LVU91
 333 0010 FBE7     		b	.L8
 334              		.cfi_endproc
 335              	.LFE46:
 337              		.section	.text.UpdateFan,"ax",%progbits
 338              		.align	1
 339              		.syntax unified
 340              		.code	16
 341              		.thumb_func
 343              	UpdateFan:
 344              	.LFB47:
 280:../Src/main.c **** 
 281:../Src/main.c **** static void UpdateFan(void)
 282:../Src/main.c **** {
 345              		.loc 1 282 1 is_stmt 1 view -0
 346              		.cfi_startproc
 347              		@ args = 0, pretend = 0, frame = 0
 348              		@ frame_needed = 0, uses_anonymous_args = 0
 349 0000 10B5     		push	{r4, lr}
 350              	.LCFI5:
 351              		.cfi_def_cfa_offset 8
 352              		.cfi_offset 4, -8
 353              		.cfi_offset 14, -4
 283:../Src/main.c ****     // Fan_CTRL is on PA2. Q6 is an N-Channel MOSFET, so HIGH = ON.
 284:../Src/main.c ****     if (ChargerSM_IsFanEnabled()) {
 354              		.loc 1 284 5 view .LVU93
ARM GAS  C:\Users\Gautam\AppData\Local\Temp\cchduyDh.s 			page 28


 355              		.loc 1 284 9 is_stmt 0 view .LVU94
 356 0002 FFF7FEFF 		bl	ChargerSM_IsFanEnabled
 357              	.LVL13:
 358              		.loc 1 284 8 discriminator 1 view .LVU95
 359 0006 0028     		cmp	r0, #0
 360 0008 04D0     		beq	.L12
 285:../Src/main.c ****         GPIOA->BSRR = GPIO_PIN_2;  // PA2 High = Fan ON
 361              		.loc 1 285 9 is_stmt 1 view .LVU96
 362              		.loc 1 285 21 is_stmt 0 view .LVU97
 363 000a A023     		movs	r3, #160
 364 000c DB05     		lsls	r3, r3, #23
 365 000e 0422     		movs	r2, #4
 366 0010 9A61     		str	r2, [r3, #24]
 367              	.L11:
 286:../Src/main.c ****     } else {
 287:../Src/main.c ****         GPIOA->BRR = GPIO_PIN_2;   // PA2 Low = Fan OFF
 288:../Src/main.c ****     }
 289:../Src/main.c **** }
 368              		.loc 1 289 1 view .LVU98
 369              		@ sp needed
 370 0012 10BD     		pop	{r4, pc}
 371              	.L12:
 287:../Src/main.c ****     }
 372              		.loc 1 287 9 is_stmt 1 view .LVU99
 287:../Src/main.c ****     }
 373              		.loc 1 287 20 is_stmt 0 view .LVU100
 374 0014 A023     		movs	r3, #160
 375 0016 DB05     		lsls	r3, r3, #23
 376 0018 0422     		movs	r2, #4
 377 001a 9A62     		str	r2, [r3, #40]
 378              		.loc 1 289 1 view .LVU101
 379 001c F9E7     		b	.L11
 380              		.cfi_endproc
 381              	.LFE47:
 383              		.section	.text.UpdateTL494,"ax",%progbits
 384              		.align	1
 385              		.syntax unified
 386              		.code	16
 387              		.thumb_func
 389              	UpdateTL494:
 390              	.LFB48:
 290:../Src/main.c **** 
 291:../Src/main.c **** static void UpdateTL494(void)
 292:../Src/main.c **** {
 391              		.loc 1 292 1 is_stmt 1 view -0
 392              		.cfi_startproc
 393              		@ args = 0, pretend = 0, frame = 0
 394              		@ frame_needed = 0, uses_anonymous_args = 0
 395 0000 10B5     		push	{r4, lr}
 396              	.LCFI6:
 397              		.cfi_def_cfa_offset 8
 398              		.cfi_offset 4, -8
 399              		.cfi_offset 14, -4
 293:../Src/main.c ****     // DTC is on PA1. 
 294:../Src/main.c ****     if (ChargerSM_IsPWMEnabled()) {
 400              		.loc 1 294 5 view .LVU103
 401              		.loc 1 294 9 is_stmt 0 view .LVU104
ARM GAS  C:\Users\Gautam\AppData\Local\Temp\cchduyDh.s 			page 29


 402 0002 FFF7FEFF 		bl	ChargerSM_IsPWMEnabled
 403              	.LVL14:
 404              		.loc 1 294 8 discriminator 1 view .LVU105
 405 0006 0028     		cmp	r0, #0
 406 0008 04D0     		beq	.L15
 295:../Src/main.c ****         GPIOA->BRR = GPIO_PIN_1;  // PA1 LOW = TL494 ON (Outputs Voltage)
 407              		.loc 1 295 9 is_stmt 1 view .LVU106
 408              		.loc 1 295 20 is_stmt 0 view .LVU107
 409 000a A023     		movs	r3, #160
 410 000c DB05     		lsls	r3, r3, #23
 411 000e 0222     		movs	r2, #2
 412 0010 9A62     		str	r2, [r3, #40]
 413              	.L14:
 296:../Src/main.c ****     } else {
 297:../Src/main.c ****         GPIOA->BSRR = GPIO_PIN_1; // PA1 HIGH = TL494 OFF (0V Output)
 298:../Src/main.c ****     }
 299:../Src/main.c **** }
 414              		.loc 1 299 1 view .LVU108
 415              		@ sp needed
 416 0012 10BD     		pop	{r4, pc}
 417              	.L15:
 297:../Src/main.c ****     }
 418              		.loc 1 297 9 is_stmt 1 view .LVU109
 297:../Src/main.c ****     }
 419              		.loc 1 297 21 is_stmt 0 view .LVU110
 420 0014 A023     		movs	r3, #160
 421 0016 DB05     		lsls	r3, r3, #23
 422 0018 0222     		movs	r2, #2
 423 001a 9A61     		str	r2, [r3, #24]
 424              		.loc 1 299 1 view .LVU111
 425 001c F9E7     		b	.L14
 426              		.cfi_endproc
 427              	.LFE48:
 429              		.section	.text.CheckACPower,"ax",%progbits
 430              		.align	1
 431              		.syntax unified
 432              		.code	16
 433              		.thumb_func
 435              	CheckACPower:
 436              	.LFB49:
 300:../Src/main.c **** 
 301:../Src/main.c **** static void CheckACPower(void)
 302:../Src/main.c **** {
 437              		.loc 1 302 1 is_stmt 1 view -0
 438              		.cfi_startproc
 439              		@ args = 0, pretend = 0, frame = 8
 440              		@ frame_needed = 0, uses_anonymous_args = 0
 441 0000 10B5     		push	{r4, lr}
 442              	.LCFI7:
 443              		.cfi_def_cfa_offset 8
 444              		.cfi_offset 4, -8
 445              		.cfi_offset 14, -4
 446 0002 82B0     		sub	sp, sp, #8
 447              	.LCFI8:
 448              		.cfi_def_cfa_offset 16
 303:../Src/main.c ****     static bool ac_was_on = false;
 449              		.loc 1 303 5 view .LVU113
ARM GAS  C:\Users\Gautam\AppData\Local\Temp\cchduyDh.s 			page 30


 304:../Src/main.c ****     
 305:../Src/main.c ****     // Optocoupler Q5 pulls PA3 LOW when 230V AC is present
 306:../Src/main.c ****     bool ac_is_on = ((GPIOA->IDR & GPIO_PIN_3) == 0); 
 450              		.loc 1 306 5 view .LVU114
 451              		.loc 1 306 28 is_stmt 0 view .LVU115
 452 0004 A023     		movs	r3, #160
 453 0006 DB05     		lsls	r3, r3, #23
 454 0008 1A69     		ldr	r2, [r3, #16]
 455              		.loc 1 306 34 view .LVU116
 456 000a 0823     		movs	r3, #8
 457 000c 1340     		ands	r3, r2
 458              		.loc 1 306 10 view .LVU117
 459 000e 5C42     		rsbs	r4, r3, #0
 460 0010 5C41     		adcs	r4, r4, r3
 461 0012 E4B2     		uxtb	r4, r4
 462              	.LVL15:
 307:../Src/main.c ****     
 308:../Src/main.c ****     if (ac_is_on && !ac_was_on) {
 463              		.loc 1 308 5 is_stmt 1 view .LVU118
 464              		.loc 1 308 8 is_stmt 0 view .LVU119
 465 0014 002B     		cmp	r3, #0
 466 0016 0AD1     		bne	.L18
 467              		.loc 1 308 21 discriminator 1 view .LVU120
 468 0018 084B     		ldr	r3, .L21
 469 001a 1B78     		ldrb	r3, [r3]
 470              		.loc 1 308 18 discriminator 1 view .LVU121
 471 001c 002B     		cmp	r3, #0
 472 001e 03D0     		beq	.L20
 473              	.L19:
 309:../Src/main.c ****         ChargerSM_ACOnEvent();
 310:../Src/main.c ****     } else if (!ac_is_on && ac_was_on) {
 311:../Src/main.c ****         ChargerSM_ACOffEvent();
 312:../Src/main.c ****     }
 313:../Src/main.c ****     
 314:../Src/main.c ****     ac_was_on = ac_is_on;
 474              		.loc 1 314 5 is_stmt 1 view .LVU122
 475              		.loc 1 314 15 is_stmt 0 view .LVU123
 476 0020 064B     		ldr	r3, .L21
 477 0022 1C70     		strb	r4, [r3]
 315:../Src/main.c **** }
 478              		.loc 1 315 1 view .LVU124
 479 0024 02B0     		add	sp, sp, #8
 480              		@ sp needed
 481              	.LVL16:
 482              		.loc 1 315 1 view .LVU125
 483 0026 10BD     		pop	{r4, pc}
 484              	.LVL17:
 485              	.L20:
 309:../Src/main.c ****         ChargerSM_ACOnEvent();
 486              		.loc 1 309 9 is_stmt 1 view .LVU126
 487 0028 FFF7FEFF 		bl	ChargerSM_ACOnEvent
 488              	.LVL18:
 489 002c F8E7     		b	.L19
 490              	.L18:
 310:../Src/main.c ****         ChargerSM_ACOffEvent();
 491              		.loc 1 310 26 is_stmt 0 discriminator 1 view .LVU127
 492 002e 034B     		ldr	r3, .L21
ARM GAS  C:\Users\Gautam\AppData\Local\Temp\cchduyDh.s 			page 31


 493 0030 1B78     		ldrb	r3, [r3]
 494 0032 002B     		cmp	r3, #0
 495 0034 F4D0     		beq	.L19
 311:../Src/main.c ****     }
 496              		.loc 1 311 9 is_stmt 1 view .LVU128
 497 0036 FFF7FEFF 		bl	ChargerSM_ACOffEvent
 498              	.LVL19:
 499 003a F1E7     		b	.L19
 500              	.L22:
 501              		.align	2
 502              	.L21:
 503 003c 00000000 		.word	ac_was_on.0
 504              		.cfi_endproc
 505              	.LFE49:
 507              		.section	.text.SystemInit_ADC,"ax",%progbits
 508              		.align	1
 509              		.syntax unified
 510              		.code	16
 511              		.thumb_func
 513              	SystemInit_ADC:
 514              	.LFB40:
  90:../Src/main.c ****     // Configure ADC for channels: VBAT, IBAT, TEMP_MOSFET, TEMP_NTC
 515              		.loc 1 90 1 view -0
 516              		.cfi_startproc
 517              		@ args = 0, pretend = 0, frame = 24
 518              		@ frame_needed = 0, uses_anonymous_args = 0
 519 0000 10B5     		push	{r4, lr}
 520              	.LCFI9:
 521              		.cfi_def_cfa_offset 8
 522              		.cfi_offset 4, -8
 523              		.cfi_offset 14, -4
 524 0002 86B0     		sub	sp, sp, #24
 525              	.LCFI10:
 526              		.cfi_def_cfa_offset 32
  92:../Src/main.c ****         .vbat_scale = 20,           // 20 mV per ADC count (adjust per divider)
 527              		.loc 1 92 5 view .LVU130
  92:../Src/main.c ****         .vbat_scale = 20,           // 20 mV per ADC count (adjust per divider)
 528              		.loc 1 92 17 is_stmt 0 view .LVU131
 529 0004 01AC     		add	r4, sp, #4
 530 0006 1422     		movs	r2, #20
 531 0008 0021     		movs	r1, #0
 532 000a 2000     		movs	r0, r4
 533 000c FFF7FEFF 		bl	memset
 534              	.LVL20:
 535 0010 1423     		movs	r3, #20
 536 0012 2380     		strh	r3, [r4]
 537 0014 113B     		subs	r3, r3, #17
 538 0016 6380     		strh	r3, [r4, #2]
 539 0018 FA23     		movs	r3, #250
 540 001a DB00     		lsls	r3, r3, #3
 541 001c 2381     		strh	r3, [r4, #8]
 542 001e FA23     		movs	r3, #250
 543 0020 1B01     		lsls	r3, r3, #4
 544 0022 6381     		strh	r3, [r4, #10]
 545 0024 FA23     		movs	r3, #250
 546 0026 5B00     		lsls	r3, r3, #1
 547 0028 A381     		strh	r3, [r4, #12]
ARM GAS  C:\Users\Gautam\AppData\Local\Temp\cchduyDh.s 			page 32


 548 002a 9623     		movs	r3, #150
 549 002c DB00     		lsls	r3, r3, #3
 550 002e 2382     		strh	r3, [r4, #16]
 551 0030 C83B     		subs	r3, r3, #200
 552 0032 6382     		strh	r3, [r4, #18]
 103:../Src/main.c **** }
 553              		.loc 1 103 5 is_stmt 1 view .LVU132
 554 0034 2000     		movs	r0, r4
 555 0036 FFF7FEFF 		bl	ADC_Init
 556              	.LVL21:
 104:../Src/main.c **** 
 557              		.loc 1 104 1 is_stmt 0 view .LVU133
 558 003a 06B0     		add	sp, sp, #24
 559              		@ sp needed
 560 003c 10BD     		pop	{r4, pc}
 561              		.cfi_endproc
 562              	.LFE40:
 564              		.section	.text.ChargerInit,"ax",%progbits
 565              		.align	1
 566              		.syntax unified
 567              		.code	16
 568              		.thumb_func
 570              	ChargerInit:
 571              	.LFB41:
 111:../Src/main.c ****     ChargerConfig_t cfg = {
 572              		.loc 1 111 1 is_stmt 1 view -0
 573              		.cfi_startproc
 574              		@ args = 0, pretend = 0, frame = 64
 575              		@ frame_needed = 0, uses_anonymous_args = 0
 576 0000 70B5     		push	{r4, r5, r6, lr}
 577              	.LCFI11:
 578              		.cfi_def_cfa_offset 16
 579              		.cfi_offset 4, -16
 580              		.cfi_offset 5, -12
 581              		.cfi_offset 6, -8
 582              		.cfi_offset 14, -4
 583 0002 90B0     		sub	sp, sp, #64
 584              	.LCFI12:
 585              		.cfi_def_cfa_offset 80
 112:../Src/main.c ****         .vset = 67200,           // Default 67.2V
 586              		.loc 1 112 5 view .LVU135
 112:../Src/main.c ****         .vset = 67200,           // Default 67.2V
 587              		.loc 1 112 21 is_stmt 0 view .LVU136
 588 0004 6C46     		mov	r4, sp
 589 0006 2422     		movs	r2, #36
 590 0008 0021     		movs	r1, #0
 591 000a 6846     		mov	r0, sp
 592 000c FFF7FEFF 		bl	memset
 593              	.LVL22:
 594 0010 164B     		ldr	r3, .L25
 595 0012 0093     		str	r3, [sp]
 596 0014 164B     		ldr	r3, .L25+4
 597 0016 2382     		strh	r3, [r4, #16]
 598 0018 164B     		ldr	r3, .L25+8
 599 001a 0593     		str	r3, [sp, #20]
 600 001c 164B     		ldr	r3, .L25+12
 601 001e 0693     		str	r3, [sp, #24]
ARM GAS  C:\Users\Gautam\AppData\Local\Temp\cchduyDh.s 			page 33


 602 0020 9623     		movs	r3, #150
 603 0022 DB00     		lsls	r3, r3, #3
 604 0024 A383     		strh	r3, [r4, #28]
 605 0026 C83B     		subs	r3, r3, #200
 606 0028 E383     		strh	r3, [r4, #30]
 607 002a 3C23     		movs	r3, #60
 608 002c 2022     		movs	r2, #32
 609 002e A354     		strb	r3, [r4, r2]
 610 0030 0132     		adds	r2, r2, #1
 611 0032 A354     		strb	r3, [r4, r2]
 612 0034 1A3B     		subs	r3, r3, #26
 613 0036 1A3A     		subs	r2, r2, #26
 614 0038 E254     		strb	r2, [r4, r3]
 615 003a 0133     		adds	r3, r3, #1
 616 003c 063A     		subs	r2, r2, #6
 617 003e E254     		strb	r2, [r4, r3]
 125:../Src/main.c ****     Battery_Init(&(BatteryConfig_t){
 618              		.loc 1 125 5 is_stmt 1 view .LVU137
 619 0040 6846     		mov	r0, sp
 620 0042 FFF7FEFF 		bl	ChargerSM_Init
 621              	.LVL23:
 126:../Src/main.c ****         .vset = 67200,
 622              		.loc 1 126 5 view .LVU138
 126:../Src/main.c ****         .vset = 67200,
 623              		.loc 1 126 36 is_stmt 0 view .LVU139
 624 0046 09A8     		add	r0, sp, #36
 625 0048 0C4C     		ldr	r4, .L25+16
 626 004a 0300     		movs	r3, r0
 627 004c 2200     		movs	r2, r4
 628 004e 62CA     		ldmia	r2!, {r1, r5, r6}
 629 0050 62C3     		stmia	r3!, {r1, r5, r6}
 630 0052 22CA     		ldmia	r2!, {r1, r5}
 631 0054 22C3     		stmia	r3!, {r1, r5}
 126:../Src/main.c ****         .vset = 67200,
 632              		.loc 1 126 5 view .LVU140
 633 0056 FFF7FEFF 		bl	Battery_Init
 634              	.LVL24:
 135:../Src/main.c ****         .vset = 67200,
 635              		.loc 1 135 5 is_stmt 1 view .LVU141
 135:../Src/main.c ****         .vset = 67200,
 636              		.loc 1 135 28 is_stmt 0 view .LVU142
 637 005a 0EA8     		add	r0, sp, #56
 638 005c 1434     		adds	r4, r4, #20
 639 005e 0300     		movs	r3, r0
 640 0060 06CC     		ldmia	r4!, {r1, r2}
 641 0062 06C3     		stmia	r3!, {r1, r2}
 135:../Src/main.c ****         .vset = 67200,
 642              		.loc 1 135 5 view .LVU143
 643 0064 FFF7FEFF 		bl	SOC_Init
 644              	.LVL25:
 139:../Src/main.c **** 
 645              		.loc 1 139 1 view .LVU144
 646 0068 10B0     		add	sp, sp, #64
 647              		@ sp needed
 648 006a 70BD     		pop	{r4, r5, r6, pc}
 649              	.L26:
 650              		.align	2
ARM GAS  C:\Users\Gautam\AppData\Local\Temp\cchduyDh.s 			page 34


 651              	.L25:
 652 006c 80060100 		.word	67200
 653 0070 38180000 		.word	6200
 654 0074 F8240100 		.word	75000
 655 0078 10270000 		.word	10000
 656 007c 00000000 		.word	.LANCHOR0
 657              		.cfi_endproc
 658              	.LFE41:
 660              		.section	.text.Button_Init,"ax",%progbits
 661              		.align	1
 662              		.weak	Button_Init
 663              		.syntax unified
 664              		.code	16
 665              		.thumb_func
 667              	Button_Init:
 668              	.LFB52:
 316:../Src/main.c **** 
 317:../Src/main.c **** void App_SysTickHandler(void)
 318:../Src/main.c **** {
 319:../Src/main.c ****     g_systick_ms += 10;
 320:../Src/main.c **** 
 321:../Src/main.c ****     Task_10ms();
 322:../Src/main.c **** 
 323:../Src/main.c ****     static uint8_t count_100ms = 0;
 324:../Src/main.c ****     count_100ms++;
 325:../Src/main.c ****     if (count_100ms >= 10) {
 326:../Src/main.c ****         count_100ms = 0;
 327:../Src/main.c ****         Task_100ms();
 328:../Src/main.c ****     }
 329:../Src/main.c **** 
 330:../Src/main.c ****     static uint16_t count_1sec = 0;
 331:../Src/main.c ****     count_1sec++;
 332:../Src/main.c ****     if (count_1sec >= 100) {
 333:../Src/main.c ****         count_1sec = 0;
 334:../Src/main.c ****         Task_1sec();
 335:../Src/main.c ****     }
 336:../Src/main.c **** 
 337:../Src/main.c ****     UpdateDisplay();
 338:../Src/main.c ****     UpdateLED();
 339:../Src/main.c ****     UpdateFan();
 340:../Src/main.c ****     UpdateTL494();
 341:../Src/main.c ****     CheckACPower();
 342:../Src/main.c **** }
 343:../Src/main.c **** 
 344:../Src/main.c **** /* =====================================================
 345:../Src/main.c ****    Main Entry Point
 346:../Src/main.c ****    ===================================================== */
 347:../Src/main.c **** 
 348:../Src/main.c **** int main(void)
 349:../Src/main.c **** {
 350:../Src/main.c ****     // System initialization
 351:../Src/main.c ****     SystemInit_Clock();
 352:../Src/main.c ****     SystemInit_GPIO();
 353:../Src/main.c ****     SystemInit_Timer();
 354:../Src/main.c ****     SystemInit_ADC();
 355:../Src/main.c ****     
 356:../Src/main.c ****     // Application initialization
ARM GAS  C:\Users\Gautam\AppData\Local\Temp\cchduyDh.s 			page 35


 357:../Src/main.c ****     Button_Init();
 358:../Src/main.c ****     Menu_Init();
 359:../Src/main.c ****     TM1637_Init();
 360:../Src/main.c ****     ChargerInit();
 361:../Src/main.c **** 
 362:../Src/main.c ****     __enable_irq();
 363:../Src/main.c **** 
 364:../Src/main.c ****     TM1637_DisplayVoltage(6720);
 365:../Src/main.c ****     
 366:../Src/main.c ****     // Main loop: background tasks and idle
 367:../Src/main.c ****     while (1) {
 368:../Src/main.c ****         __WFI();  // Wait for interrupt
 369:../Src/main.c ****     }
 370:../Src/main.c ****     
 371:../Src/main.c ****     return 0;
 372:../Src/main.c **** }
 373:../Src/main.c **** 
 374:../Src/main.c **** /* =====================================================
 375:../Src/main.c ****    Stub Implementations (for compilation if missing)
 376:../Src/main.c ****    ===================================================== */
 377:../Src/main.c **** 
 378:../Src/main.c **** __weak void Button_Init(void) { }
 669              		.loc 1 378 31 is_stmt 1 view -0
 670              		.cfi_startproc
 671              		@ args = 0, pretend = 0, frame = 0
 672              		@ frame_needed = 0, uses_anonymous_args = 0
 673              		@ link register save eliminated.
 674              		.loc 1 378 33 view .LVU146
 675              		@ sp needed
 676 0000 7047     		bx	lr
 677              		.cfi_endproc
 678              	.LFE52:
 680              		.section	.text.Button_Task,"ax",%progbits
 681              		.align	1
 682              		.weak	Button_Task
 683              		.syntax unified
 684              		.code	16
 685              		.thumb_func
 687              	Button_Task:
 688              	.LFB53:
 379:../Src/main.c **** __weak void Button_Task(void) { }
 689              		.loc 1 379 31 view -0
 690              		.cfi_startproc
 691              		@ args = 0, pretend = 0, frame = 0
 692              		@ frame_needed = 0, uses_anonymous_args = 0
 693              		@ link register save eliminated.
 694              		.loc 1 379 33 view .LVU148
 695              		@ sp needed
 696 0000 7047     		bx	lr
 697              		.cfi_endproc
 698              	.LFE53:
 700              		.section	.text.Menu_Init,"ax",%progbits
 701              		.align	1
 702              		.weak	Menu_Init
 703              		.syntax unified
 704              		.code	16
 705              		.thumb_func
ARM GAS  C:\Users\Gautam\AppData\Local\Temp\cchduyDh.s 			page 36


 707              	Menu_Init:
 708              	.LFB54:
 380:../Src/main.c **** __weak void Menu_Init(void) { }
 709              		.loc 1 380 29 view -0
 710              		.cfi_startproc
 711              		@ args = 0, pretend = 0, frame = 0
 712              		@ frame_needed = 0, uses_anonymous_args = 0
 713              		@ link register save eliminated.
 714              		.loc 1 380 31 view .LVU150
 715              		@ sp needed
 716 0000 7047     		bx	lr
 717              		.cfi_endproc
 718              	.LFE54:
 720              		.section	.text.Menu_Task,"ax",%progbits
 721              		.align	1
 722              		.weak	Menu_Task
 723              		.syntax unified
 724              		.code	16
 725              		.thumb_func
 727              	Menu_Task:
 728              	.LFB55:
 381:../Src/main.c **** __weak void Menu_Task(void) { }
 729              		.loc 1 381 29 view -0
 730              		.cfi_startproc
 731              		@ args = 0, pretend = 0, frame = 0
 732              		@ frame_needed = 0, uses_anonymous_args = 0
 733              		@ link register save eliminated.
 734              		.loc 1 381 31 view .LVU152
 735              		@ sp needed
 736 0000 7047     		bx	lr
 737              		.cfi_endproc
 738              	.LFE55:
 740              		.section	.text.Menu_Enter,"ax",%progbits
 741              		.align	1
 742              		.weak	Menu_Enter
 743              		.syntax unified
 744              		.code	16
 745              		.thumb_func
 747              	Menu_Enter:
 748              	.LFB56:
 382:../Src/main.c **** __weak void Menu_Enter(void) { }
 749              		.loc 1 382 30 view -0
 750              		.cfi_startproc
 751              		@ args = 0, pretend = 0, frame = 0
 752              		@ frame_needed = 0, uses_anonymous_args = 0
 753              		@ link register save eliminated.
 754              		.loc 1 382 32 view .LVU154
 755              		@ sp needed
 756 0000 7047     		bx	lr
 757              		.cfi_endproc
 758              	.LFE56:
 760              		.section	.text.Menu_ToggleMode,"ax",%progbits
 761              		.align	1
 762              		.weak	Menu_ToggleMode
 763              		.syntax unified
 764              		.code	16
 765              		.thumb_func
ARM GAS  C:\Users\Gautam\AppData\Local\Temp\cchduyDh.s 			page 37


 767              	Menu_ToggleMode:
 768              	.LFB57:
 383:../Src/main.c **** __weak void Menu_ToggleMode(void) { }
 769              		.loc 1 383 35 view -0
 770              		.cfi_startproc
 771              		@ args = 0, pretend = 0, frame = 0
 772              		@ frame_needed = 0, uses_anonymous_args = 0
 773              		@ link register save eliminated.
 774              		.loc 1 383 37 view .LVU156
 775              		@ sp needed
 776 0000 7047     		bx	lr
 777              		.cfi_endproc
 778              	.LFE57:
 780              		.section	.text.Menu_IsActive,"ax",%progbits
 781              		.align	1
 782              		.weak	Menu_IsActive
 783              		.syntax unified
 784              		.code	16
 785              		.thumb_func
 787              	Menu_IsActive:
 788              	.LFB58:
 384:../Src/main.c **** __weak bool Menu_IsActive(void) { return false; }
 789              		.loc 1 384 33 view -0
 790              		.cfi_startproc
 791              		@ args = 0, pretend = 0, frame = 0
 792              		@ frame_needed = 0, uses_anonymous_args = 0
 793              		@ link register save eliminated.
 794              		.loc 1 384 35 view .LVU158
 795              		.loc 1 384 49 is_stmt 0 view .LVU159
 796 0000 0020     		movs	r0, #0
 797              		@ sp needed
 798 0002 7047     		bx	lr
 799              		.cfi_endproc
 800              	.LFE58:
 802              		.section	.text.Task_10ms,"ax",%progbits
 803              		.align	1
 804              		.syntax unified
 805              		.code	16
 806              		.thumb_func
 808              	Task_10ms:
 809              	.LFB42:
 146:../Src/main.c ****     // Process button input
 810              		.loc 1 146 1 is_stmt 1 view -0
 811              		.cfi_startproc
 812              		@ args = 0, pretend = 0, frame = 0
 813              		@ frame_needed = 0, uses_anonymous_args = 0
 814 0000 10B5     		push	{r4, lr}
 815              	.LCFI13:
 816              		.cfi_def_cfa_offset 8
 817              		.cfi_offset 4, -8
 818              		.cfi_offset 14, -4
 148:../Src/main.c ****     
 819              		.loc 1 148 5 view .LVU161
 820 0002 FFF7FEFF 		bl	Button_Task
 821              	.LVL26:
 151:../Src/main.c ****         Menu_Task();
 822              		.loc 1 151 5 view .LVU162
ARM GAS  C:\Users\Gautam\AppData\Local\Temp\cchduyDh.s 			page 38


 151:../Src/main.c ****         Menu_Task();
 823              		.loc 1 151 24 is_stmt 0 view .LVU163
 824 0006 104B     		ldr	r3, .L39
 825 0008 1B78     		ldrb	r3, [r3]
 151:../Src/main.c ****         Menu_Task();
 826              		.loc 1 151 8 view .LVU164
 827 000a 042B     		cmp	r3, #4
 828 000c 0DD0     		beq	.L38
 829              	.L35:
 155:../Src/main.c ****         g_menu_was_active = true;
 830              		.loc 1 155 5 is_stmt 1 view .LVU165
 155:../Src/main.c ****         g_menu_was_active = true;
 831              		.loc 1 155 9 is_stmt 0 view .LVU166
 832 000e FFF7FEFF 		bl	Menu_IsActive
 833              	.LVL27:
 155:../Src/main.c ****         g_menu_was_active = true;
 834              		.loc 1 155 8 discriminator 1 view .LVU167
 835 0012 0028     		cmp	r0, #0
 836 0014 0CD0     		beq	.L36
 156:../Src/main.c ****         g_display_mode = DISPLAY_MENU;
 837              		.loc 1 156 9 is_stmt 1 view .LVU168
 156:../Src/main.c ****         g_display_mode = DISPLAY_MENU;
 838              		.loc 1 156 27 is_stmt 0 view .LVU169
 839 0016 0D4B     		ldr	r3, .L39+4
 840 0018 0122     		movs	r2, #1
 841 001a 1A70     		strb	r2, [r3]
 157:../Src/main.c ****         g_display_timer = 0;
 842              		.loc 1 157 9 is_stmt 1 view .LVU170
 157:../Src/main.c ****         g_display_timer = 0;
 843              		.loc 1 157 24 is_stmt 0 view .LVU171
 844 001c 0A4B     		ldr	r3, .L39
 845 001e 0332     		adds	r2, r2, #3
 846 0020 1A70     		strb	r2, [r3]
 158:../Src/main.c ****     } else if (g_menu_was_active) {
 847              		.loc 1 158 9 is_stmt 1 view .LVU172
 158:../Src/main.c ****     } else if (g_menu_was_active) {
 848              		.loc 1 158 25 is_stmt 0 view .LVU173
 849 0022 0B4B     		ldr	r3, .L39+8
 850 0024 0022     		movs	r2, #0
 851 0026 1A60     		str	r2, [r3]
 852              	.L34:
 164:../Src/main.c **** 
 853              		.loc 1 164 1 view .LVU174
 854              		@ sp needed
 855 0028 10BD     		pop	{r4, pc}
 856              	.L38:
 152:../Src/main.c ****     }
 857              		.loc 1 152 9 is_stmt 1 view .LVU175
 858 002a FFF7FEFF 		bl	Menu_Task
 859              	.LVL28:
 860 002e EEE7     		b	.L35
 861              	.L36:
 159:../Src/main.c ****         g_menu_was_active = false;
 862              		.loc 1 159 12 view .LVU176
 159:../Src/main.c ****         g_menu_was_active = false;
 863              		.loc 1 159 16 is_stmt 0 view .LVU177
 864 0030 064B     		ldr	r3, .L39+4
ARM GAS  C:\Users\Gautam\AppData\Local\Temp\cchduyDh.s 			page 39


 865 0032 1B78     		ldrb	r3, [r3]
 159:../Src/main.c ****         g_menu_was_active = false;
 866              		.loc 1 159 15 view .LVU178
 867 0034 002B     		cmp	r3, #0
 868 0036 F7D0     		beq	.L34
 160:../Src/main.c ****         g_display_mode = DISPLAY_VOLTAGE;
 869              		.loc 1 160 9 is_stmt 1 view .LVU179
 160:../Src/main.c ****         g_display_mode = DISPLAY_VOLTAGE;
 870              		.loc 1 160 27 is_stmt 0 view .LVU180
 871 0038 044A     		ldr	r2, .L39+4
 872 003a 0023     		movs	r3, #0
 873 003c 1370     		strb	r3, [r2]
 161:../Src/main.c ****         g_display_timer = 0;
 874              		.loc 1 161 9 is_stmt 1 view .LVU181
 161:../Src/main.c ****         g_display_timer = 0;
 875              		.loc 1 161 24 is_stmt 0 view .LVU182
 876 003e 024A     		ldr	r2, .L39
 877 0040 1370     		strb	r3, [r2]
 162:../Src/main.c ****     }
 878              		.loc 1 162 9 is_stmt 1 view .LVU183
 162:../Src/main.c ****     }
 879              		.loc 1 162 25 is_stmt 0 view .LVU184
 880 0042 034A     		ldr	r2, .L39+8
 881 0044 1360     		str	r3, [r2]
 164:../Src/main.c **** 
 882              		.loc 1 164 1 view .LVU185
 883 0046 EFE7     		b	.L34
 884              	.L40:
 885              		.align	2
 886              	.L39:
 887 0048 00000000 		.word	g_display_mode
 888 004c 00000000 		.word	g_menu_was_active
 889 0050 00000000 		.word	g_display_timer
 890              		.cfi_endproc
 891              	.LFE42:
 893              		.section	.text.Task_1sec,"ax",%progbits
 894              		.align	1
 895              		.syntax unified
 896              		.code	16
 897              		.thumb_func
 899              	Task_1sec:
 900              	.LFB44:
 194:../Src/main.c ****     ChargerState_t state = ChargerSM_GetState();
 901              		.loc 1 194 1 is_stmt 1 view -0
 902              		.cfi_startproc
 903              		@ args = 0, pretend = 0, frame = 0
 904              		@ frame_needed = 0, uses_anonymous_args = 0
 905 0000 10B5     		push	{r4, lr}
 906              	.LCFI14:
 907              		.cfi_def_cfa_offset 8
 908              		.cfi_offset 4, -8
 909              		.cfi_offset 14, -4
 195:../Src/main.c ****     
 910              		.loc 1 195 5 view .LVU187
 195:../Src/main.c ****     
 911              		.loc 1 195 28 is_stmt 0 view .LVU188
 912 0002 FFF7FEFF 		bl	ChargerSM_GetState
ARM GAS  C:\Users\Gautam\AppData\Local\Temp\cchduyDh.s 			page 40


 913              	.LVL29:
 199:../Src/main.c ****         g_display_mode = DISPLAY_FAULT_CODE;
 914              		.loc 1 199 5 is_stmt 1 view .LVU189
 199:../Src/main.c ****         g_display_mode = DISPLAY_FAULT_CODE;
 915              		.loc 1 199 8 is_stmt 0 view .LVU190
 916 0006 0A28     		cmp	r0, #10
 917 0008 03D1     		bne	.L42
 200:../Src/main.c ****     }
 918              		.loc 1 200 9 is_stmt 1 view .LVU191
 200:../Src/main.c ****     }
 919              		.loc 1 200 24 is_stmt 0 view .LVU192
 920 000a 134B     		ldr	r3, .L48
 921 000c 0322     		movs	r2, #3
 922 000e 1A70     		strb	r2, [r3]
 923              	.LVL30:
 924              	.L41:
 219:../Src/main.c **** 
 925              		.loc 1 219 1 view .LVU193
 926              		@ sp needed
 927 0010 10BD     		pop	{r4, pc}
 928              	.LVL31:
 929              	.L42:
 203:../Src/main.c ****         g_display_mode = DISPLAY_MENU;
 930              		.loc 1 203 10 is_stmt 1 view .LVU194
 203:../Src/main.c ****         g_display_mode = DISPLAY_MENU;
 931              		.loc 1 203 14 is_stmt 0 view .LVU195
 932 0012 FFF7FEFF 		bl	Menu_IsActive
 933              	.LVL32:
 203:../Src/main.c ****         g_display_mode = DISPLAY_MENU;
 934              		.loc 1 203 13 discriminator 1 view .LVU196
 935 0016 0028     		cmp	r0, #0
 936 0018 03D0     		beq	.L44
 204:../Src/main.c ****     }
 937              		.loc 1 204 9 is_stmt 1 view .LVU197
 204:../Src/main.c ****     }
 938              		.loc 1 204 24 is_stmt 0 view .LVU198
 939 001a 0F4B     		ldr	r3, .L48
 940 001c 0422     		movs	r2, #4
 941 001e 1A70     		strb	r2, [r3]
 942 0020 F6E7     		b	.L41
 943              	.L44:
 207:../Src/main.c ****         g_display_timer++;
 944              		.loc 1 207 10 is_stmt 1 view .LVU199
 207:../Src/main.c ****         g_display_timer++;
 945              		.loc 1 207 14 is_stmt 0 view .LVU200
 946 0022 FFF7FEFF 		bl	ChargerSM_IsCharging
 947              	.LVL33:
 207:../Src/main.c ****         g_display_timer++;
 948              		.loc 1 207 13 discriminator 1 view .LVU201
 949 0026 0028     		cmp	r0, #0
 950 0028 12D0     		beq	.L45
 208:../Src/main.c ****         if (g_display_timer >= 10) {  // Every 10 seconds
 951              		.loc 1 208 9 is_stmt 1 view .LVU202
 208:../Src/main.c ****         if (g_display_timer >= 10) {  // Every 10 seconds
 952              		.loc 1 208 24 is_stmt 0 view .LVU203
 953 002a 0C4A     		ldr	r2, .L48+4
 954 002c 1368     		ldr	r3, [r2]
ARM GAS  C:\Users\Gautam\AppData\Local\Temp\cchduyDh.s 			page 41


 955 002e 0133     		adds	r3, r3, #1
 956 0030 1360     		str	r3, [r2]
 209:../Src/main.c ****             g_display_timer = 0;
 957              		.loc 1 209 9 is_stmt 1 view .LVU204
 209:../Src/main.c ****             g_display_timer = 0;
 958              		.loc 1 209 12 is_stmt 0 view .LVU205
 959 0032 092B     		cmp	r3, #9
 960 0034 ECD9     		bls	.L41
 210:../Src/main.c ****             g_display_mode = (g_display_mode == DISPLAY_VOLTAGE) 
 961              		.loc 1 210 13 is_stmt 1 view .LVU206
 210:../Src/main.c ****             g_display_mode = (g_display_mode == DISPLAY_VOLTAGE) 
 962              		.loc 1 210 29 is_stmt 0 view .LVU207
 963 0036 1300     		movs	r3, r2
 964 0038 0022     		movs	r2, #0
 965 003a 1A60     		str	r2, [r3]
 211:../Src/main.c ****                            ? DISPLAY_SOC : DISPLAY_VOLTAGE;
 966              		.loc 1 211 13 is_stmt 1 view .LVU208
 211:../Src/main.c ****                            ? DISPLAY_SOC : DISPLAY_VOLTAGE;
 967              		.loc 1 211 46 is_stmt 0 view .LVU209
 968 003c 064B     		ldr	r3, .L48
 969 003e 1B78     		ldrb	r3, [r3]
 212:../Src/main.c ****         }
 970              		.loc 1 212 42 view .LVU210
 971 0040 002B     		cmp	r3, #0
 972 0042 03D1     		bne	.L47
 212:../Src/main.c ****         }
 973              		.loc 1 212 42 discriminator 1 view .LVU211
 974 0044 0232     		adds	r2, r2, #2
 975              	.L46:
 211:../Src/main.c ****                            ? DISPLAY_SOC : DISPLAY_VOLTAGE;
 976              		.loc 1 211 28 view .LVU212
 977 0046 044B     		ldr	r3, .L48
 978 0048 1A70     		strb	r2, [r3]
 979 004a E1E7     		b	.L41
 980              	.L47:
 212:../Src/main.c ****         }
 981              		.loc 1 212 42 discriminator 2 view .LVU213
 982 004c 0022     		movs	r2, #0
 983 004e FAE7     		b	.L46
 984              	.L45:
 217:../Src/main.c ****     }
 985              		.loc 1 217 9 is_stmt 1 view .LVU214
 217:../Src/main.c ****     }
 986              		.loc 1 217 24 is_stmt 0 view .LVU215
 987 0050 014B     		ldr	r3, .L48
 988 0052 0022     		movs	r2, #0
 989 0054 1A70     		strb	r2, [r3]
 219:../Src/main.c **** 
 990              		.loc 1 219 1 view .LVU216
 991 0056 DBE7     		b	.L41
 992              	.L49:
 993              		.align	2
 994              	.L48:
 995 0058 00000000 		.word	g_display_mode
 996 005c 00000000 		.word	g_display_timer
 997              		.cfi_endproc
 998              	.LFE44:
ARM GAS  C:\Users\Gautam\AppData\Local\Temp\cchduyDh.s 			page 42


 1000              		.section	.text.Menu_OnButtonPress,"ax",%progbits
 1001              		.align	1
 1002              		.weak	Menu_OnButtonPress
 1003              		.syntax unified
 1004              		.code	16
 1005              		.thumb_func
 1007              	Menu_OnButtonPress:
 1008              	.LFB59:
 385:../Src/main.c **** __weak void Menu_OnButtonPress(void) { }
 1009              		.loc 1 385 38 is_stmt 1 view -0
 1010              		.cfi_startproc
 1011              		@ args = 0, pretend = 0, frame = 0
 1012              		@ frame_needed = 0, uses_anonymous_args = 0
 1013              		@ link register save eliminated.
 1014              		.loc 1 385 40 view .LVU218
 1015              		@ sp needed
 1016 0000 7047     		bx	lr
 1017              		.cfi_endproc
 1018              	.LFE59:
 1020              		.section	.text.Menu_UpdateDisplay,"ax",%progbits
 1021              		.align	1
 1022              		.weak	Menu_UpdateDisplay
 1023              		.syntax unified
 1024              		.code	16
 1025              		.thumb_func
 1027              	Menu_UpdateDisplay:
 1028              	.LFB60:
 386:../Src/main.c **** __weak void Menu_UpdateDisplay(void) { }
 1029              		.loc 1 386 38 view -0
 1030              		.cfi_startproc
 1031              		@ args = 0, pretend = 0, frame = 0
 1032              		@ frame_needed = 0, uses_anonymous_args = 0
 1033              		@ link register save eliminated.
 1034              		.loc 1 386 40 view .LVU220
 1035              		@ sp needed
 1036 0000 7047     		bx	lr
 1037              		.cfi_endproc
 1038              	.LFE60:
 1040              		.section	.text.TM1637_Init,"ax",%progbits
 1041              		.align	1
 1042              		.weak	TM1637_Init
 1043              		.syntax unified
 1044              		.code	16
 1045              		.thumb_func
 1047              	TM1637_Init:
 1048              	.LFB61:
 387:../Src/main.c **** __weak void TM1637_Init(void) { }
 1049              		.loc 1 387 31 view -0
 1050              		.cfi_startproc
 1051              		@ args = 0, pretend = 0, frame = 0
 1052              		@ frame_needed = 0, uses_anonymous_args = 0
 1053              		@ link register save eliminated.
 1054              		.loc 1 387 33 view .LVU222
 1055              		@ sp needed
 1056 0000 7047     		bx	lr
 1057              		.cfi_endproc
 1058              	.LFE61:
ARM GAS  C:\Users\Gautam\AppData\Local\Temp\cchduyDh.s 			page 43


 1060              		.section	.text.main,"ax",%progbits
 1061              		.align	1
 1062              		.global	main
 1063              		.syntax unified
 1064              		.code	16
 1065              		.thumb_func
 1067              	main:
 1068              	.LFB51:
 349:../Src/main.c ****     // System initialization
 1069              		.loc 1 349 1 view -0
 1070              		.cfi_startproc
 1071              		@ Volatile: function does not return.
 1072              		@ args = 0, pretend = 0, frame = 0
 1073              		@ frame_needed = 0, uses_anonymous_args = 0
 1074 0000 10B5     		push	{r4, lr}
 1075              	.LCFI15:
 1076              		.cfi_def_cfa_offset 8
 1077              		.cfi_offset 4, -8
 1078              		.cfi_offset 14, -4
 351:../Src/main.c ****     SystemInit_GPIO();
 1079              		.loc 1 351 5 view .LVU224
 352:../Src/main.c ****     SystemInit_Timer();
 1080              		.loc 1 352 5 view .LVU225
 1081 0002 FFF7FEFF 		bl	SystemInit_GPIO
 1082              	.LVL34:
 353:../Src/main.c ****     SystemInit_ADC();
 1083              		.loc 1 353 5 view .LVU226
 1084 0006 FFF7FEFF 		bl	SystemInit_Timer
 1085              	.LVL35:
 354:../Src/main.c ****     
 1086              		.loc 1 354 5 view .LVU227
 1087 000a FFF7FEFF 		bl	SystemInit_ADC
 1088              	.LVL36:
 357:../Src/main.c ****     Menu_Init();
 1089              		.loc 1 357 5 view .LVU228
 1090 000e FFF7FEFF 		bl	Button_Init
 1091              	.LVL37:
 358:../Src/main.c ****     TM1637_Init();
 1092              		.loc 1 358 5 view .LVU229
 1093 0012 FFF7FEFF 		bl	Menu_Init
 1094              	.LVL38:
 359:../Src/main.c ****     ChargerInit();
 1095              		.loc 1 359 5 view .LVU230
 1096 0016 FFF7FEFF 		bl	TM1637_Init
 1097              	.LVL39:
 360:../Src/main.c **** 
 1098              		.loc 1 360 5 view .LVU231
 1099 001a FFF7FEFF 		bl	ChargerInit
 1100              	.LVL40:
 362:../Src/main.c **** 
 1101              		.loc 1 362 5 view .LVU232
 1102              	.LBB18:
 1103              	.LBI18:
 1104              		.file 3 "../../../PY32F002B_Firmware_V1.2.1/PY32F002B_Firmware_V1.2.1/Drivers/CMSIS/Include/cmsis_
   1:../../../PY32F002B_Firmware_V1.2.1/PY32F002B_Firmware_V1.2.1/Drivers/CMSIS/Include/cmsis_gcc.h **** /**************************************************************************//**
   2:../../../PY32F002B_Firmware_V1.2.1/PY32F002B_Firmware_V1.2.1/Drivers/CMSIS/Include/cmsis_gcc.h ****  * @file     cmsis_gcc.h
   3:../../../PY32F002B_Firmware_V1.2.1/PY32F002B_Firmware_V1.2.1/Drivers/CMSIS/Include/cmsis_gcc.h ****  * @brief    CMSIS Cortex-M Core Function/Instruction Header File
ARM GAS  C:\Users\Gautam\AppData\Local\Temp\cchduyDh.s 			page 44


   4:../../../PY32F002B_Firmware_V1.2.1/PY32F002B_Firmware_V1.2.1/Drivers/CMSIS/Include/cmsis_gcc.h ****  * @version  V4.30
   5:../../../PY32F002B_Firmware_V1.2.1/PY32F002B_Firmware_V1.2.1/Drivers/CMSIS/Include/cmsis_gcc.h ****  * @date     20. October 2015
   6:../../../PY32F002B_Firmware_V1.2.1/PY32F002B_Firmware_V1.2.1/Drivers/CMSIS/Include/cmsis_gcc.h ****  ******************************************************************************/
   7:../../../PY32F002B_Firmware_V1.2.1/PY32F002B_Firmware_V1.2.1/Drivers/CMSIS/Include/cmsis_gcc.h **** /* Copyright (c) 2009 - 2015 ARM LIMITED
   8:../../../PY32F002B_Firmware_V1.2.1/PY32F002B_Firmware_V1.2.1/Drivers/CMSIS/Include/cmsis_gcc.h **** 
   9:../../../PY32F002B_Firmware_V1.2.1/PY32F002B_Firmware_V1.2.1/Drivers/CMSIS/Include/cmsis_gcc.h ****    All rights reserved.
  10:../../../PY32F002B_Firmware_V1.2.1/PY32F002B_Firmware_V1.2.1/Drivers/CMSIS/Include/cmsis_gcc.h ****    Redistribution and use in source and binary forms, with or without
  11:../../../PY32F002B_Firmware_V1.2.1/PY32F002B_Firmware_V1.2.1/Drivers/CMSIS/Include/cmsis_gcc.h ****    modification, are permitted provided that the following conditions are met:
  12:../../../PY32F002B_Firmware_V1.2.1/PY32F002B_Firmware_V1.2.1/Drivers/CMSIS/Include/cmsis_gcc.h ****    - Redistributions of source code must retain the above copyright
  13:../../../PY32F002B_Firmware_V1.2.1/PY32F002B_Firmware_V1.2.1/Drivers/CMSIS/Include/cmsis_gcc.h ****      notice, this list of conditions and the following disclaimer.
  14:../../../PY32F002B_Firmware_V1.2.1/PY32F002B_Firmware_V1.2.1/Drivers/CMSIS/Include/cmsis_gcc.h ****    - Redistributions in binary form must reproduce the above copyright
  15:../../../PY32F002B_Firmware_V1.2.1/PY32F002B_Firmware_V1.2.1/Drivers/CMSIS/Include/cmsis_gcc.h ****      notice, this list of conditions and the following disclaimer in the
  16:../../../PY32F002B_Firmware_V1.2.1/PY32F002B_Firmware_V1.2.1/Drivers/CMSIS/Include/cmsis_gcc.h ****      documentation and/or other materials provided with the distribution.
  17:../../../PY32F002B_Firmware_V1.2.1/PY32F002B_Firmware_V1.2.1/Drivers/CMSIS/Include/cmsis_gcc.h ****    - Neither the name of ARM nor the names of its contributors may be used
  18:../../../PY32F002B_Firmware_V1.2.1/PY32F002B_Firmware_V1.2.1/Drivers/CMSIS/Include/cmsis_gcc.h ****      to endorse or promote products derived from this software without
  19:../../../PY32F002B_Firmware_V1.2.1/PY32F002B_Firmware_V1.2.1/Drivers/CMSIS/Include/cmsis_gcc.h ****      specific prior written permission.
  20:../../../PY32F002B_Firmware_V1.2.1/PY32F002B_Firmware_V1.2.1/Drivers/CMSIS/Include/cmsis_gcc.h ****    *
  21:../../../PY32F002B_Firmware_V1.2.1/PY32F002B_Firmware_V1.2.1/Drivers/CMSIS/Include/cmsis_gcc.h ****    THIS SOFTWARE IS PROVIDED BY THE COPYRIGHT HOLDERS AND CONTRIBUTORS "AS IS"
  22:../../../PY32F002B_Firmware_V1.2.1/PY32F002B_Firmware_V1.2.1/Drivers/CMSIS/Include/cmsis_gcc.h ****    AND ANY EXPRESS OR IMPLIED WARRANTIES, INCLUDING, BUT NOT LIMITED TO, THE
  23:../../../PY32F002B_Firmware_V1.2.1/PY32F002B_Firmware_V1.2.1/Drivers/CMSIS/Include/cmsis_gcc.h ****    IMPLIED WARRANTIES OF MERCHANTABILITY AND FITNESS FOR A PARTICULAR PURPOSE
  24:../../../PY32F002B_Firmware_V1.2.1/PY32F002B_Firmware_V1.2.1/Drivers/CMSIS/Include/cmsis_gcc.h ****    ARE DISCLAIMED. IN NO EVENT SHALL COPYRIGHT HOLDERS AND CONTRIBUTORS BE
  25:../../../PY32F002B_Firmware_V1.2.1/PY32F002B_Firmware_V1.2.1/Drivers/CMSIS/Include/cmsis_gcc.h ****    LIABLE FOR ANY DIRECT, INDIRECT, INCIDENTAL, SPECIAL, EXEMPLARY, OR
  26:../../../PY32F002B_Firmware_V1.2.1/PY32F002B_Firmware_V1.2.1/Drivers/CMSIS/Include/cmsis_gcc.h ****    CONSEQUENTIAL DAMAGES (INCLUDING, BUT NOT LIMITED TO, PROCUREMENT OF
  27:../../../PY32F002B_Firmware_V1.2.1/PY32F002B_Firmware_V1.2.1/Drivers/CMSIS/Include/cmsis_gcc.h ****    SUBSTITUTE GOODS OR SERVICES; LOSS OF USE, DATA, OR PROFITS; OR BUSINESS
  28:../../../PY32F002B_Firmware_V1.2.1/PY32F002B_Firmware_V1.2.1/Drivers/CMSIS/Include/cmsis_gcc.h ****    INTERRUPTION) HOWEVER CAUSED AND ON ANY THEORY OF LIABILITY, WHETHER IN
  29:../../../PY32F002B_Firmware_V1.2.1/PY32F002B_Firmware_V1.2.1/Drivers/CMSIS/Include/cmsis_gcc.h ****    CONTRACT, STRICT LIABILITY, OR TORT (INCLUDING NEGLIGENCE OR OTHERWISE)
  30:../../../PY32F002B_Firmware_V1.2.1/PY32F002B_Firmware_V1.2.1/Drivers/CMSIS/Include/cmsis_gcc.h ****    ARISING IN ANY WAY OUT OF THE USE OF THIS SOFTWARE, EVEN IF ADVISED OF THE
  31:../../../PY32F002B_Firmware_V1.2.1/PY32F002B_Firmware_V1.2.1/Drivers/CMSIS/Include/cmsis_gcc.h ****    POSSIBILITY OF SUCH DAMAGE.
  32:../../../PY32F002B_Firmware_V1.2.1/PY32F002B_Firmware_V1.2.1/Drivers/CMSIS/Include/cmsis_gcc.h ****    ---------------------------------------------------------------------------*/
  33:../../../PY32F002B_Firmware_V1.2.1/PY32F002B_Firmware_V1.2.1/Drivers/CMSIS/Include/cmsis_gcc.h **** 
  34:../../../PY32F002B_Firmware_V1.2.1/PY32F002B_Firmware_V1.2.1/Drivers/CMSIS/Include/cmsis_gcc.h **** 
  35:../../../PY32F002B_Firmware_V1.2.1/PY32F002B_Firmware_V1.2.1/Drivers/CMSIS/Include/cmsis_gcc.h **** #ifndef __CMSIS_GCC_H
  36:../../../PY32F002B_Firmware_V1.2.1/PY32F002B_Firmware_V1.2.1/Drivers/CMSIS/Include/cmsis_gcc.h **** #define __CMSIS_GCC_H
  37:../../../PY32F002B_Firmware_V1.2.1/PY32F002B_Firmware_V1.2.1/Drivers/CMSIS/Include/cmsis_gcc.h **** 
  38:../../../PY32F002B_Firmware_V1.2.1/PY32F002B_Firmware_V1.2.1/Drivers/CMSIS/Include/cmsis_gcc.h **** /* ignore some GCC warnings */
  39:../../../PY32F002B_Firmware_V1.2.1/PY32F002B_Firmware_V1.2.1/Drivers/CMSIS/Include/cmsis_gcc.h **** #if defined ( __GNUC__ )
  40:../../../PY32F002B_Firmware_V1.2.1/PY32F002B_Firmware_V1.2.1/Drivers/CMSIS/Include/cmsis_gcc.h **** #pragma GCC diagnostic push
  41:../../../PY32F002B_Firmware_V1.2.1/PY32F002B_Firmware_V1.2.1/Drivers/CMSIS/Include/cmsis_gcc.h **** #pragma GCC diagnostic ignored "-Wsign-conversion"
  42:../../../PY32F002B_Firmware_V1.2.1/PY32F002B_Firmware_V1.2.1/Drivers/CMSIS/Include/cmsis_gcc.h **** #pragma GCC diagnostic ignored "-Wconversion"
  43:../../../PY32F002B_Firmware_V1.2.1/PY32F002B_Firmware_V1.2.1/Drivers/CMSIS/Include/cmsis_gcc.h **** #pragma GCC diagnostic ignored "-Wunused-parameter"
  44:../../../PY32F002B_Firmware_V1.2.1/PY32F002B_Firmware_V1.2.1/Drivers/CMSIS/Include/cmsis_gcc.h **** #endif
  45:../../../PY32F002B_Firmware_V1.2.1/PY32F002B_Firmware_V1.2.1/Drivers/CMSIS/Include/cmsis_gcc.h **** 
  46:../../../PY32F002B_Firmware_V1.2.1/PY32F002B_Firmware_V1.2.1/Drivers/CMSIS/Include/cmsis_gcc.h **** 
  47:../../../PY32F002B_Firmware_V1.2.1/PY32F002B_Firmware_V1.2.1/Drivers/CMSIS/Include/cmsis_gcc.h **** /* ###########################  Core Function Access  ########################### */
  48:../../../PY32F002B_Firmware_V1.2.1/PY32F002B_Firmware_V1.2.1/Drivers/CMSIS/Include/cmsis_gcc.h **** /** \ingroup  CMSIS_Core_FunctionInterface
  49:../../../PY32F002B_Firmware_V1.2.1/PY32F002B_Firmware_V1.2.1/Drivers/CMSIS/Include/cmsis_gcc.h ****     \defgroup CMSIS_Core_RegAccFunctions CMSIS Core Register Access Functions
  50:../../../PY32F002B_Firmware_V1.2.1/PY32F002B_Firmware_V1.2.1/Drivers/CMSIS/Include/cmsis_gcc.h ****   @{
  51:../../../PY32F002B_Firmware_V1.2.1/PY32F002B_Firmware_V1.2.1/Drivers/CMSIS/Include/cmsis_gcc.h ****  */
  52:../../../PY32F002B_Firmware_V1.2.1/PY32F002B_Firmware_V1.2.1/Drivers/CMSIS/Include/cmsis_gcc.h **** 
  53:../../../PY32F002B_Firmware_V1.2.1/PY32F002B_Firmware_V1.2.1/Drivers/CMSIS/Include/cmsis_gcc.h **** /**
  54:../../../PY32F002B_Firmware_V1.2.1/PY32F002B_Firmware_V1.2.1/Drivers/CMSIS/Include/cmsis_gcc.h ****   \brief   Enable IRQ Interrupts
  55:../../../PY32F002B_Firmware_V1.2.1/PY32F002B_Firmware_V1.2.1/Drivers/CMSIS/Include/cmsis_gcc.h ****   \details Enables IRQ interrupts by clearing the I-bit in the CPSR.
  56:../../../PY32F002B_Firmware_V1.2.1/PY32F002B_Firmware_V1.2.1/Drivers/CMSIS/Include/cmsis_gcc.h ****            Can only be executed in Privileged modes.
  57:../../../PY32F002B_Firmware_V1.2.1/PY32F002B_Firmware_V1.2.1/Drivers/CMSIS/Include/cmsis_gcc.h ****  */
  58:../../../PY32F002B_Firmware_V1.2.1/PY32F002B_Firmware_V1.2.1/Drivers/CMSIS/Include/cmsis_gcc.h **** __attribute__( ( always_inline ) ) __STATIC_INLINE void __enable_irq(void)
 1105              		.loc 3 58 57 view .LVU233
 1106              	.LBB19:
ARM GAS  C:\Users\Gautam\AppData\Local\Temp\cchduyDh.s 			page 45


  59:../../../PY32F002B_Firmware_V1.2.1/PY32F002B_Firmware_V1.2.1/Drivers/CMSIS/Include/cmsis_gcc.h **** {
  60:../../../PY32F002B_Firmware_V1.2.1/PY32F002B_Firmware_V1.2.1/Drivers/CMSIS/Include/cmsis_gcc.h ****   __ASM volatile ("cpsie i" : : : "memory");
 1107              		.loc 3 60 3 view .LVU234
 1108              		.syntax divided
 1109              	@ 60 "../../../PY32F002B_Firmware_V1.2.1/PY32F002B_Firmware_V1.2.1/Drivers/CMSIS/Include/cmsis_gcc.
 1110 001e 62B6     		cpsie i
 1111              	@ 0 "" 2
 1112              		.thumb
 1113              		.syntax unified
 1114              	.LBE19:
 1115              	.LBE18:
 364:../Src/main.c ****     
 1116              		.loc 1 364 5 view .LVU235
 1117 0020 D220     		movs	r0, #210
 1118 0022 4001     		lsls	r0, r0, #5
 1119 0024 FFF7FEFF 		bl	TM1637_DisplayVoltage
 1120              	.LVL41:
 1121              	.L54:
 367:../Src/main.c ****         __WFI();  // Wait for interrupt
 1122              		.loc 1 367 5 view .LVU236
 368:../Src/main.c ****     }
 1123              		.loc 1 368 9 discriminator 1 view .LVU237
 1124              	.LBB20:
 1125              	.LBI20:
  61:../../../PY32F002B_Firmware_V1.2.1/PY32F002B_Firmware_V1.2.1/Drivers/CMSIS/Include/cmsis_gcc.h **** }
  62:../../../PY32F002B_Firmware_V1.2.1/PY32F002B_Firmware_V1.2.1/Drivers/CMSIS/Include/cmsis_gcc.h **** 
  63:../../../PY32F002B_Firmware_V1.2.1/PY32F002B_Firmware_V1.2.1/Drivers/CMSIS/Include/cmsis_gcc.h **** 
  64:../../../PY32F002B_Firmware_V1.2.1/PY32F002B_Firmware_V1.2.1/Drivers/CMSIS/Include/cmsis_gcc.h **** /**
  65:../../../PY32F002B_Firmware_V1.2.1/PY32F002B_Firmware_V1.2.1/Drivers/CMSIS/Include/cmsis_gcc.h ****   \brief   Disable IRQ Interrupts
  66:../../../PY32F002B_Firmware_V1.2.1/PY32F002B_Firmware_V1.2.1/Drivers/CMSIS/Include/cmsis_gcc.h ****   \details Disables IRQ interrupts by setting the I-bit in the CPSR.
  67:../../../PY32F002B_Firmware_V1.2.1/PY32F002B_Firmware_V1.2.1/Drivers/CMSIS/Include/cmsis_gcc.h ****   Can only be executed in Privileged modes.
  68:../../../PY32F002B_Firmware_V1.2.1/PY32F002B_Firmware_V1.2.1/Drivers/CMSIS/Include/cmsis_gcc.h ****  */
  69:../../../PY32F002B_Firmware_V1.2.1/PY32F002B_Firmware_V1.2.1/Drivers/CMSIS/Include/cmsis_gcc.h **** __attribute__( ( always_inline ) ) __STATIC_INLINE void __disable_irq(void)
  70:../../../PY32F002B_Firmware_V1.2.1/PY32F002B_Firmware_V1.2.1/Drivers/CMSIS/Include/cmsis_gcc.h **** {
  71:../../../PY32F002B_Firmware_V1.2.1/PY32F002B_Firmware_V1.2.1/Drivers/CMSIS/Include/cmsis_gcc.h ****   __ASM volatile ("cpsid i" : : : "memory");
  72:../../../PY32F002B_Firmware_V1.2.1/PY32F002B_Firmware_V1.2.1/Drivers/CMSIS/Include/cmsis_gcc.h **** }
  73:../../../PY32F002B_Firmware_V1.2.1/PY32F002B_Firmware_V1.2.1/Drivers/CMSIS/Include/cmsis_gcc.h **** 
  74:../../../PY32F002B_Firmware_V1.2.1/PY32F002B_Firmware_V1.2.1/Drivers/CMSIS/Include/cmsis_gcc.h **** 
  75:../../../PY32F002B_Firmware_V1.2.1/PY32F002B_Firmware_V1.2.1/Drivers/CMSIS/Include/cmsis_gcc.h **** /**
  76:../../../PY32F002B_Firmware_V1.2.1/PY32F002B_Firmware_V1.2.1/Drivers/CMSIS/Include/cmsis_gcc.h ****   \brief   Get Control Register
  77:../../../PY32F002B_Firmware_V1.2.1/PY32F002B_Firmware_V1.2.1/Drivers/CMSIS/Include/cmsis_gcc.h ****   \details Returns the content of the Control Register.
  78:../../../PY32F002B_Firmware_V1.2.1/PY32F002B_Firmware_V1.2.1/Drivers/CMSIS/Include/cmsis_gcc.h ****   \return               Control Register value
  79:../../../PY32F002B_Firmware_V1.2.1/PY32F002B_Firmware_V1.2.1/Drivers/CMSIS/Include/cmsis_gcc.h ****  */
  80:../../../PY32F002B_Firmware_V1.2.1/PY32F002B_Firmware_V1.2.1/Drivers/CMSIS/Include/cmsis_gcc.h **** __attribute__( ( always_inline ) ) __STATIC_INLINE uint32_t __get_CONTROL(void)
  81:../../../PY32F002B_Firmware_V1.2.1/PY32F002B_Firmware_V1.2.1/Drivers/CMSIS/Include/cmsis_gcc.h **** {
  82:../../../PY32F002B_Firmware_V1.2.1/PY32F002B_Firmware_V1.2.1/Drivers/CMSIS/Include/cmsis_gcc.h ****   uint32_t result;
  83:../../../PY32F002B_Firmware_V1.2.1/PY32F002B_Firmware_V1.2.1/Drivers/CMSIS/Include/cmsis_gcc.h **** 
  84:../../../PY32F002B_Firmware_V1.2.1/PY32F002B_Firmware_V1.2.1/Drivers/CMSIS/Include/cmsis_gcc.h ****   __ASM volatile ("MRS %0, control" : "=r" (result) );
  85:../../../PY32F002B_Firmware_V1.2.1/PY32F002B_Firmware_V1.2.1/Drivers/CMSIS/Include/cmsis_gcc.h ****   return(result);
  86:../../../PY32F002B_Firmware_V1.2.1/PY32F002B_Firmware_V1.2.1/Drivers/CMSIS/Include/cmsis_gcc.h **** }
  87:../../../PY32F002B_Firmware_V1.2.1/PY32F002B_Firmware_V1.2.1/Drivers/CMSIS/Include/cmsis_gcc.h **** 
  88:../../../PY32F002B_Firmware_V1.2.1/PY32F002B_Firmware_V1.2.1/Drivers/CMSIS/Include/cmsis_gcc.h **** 
  89:../../../PY32F002B_Firmware_V1.2.1/PY32F002B_Firmware_V1.2.1/Drivers/CMSIS/Include/cmsis_gcc.h **** /**
  90:../../../PY32F002B_Firmware_V1.2.1/PY32F002B_Firmware_V1.2.1/Drivers/CMSIS/Include/cmsis_gcc.h ****   \brief   Set Control Register
  91:../../../PY32F002B_Firmware_V1.2.1/PY32F002B_Firmware_V1.2.1/Drivers/CMSIS/Include/cmsis_gcc.h ****   \details Writes the given value to the Control Register.
  92:../../../PY32F002B_Firmware_V1.2.1/PY32F002B_Firmware_V1.2.1/Drivers/CMSIS/Include/cmsis_gcc.h ****   \param [in]    control  Control Register value to set
  93:../../../PY32F002B_Firmware_V1.2.1/PY32F002B_Firmware_V1.2.1/Drivers/CMSIS/Include/cmsis_gcc.h ****  */
ARM GAS  C:\Users\Gautam\AppData\Local\Temp\cchduyDh.s 			page 46


  94:../../../PY32F002B_Firmware_V1.2.1/PY32F002B_Firmware_V1.2.1/Drivers/CMSIS/Include/cmsis_gcc.h **** __attribute__( ( always_inline ) ) __STATIC_INLINE void __set_CONTROL(uint32_t control)
  95:../../../PY32F002B_Firmware_V1.2.1/PY32F002B_Firmware_V1.2.1/Drivers/CMSIS/Include/cmsis_gcc.h **** {
  96:../../../PY32F002B_Firmware_V1.2.1/PY32F002B_Firmware_V1.2.1/Drivers/CMSIS/Include/cmsis_gcc.h ****   __ASM volatile ("MSR control, %0" : : "r" (control) : "memory");
  97:../../../PY32F002B_Firmware_V1.2.1/PY32F002B_Firmware_V1.2.1/Drivers/CMSIS/Include/cmsis_gcc.h **** }
  98:../../../PY32F002B_Firmware_V1.2.1/PY32F002B_Firmware_V1.2.1/Drivers/CMSIS/Include/cmsis_gcc.h **** 
  99:../../../PY32F002B_Firmware_V1.2.1/PY32F002B_Firmware_V1.2.1/Drivers/CMSIS/Include/cmsis_gcc.h **** 
 100:../../../PY32F002B_Firmware_V1.2.1/PY32F002B_Firmware_V1.2.1/Drivers/CMSIS/Include/cmsis_gcc.h **** /**
 101:../../../PY32F002B_Firmware_V1.2.1/PY32F002B_Firmware_V1.2.1/Drivers/CMSIS/Include/cmsis_gcc.h ****   \brief   Get IPSR Register
 102:../../../PY32F002B_Firmware_V1.2.1/PY32F002B_Firmware_V1.2.1/Drivers/CMSIS/Include/cmsis_gcc.h ****   \details Returns the content of the IPSR Register.
 103:../../../PY32F002B_Firmware_V1.2.1/PY32F002B_Firmware_V1.2.1/Drivers/CMSIS/Include/cmsis_gcc.h ****   \return               IPSR Register value
 104:../../../PY32F002B_Firmware_V1.2.1/PY32F002B_Firmware_V1.2.1/Drivers/CMSIS/Include/cmsis_gcc.h ****  */
 105:../../../PY32F002B_Firmware_V1.2.1/PY32F002B_Firmware_V1.2.1/Drivers/CMSIS/Include/cmsis_gcc.h **** __attribute__( ( always_inline ) ) __STATIC_INLINE uint32_t __get_IPSR(void)
 106:../../../PY32F002B_Firmware_V1.2.1/PY32F002B_Firmware_V1.2.1/Drivers/CMSIS/Include/cmsis_gcc.h **** {
 107:../../../PY32F002B_Firmware_V1.2.1/PY32F002B_Firmware_V1.2.1/Drivers/CMSIS/Include/cmsis_gcc.h ****   uint32_t result;
 108:../../../PY32F002B_Firmware_V1.2.1/PY32F002B_Firmware_V1.2.1/Drivers/CMSIS/Include/cmsis_gcc.h **** 
 109:../../../PY32F002B_Firmware_V1.2.1/PY32F002B_Firmware_V1.2.1/Drivers/CMSIS/Include/cmsis_gcc.h ****   __ASM volatile ("MRS %0, ipsr" : "=r" (result) );
 110:../../../PY32F002B_Firmware_V1.2.1/PY32F002B_Firmware_V1.2.1/Drivers/CMSIS/Include/cmsis_gcc.h ****   return(result);
 111:../../../PY32F002B_Firmware_V1.2.1/PY32F002B_Firmware_V1.2.1/Drivers/CMSIS/Include/cmsis_gcc.h **** }
 112:../../../PY32F002B_Firmware_V1.2.1/PY32F002B_Firmware_V1.2.1/Drivers/CMSIS/Include/cmsis_gcc.h **** 
 113:../../../PY32F002B_Firmware_V1.2.1/PY32F002B_Firmware_V1.2.1/Drivers/CMSIS/Include/cmsis_gcc.h **** 
 114:../../../PY32F002B_Firmware_V1.2.1/PY32F002B_Firmware_V1.2.1/Drivers/CMSIS/Include/cmsis_gcc.h **** /**
 115:../../../PY32F002B_Firmware_V1.2.1/PY32F002B_Firmware_V1.2.1/Drivers/CMSIS/Include/cmsis_gcc.h ****   \brief   Get APSR Register
 116:../../../PY32F002B_Firmware_V1.2.1/PY32F002B_Firmware_V1.2.1/Drivers/CMSIS/Include/cmsis_gcc.h ****   \details Returns the content of the APSR Register.
 117:../../../PY32F002B_Firmware_V1.2.1/PY32F002B_Firmware_V1.2.1/Drivers/CMSIS/Include/cmsis_gcc.h ****   \return               APSR Register value
 118:../../../PY32F002B_Firmware_V1.2.1/PY32F002B_Firmware_V1.2.1/Drivers/CMSIS/Include/cmsis_gcc.h ****  */
 119:../../../PY32F002B_Firmware_V1.2.1/PY32F002B_Firmware_V1.2.1/Drivers/CMSIS/Include/cmsis_gcc.h **** __attribute__( ( always_inline ) ) __STATIC_INLINE uint32_t __get_APSR(void)
 120:../../../PY32F002B_Firmware_V1.2.1/PY32F002B_Firmware_V1.2.1/Drivers/CMSIS/Include/cmsis_gcc.h **** {
 121:../../../PY32F002B_Firmware_V1.2.1/PY32F002B_Firmware_V1.2.1/Drivers/CMSIS/Include/cmsis_gcc.h ****   uint32_t result;
 122:../../../PY32F002B_Firmware_V1.2.1/PY32F002B_Firmware_V1.2.1/Drivers/CMSIS/Include/cmsis_gcc.h **** 
 123:../../../PY32F002B_Firmware_V1.2.1/PY32F002B_Firmware_V1.2.1/Drivers/CMSIS/Include/cmsis_gcc.h ****   __ASM volatile ("MRS %0, apsr" : "=r" (result) );
 124:../../../PY32F002B_Firmware_V1.2.1/PY32F002B_Firmware_V1.2.1/Drivers/CMSIS/Include/cmsis_gcc.h ****   return(result);
 125:../../../PY32F002B_Firmware_V1.2.1/PY32F002B_Firmware_V1.2.1/Drivers/CMSIS/Include/cmsis_gcc.h **** }
 126:../../../PY32F002B_Firmware_V1.2.1/PY32F002B_Firmware_V1.2.1/Drivers/CMSIS/Include/cmsis_gcc.h **** 
 127:../../../PY32F002B_Firmware_V1.2.1/PY32F002B_Firmware_V1.2.1/Drivers/CMSIS/Include/cmsis_gcc.h **** 
 128:../../../PY32F002B_Firmware_V1.2.1/PY32F002B_Firmware_V1.2.1/Drivers/CMSIS/Include/cmsis_gcc.h **** /**
 129:../../../PY32F002B_Firmware_V1.2.1/PY32F002B_Firmware_V1.2.1/Drivers/CMSIS/Include/cmsis_gcc.h ****   \brief   Get xPSR Register
 130:../../../PY32F002B_Firmware_V1.2.1/PY32F002B_Firmware_V1.2.1/Drivers/CMSIS/Include/cmsis_gcc.h ****   \details Returns the content of the xPSR Register.
 131:../../../PY32F002B_Firmware_V1.2.1/PY32F002B_Firmware_V1.2.1/Drivers/CMSIS/Include/cmsis_gcc.h **** 
 132:../../../PY32F002B_Firmware_V1.2.1/PY32F002B_Firmware_V1.2.1/Drivers/CMSIS/Include/cmsis_gcc.h ****     \return               xPSR Register value
 133:../../../PY32F002B_Firmware_V1.2.1/PY32F002B_Firmware_V1.2.1/Drivers/CMSIS/Include/cmsis_gcc.h ****  */
 134:../../../PY32F002B_Firmware_V1.2.1/PY32F002B_Firmware_V1.2.1/Drivers/CMSIS/Include/cmsis_gcc.h **** __attribute__( ( always_inline ) ) __STATIC_INLINE uint32_t __get_xPSR(void)
 135:../../../PY32F002B_Firmware_V1.2.1/PY32F002B_Firmware_V1.2.1/Drivers/CMSIS/Include/cmsis_gcc.h **** {
 136:../../../PY32F002B_Firmware_V1.2.1/PY32F002B_Firmware_V1.2.1/Drivers/CMSIS/Include/cmsis_gcc.h ****   uint32_t result;
 137:../../../PY32F002B_Firmware_V1.2.1/PY32F002B_Firmware_V1.2.1/Drivers/CMSIS/Include/cmsis_gcc.h **** 
 138:../../../PY32F002B_Firmware_V1.2.1/PY32F002B_Firmware_V1.2.1/Drivers/CMSIS/Include/cmsis_gcc.h ****   __ASM volatile ("MRS %0, xpsr" : "=r" (result) );
 139:../../../PY32F002B_Firmware_V1.2.1/PY32F002B_Firmware_V1.2.1/Drivers/CMSIS/Include/cmsis_gcc.h ****   return(result);
 140:../../../PY32F002B_Firmware_V1.2.1/PY32F002B_Firmware_V1.2.1/Drivers/CMSIS/Include/cmsis_gcc.h **** }
 141:../../../PY32F002B_Firmware_V1.2.1/PY32F002B_Firmware_V1.2.1/Drivers/CMSIS/Include/cmsis_gcc.h **** 
 142:../../../PY32F002B_Firmware_V1.2.1/PY32F002B_Firmware_V1.2.1/Drivers/CMSIS/Include/cmsis_gcc.h **** 
 143:../../../PY32F002B_Firmware_V1.2.1/PY32F002B_Firmware_V1.2.1/Drivers/CMSIS/Include/cmsis_gcc.h **** /**
 144:../../../PY32F002B_Firmware_V1.2.1/PY32F002B_Firmware_V1.2.1/Drivers/CMSIS/Include/cmsis_gcc.h ****   \brief   Get Process Stack Pointer
 145:../../../PY32F002B_Firmware_V1.2.1/PY32F002B_Firmware_V1.2.1/Drivers/CMSIS/Include/cmsis_gcc.h ****   \details Returns the current value of the Process Stack Pointer (PSP).
 146:../../../PY32F002B_Firmware_V1.2.1/PY32F002B_Firmware_V1.2.1/Drivers/CMSIS/Include/cmsis_gcc.h ****   \return               PSP Register value
 147:../../../PY32F002B_Firmware_V1.2.1/PY32F002B_Firmware_V1.2.1/Drivers/CMSIS/Include/cmsis_gcc.h ****  */
 148:../../../PY32F002B_Firmware_V1.2.1/PY32F002B_Firmware_V1.2.1/Drivers/CMSIS/Include/cmsis_gcc.h **** __attribute__( ( always_inline ) ) __STATIC_INLINE uint32_t __get_PSP(void)
 149:../../../PY32F002B_Firmware_V1.2.1/PY32F002B_Firmware_V1.2.1/Drivers/CMSIS/Include/cmsis_gcc.h **** {
 150:../../../PY32F002B_Firmware_V1.2.1/PY32F002B_Firmware_V1.2.1/Drivers/CMSIS/Include/cmsis_gcc.h ****   register uint32_t result;
ARM GAS  C:\Users\Gautam\AppData\Local\Temp\cchduyDh.s 			page 47


 151:../../../PY32F002B_Firmware_V1.2.1/PY32F002B_Firmware_V1.2.1/Drivers/CMSIS/Include/cmsis_gcc.h **** 
 152:../../../PY32F002B_Firmware_V1.2.1/PY32F002B_Firmware_V1.2.1/Drivers/CMSIS/Include/cmsis_gcc.h ****   __ASM volatile ("MRS %0, psp\n"  : "=r" (result) );
 153:../../../PY32F002B_Firmware_V1.2.1/PY32F002B_Firmware_V1.2.1/Drivers/CMSIS/Include/cmsis_gcc.h ****   return(result);
 154:../../../PY32F002B_Firmware_V1.2.1/PY32F002B_Firmware_V1.2.1/Drivers/CMSIS/Include/cmsis_gcc.h **** }
 155:../../../PY32F002B_Firmware_V1.2.1/PY32F002B_Firmware_V1.2.1/Drivers/CMSIS/Include/cmsis_gcc.h **** 
 156:../../../PY32F002B_Firmware_V1.2.1/PY32F002B_Firmware_V1.2.1/Drivers/CMSIS/Include/cmsis_gcc.h **** 
 157:../../../PY32F002B_Firmware_V1.2.1/PY32F002B_Firmware_V1.2.1/Drivers/CMSIS/Include/cmsis_gcc.h **** /**
 158:../../../PY32F002B_Firmware_V1.2.1/PY32F002B_Firmware_V1.2.1/Drivers/CMSIS/Include/cmsis_gcc.h ****   \brief   Set Process Stack Pointer
 159:../../../PY32F002B_Firmware_V1.2.1/PY32F002B_Firmware_V1.2.1/Drivers/CMSIS/Include/cmsis_gcc.h ****   \details Assigns the given value to the Process Stack Pointer (PSP).
 160:../../../PY32F002B_Firmware_V1.2.1/PY32F002B_Firmware_V1.2.1/Drivers/CMSIS/Include/cmsis_gcc.h ****   \param [in]    topOfProcStack  Process Stack Pointer value to set
 161:../../../PY32F002B_Firmware_V1.2.1/PY32F002B_Firmware_V1.2.1/Drivers/CMSIS/Include/cmsis_gcc.h ****  */
 162:../../../PY32F002B_Firmware_V1.2.1/PY32F002B_Firmware_V1.2.1/Drivers/CMSIS/Include/cmsis_gcc.h **** __attribute__( ( always_inline ) ) __STATIC_INLINE void __set_PSP(uint32_t topOfProcStack)
 163:../../../PY32F002B_Firmware_V1.2.1/PY32F002B_Firmware_V1.2.1/Drivers/CMSIS/Include/cmsis_gcc.h **** {
 164:../../../PY32F002B_Firmware_V1.2.1/PY32F002B_Firmware_V1.2.1/Drivers/CMSIS/Include/cmsis_gcc.h ****   __ASM volatile ("MSR psp, %0\n" : : "r" (topOfProcStack) : "sp");
 165:../../../PY32F002B_Firmware_V1.2.1/PY32F002B_Firmware_V1.2.1/Drivers/CMSIS/Include/cmsis_gcc.h **** }
 166:../../../PY32F002B_Firmware_V1.2.1/PY32F002B_Firmware_V1.2.1/Drivers/CMSIS/Include/cmsis_gcc.h **** 
 167:../../../PY32F002B_Firmware_V1.2.1/PY32F002B_Firmware_V1.2.1/Drivers/CMSIS/Include/cmsis_gcc.h **** 
 168:../../../PY32F002B_Firmware_V1.2.1/PY32F002B_Firmware_V1.2.1/Drivers/CMSIS/Include/cmsis_gcc.h **** /**
 169:../../../PY32F002B_Firmware_V1.2.1/PY32F002B_Firmware_V1.2.1/Drivers/CMSIS/Include/cmsis_gcc.h ****   \brief   Get Main Stack Pointer
 170:../../../PY32F002B_Firmware_V1.2.1/PY32F002B_Firmware_V1.2.1/Drivers/CMSIS/Include/cmsis_gcc.h ****   \details Returns the current value of the Main Stack Pointer (MSP).
 171:../../../PY32F002B_Firmware_V1.2.1/PY32F002B_Firmware_V1.2.1/Drivers/CMSIS/Include/cmsis_gcc.h ****   \return               MSP Register value
 172:../../../PY32F002B_Firmware_V1.2.1/PY32F002B_Firmware_V1.2.1/Drivers/CMSIS/Include/cmsis_gcc.h ****  */
 173:../../../PY32F002B_Firmware_V1.2.1/PY32F002B_Firmware_V1.2.1/Drivers/CMSIS/Include/cmsis_gcc.h **** __attribute__( ( always_inline ) ) __STATIC_INLINE uint32_t __get_MSP(void)
 174:../../../PY32F002B_Firmware_V1.2.1/PY32F002B_Firmware_V1.2.1/Drivers/CMSIS/Include/cmsis_gcc.h **** {
 175:../../../PY32F002B_Firmware_V1.2.1/PY32F002B_Firmware_V1.2.1/Drivers/CMSIS/Include/cmsis_gcc.h ****   register uint32_t result;
 176:../../../PY32F002B_Firmware_V1.2.1/PY32F002B_Firmware_V1.2.1/Drivers/CMSIS/Include/cmsis_gcc.h **** 
 177:../../../PY32F002B_Firmware_V1.2.1/PY32F002B_Firmware_V1.2.1/Drivers/CMSIS/Include/cmsis_gcc.h ****   __ASM volatile ("MRS %0, msp\n" : "=r" (result) );
 178:../../../PY32F002B_Firmware_V1.2.1/PY32F002B_Firmware_V1.2.1/Drivers/CMSIS/Include/cmsis_gcc.h ****   return(result);
 179:../../../PY32F002B_Firmware_V1.2.1/PY32F002B_Firmware_V1.2.1/Drivers/CMSIS/Include/cmsis_gcc.h **** }
 180:../../../PY32F002B_Firmware_V1.2.1/PY32F002B_Firmware_V1.2.1/Drivers/CMSIS/Include/cmsis_gcc.h **** 
 181:../../../PY32F002B_Firmware_V1.2.1/PY32F002B_Firmware_V1.2.1/Drivers/CMSIS/Include/cmsis_gcc.h **** 
 182:../../../PY32F002B_Firmware_V1.2.1/PY32F002B_Firmware_V1.2.1/Drivers/CMSIS/Include/cmsis_gcc.h **** /**
 183:../../../PY32F002B_Firmware_V1.2.1/PY32F002B_Firmware_V1.2.1/Drivers/CMSIS/Include/cmsis_gcc.h ****   \brief   Set Main Stack Pointer
 184:../../../PY32F002B_Firmware_V1.2.1/PY32F002B_Firmware_V1.2.1/Drivers/CMSIS/Include/cmsis_gcc.h ****   \details Assigns the given value to the Main Stack Pointer (MSP).
 185:../../../PY32F002B_Firmware_V1.2.1/PY32F002B_Firmware_V1.2.1/Drivers/CMSIS/Include/cmsis_gcc.h **** 
 186:../../../PY32F002B_Firmware_V1.2.1/PY32F002B_Firmware_V1.2.1/Drivers/CMSIS/Include/cmsis_gcc.h ****     \param [in]    topOfMainStack  Main Stack Pointer value to set
 187:../../../PY32F002B_Firmware_V1.2.1/PY32F002B_Firmware_V1.2.1/Drivers/CMSIS/Include/cmsis_gcc.h ****  */
 188:../../../PY32F002B_Firmware_V1.2.1/PY32F002B_Firmware_V1.2.1/Drivers/CMSIS/Include/cmsis_gcc.h **** __attribute__( ( always_inline ) ) __STATIC_INLINE void __set_MSP(uint32_t topOfMainStack)
 189:../../../PY32F002B_Firmware_V1.2.1/PY32F002B_Firmware_V1.2.1/Drivers/CMSIS/Include/cmsis_gcc.h **** {
 190:../../../PY32F002B_Firmware_V1.2.1/PY32F002B_Firmware_V1.2.1/Drivers/CMSIS/Include/cmsis_gcc.h ****   __ASM volatile ("MSR msp, %0\n" : : "r" (topOfMainStack) : "sp");
 191:../../../PY32F002B_Firmware_V1.2.1/PY32F002B_Firmware_V1.2.1/Drivers/CMSIS/Include/cmsis_gcc.h **** }
 192:../../../PY32F002B_Firmware_V1.2.1/PY32F002B_Firmware_V1.2.1/Drivers/CMSIS/Include/cmsis_gcc.h **** 
 193:../../../PY32F002B_Firmware_V1.2.1/PY32F002B_Firmware_V1.2.1/Drivers/CMSIS/Include/cmsis_gcc.h **** 
 194:../../../PY32F002B_Firmware_V1.2.1/PY32F002B_Firmware_V1.2.1/Drivers/CMSIS/Include/cmsis_gcc.h **** /**
 195:../../../PY32F002B_Firmware_V1.2.1/PY32F002B_Firmware_V1.2.1/Drivers/CMSIS/Include/cmsis_gcc.h ****   \brief   Get Priority Mask
 196:../../../PY32F002B_Firmware_V1.2.1/PY32F002B_Firmware_V1.2.1/Drivers/CMSIS/Include/cmsis_gcc.h ****   \details Returns the current state of the priority mask bit from the Priority Mask Register.
 197:../../../PY32F002B_Firmware_V1.2.1/PY32F002B_Firmware_V1.2.1/Drivers/CMSIS/Include/cmsis_gcc.h ****   \return               Priority Mask value
 198:../../../PY32F002B_Firmware_V1.2.1/PY32F002B_Firmware_V1.2.1/Drivers/CMSIS/Include/cmsis_gcc.h ****  */
 199:../../../PY32F002B_Firmware_V1.2.1/PY32F002B_Firmware_V1.2.1/Drivers/CMSIS/Include/cmsis_gcc.h **** __attribute__( ( always_inline ) ) __STATIC_INLINE uint32_t __get_PRIMASK(void)
 200:../../../PY32F002B_Firmware_V1.2.1/PY32F002B_Firmware_V1.2.1/Drivers/CMSIS/Include/cmsis_gcc.h **** {
 201:../../../PY32F002B_Firmware_V1.2.1/PY32F002B_Firmware_V1.2.1/Drivers/CMSIS/Include/cmsis_gcc.h ****   uint32_t result;
 202:../../../PY32F002B_Firmware_V1.2.1/PY32F002B_Firmware_V1.2.1/Drivers/CMSIS/Include/cmsis_gcc.h **** 
 203:../../../PY32F002B_Firmware_V1.2.1/PY32F002B_Firmware_V1.2.1/Drivers/CMSIS/Include/cmsis_gcc.h ****   __ASM volatile ("MRS %0, primask" : "=r" (result) );
 204:../../../PY32F002B_Firmware_V1.2.1/PY32F002B_Firmware_V1.2.1/Drivers/CMSIS/Include/cmsis_gcc.h ****   return(result);
 205:../../../PY32F002B_Firmware_V1.2.1/PY32F002B_Firmware_V1.2.1/Drivers/CMSIS/Include/cmsis_gcc.h **** }
 206:../../../PY32F002B_Firmware_V1.2.1/PY32F002B_Firmware_V1.2.1/Drivers/CMSIS/Include/cmsis_gcc.h **** 
 207:../../../PY32F002B_Firmware_V1.2.1/PY32F002B_Firmware_V1.2.1/Drivers/CMSIS/Include/cmsis_gcc.h **** 
ARM GAS  C:\Users\Gautam\AppData\Local\Temp\cchduyDh.s 			page 48


 208:../../../PY32F002B_Firmware_V1.2.1/PY32F002B_Firmware_V1.2.1/Drivers/CMSIS/Include/cmsis_gcc.h **** /**
 209:../../../PY32F002B_Firmware_V1.2.1/PY32F002B_Firmware_V1.2.1/Drivers/CMSIS/Include/cmsis_gcc.h ****   \brief   Set Priority Mask
 210:../../../PY32F002B_Firmware_V1.2.1/PY32F002B_Firmware_V1.2.1/Drivers/CMSIS/Include/cmsis_gcc.h ****   \details Assigns the given value to the Priority Mask Register.
 211:../../../PY32F002B_Firmware_V1.2.1/PY32F002B_Firmware_V1.2.1/Drivers/CMSIS/Include/cmsis_gcc.h ****   \param [in]    priMask  Priority Mask
 212:../../../PY32F002B_Firmware_V1.2.1/PY32F002B_Firmware_V1.2.1/Drivers/CMSIS/Include/cmsis_gcc.h ****  */
 213:../../../PY32F002B_Firmware_V1.2.1/PY32F002B_Firmware_V1.2.1/Drivers/CMSIS/Include/cmsis_gcc.h **** __attribute__( ( always_inline ) ) __STATIC_INLINE void __set_PRIMASK(uint32_t priMask)
 214:../../../PY32F002B_Firmware_V1.2.1/PY32F002B_Firmware_V1.2.1/Drivers/CMSIS/Include/cmsis_gcc.h **** {
 215:../../../PY32F002B_Firmware_V1.2.1/PY32F002B_Firmware_V1.2.1/Drivers/CMSIS/Include/cmsis_gcc.h ****   __ASM volatile ("MSR primask, %0" : : "r" (priMask) : "memory");
 216:../../../PY32F002B_Firmware_V1.2.1/PY32F002B_Firmware_V1.2.1/Drivers/CMSIS/Include/cmsis_gcc.h **** }
 217:../../../PY32F002B_Firmware_V1.2.1/PY32F002B_Firmware_V1.2.1/Drivers/CMSIS/Include/cmsis_gcc.h **** 
 218:../../../PY32F002B_Firmware_V1.2.1/PY32F002B_Firmware_V1.2.1/Drivers/CMSIS/Include/cmsis_gcc.h **** 
 219:../../../PY32F002B_Firmware_V1.2.1/PY32F002B_Firmware_V1.2.1/Drivers/CMSIS/Include/cmsis_gcc.h **** #if       (__CORTEX_M >= 0x03U)
 220:../../../PY32F002B_Firmware_V1.2.1/PY32F002B_Firmware_V1.2.1/Drivers/CMSIS/Include/cmsis_gcc.h **** 
 221:../../../PY32F002B_Firmware_V1.2.1/PY32F002B_Firmware_V1.2.1/Drivers/CMSIS/Include/cmsis_gcc.h **** /**
 222:../../../PY32F002B_Firmware_V1.2.1/PY32F002B_Firmware_V1.2.1/Drivers/CMSIS/Include/cmsis_gcc.h ****   \brief   Enable FIQ
 223:../../../PY32F002B_Firmware_V1.2.1/PY32F002B_Firmware_V1.2.1/Drivers/CMSIS/Include/cmsis_gcc.h ****   \details Enables FIQ interrupts by clearing the F-bit in the CPSR.
 224:../../../PY32F002B_Firmware_V1.2.1/PY32F002B_Firmware_V1.2.1/Drivers/CMSIS/Include/cmsis_gcc.h ****            Can only be executed in Privileged modes.
 225:../../../PY32F002B_Firmware_V1.2.1/PY32F002B_Firmware_V1.2.1/Drivers/CMSIS/Include/cmsis_gcc.h ****  */
 226:../../../PY32F002B_Firmware_V1.2.1/PY32F002B_Firmware_V1.2.1/Drivers/CMSIS/Include/cmsis_gcc.h **** __attribute__( ( always_inline ) ) __STATIC_INLINE void __enable_fault_irq(void)
 227:../../../PY32F002B_Firmware_V1.2.1/PY32F002B_Firmware_V1.2.1/Drivers/CMSIS/Include/cmsis_gcc.h **** {
 228:../../../PY32F002B_Firmware_V1.2.1/PY32F002B_Firmware_V1.2.1/Drivers/CMSIS/Include/cmsis_gcc.h ****   __ASM volatile ("cpsie f" : : : "memory");
 229:../../../PY32F002B_Firmware_V1.2.1/PY32F002B_Firmware_V1.2.1/Drivers/CMSIS/Include/cmsis_gcc.h **** }
 230:../../../PY32F002B_Firmware_V1.2.1/PY32F002B_Firmware_V1.2.1/Drivers/CMSIS/Include/cmsis_gcc.h **** 
 231:../../../PY32F002B_Firmware_V1.2.1/PY32F002B_Firmware_V1.2.1/Drivers/CMSIS/Include/cmsis_gcc.h **** 
 232:../../../PY32F002B_Firmware_V1.2.1/PY32F002B_Firmware_V1.2.1/Drivers/CMSIS/Include/cmsis_gcc.h **** /**
 233:../../../PY32F002B_Firmware_V1.2.1/PY32F002B_Firmware_V1.2.1/Drivers/CMSIS/Include/cmsis_gcc.h ****   \brief   Disable FIQ
 234:../../../PY32F002B_Firmware_V1.2.1/PY32F002B_Firmware_V1.2.1/Drivers/CMSIS/Include/cmsis_gcc.h ****   \details Disables FIQ interrupts by setting the F-bit in the CPSR.
 235:../../../PY32F002B_Firmware_V1.2.1/PY32F002B_Firmware_V1.2.1/Drivers/CMSIS/Include/cmsis_gcc.h ****            Can only be executed in Privileged modes.
 236:../../../PY32F002B_Firmware_V1.2.1/PY32F002B_Firmware_V1.2.1/Drivers/CMSIS/Include/cmsis_gcc.h ****  */
 237:../../../PY32F002B_Firmware_V1.2.1/PY32F002B_Firmware_V1.2.1/Drivers/CMSIS/Include/cmsis_gcc.h **** __attribute__( ( always_inline ) ) __STATIC_INLINE void __disable_fault_irq(void)
 238:../../../PY32F002B_Firmware_V1.2.1/PY32F002B_Firmware_V1.2.1/Drivers/CMSIS/Include/cmsis_gcc.h **** {
 239:../../../PY32F002B_Firmware_V1.2.1/PY32F002B_Firmware_V1.2.1/Drivers/CMSIS/Include/cmsis_gcc.h ****   __ASM volatile ("cpsid f" : : : "memory");
 240:../../../PY32F002B_Firmware_V1.2.1/PY32F002B_Firmware_V1.2.1/Drivers/CMSIS/Include/cmsis_gcc.h **** }
 241:../../../PY32F002B_Firmware_V1.2.1/PY32F002B_Firmware_V1.2.1/Drivers/CMSIS/Include/cmsis_gcc.h **** 
 242:../../../PY32F002B_Firmware_V1.2.1/PY32F002B_Firmware_V1.2.1/Drivers/CMSIS/Include/cmsis_gcc.h **** 
 243:../../../PY32F002B_Firmware_V1.2.1/PY32F002B_Firmware_V1.2.1/Drivers/CMSIS/Include/cmsis_gcc.h **** /**
 244:../../../PY32F002B_Firmware_V1.2.1/PY32F002B_Firmware_V1.2.1/Drivers/CMSIS/Include/cmsis_gcc.h ****   \brief   Get Base Priority
 245:../../../PY32F002B_Firmware_V1.2.1/PY32F002B_Firmware_V1.2.1/Drivers/CMSIS/Include/cmsis_gcc.h ****   \details Returns the current value of the Base Priority register.
 246:../../../PY32F002B_Firmware_V1.2.1/PY32F002B_Firmware_V1.2.1/Drivers/CMSIS/Include/cmsis_gcc.h ****   \return               Base Priority register value
 247:../../../PY32F002B_Firmware_V1.2.1/PY32F002B_Firmware_V1.2.1/Drivers/CMSIS/Include/cmsis_gcc.h ****  */
 248:../../../PY32F002B_Firmware_V1.2.1/PY32F002B_Firmware_V1.2.1/Drivers/CMSIS/Include/cmsis_gcc.h **** __attribute__( ( always_inline ) ) __STATIC_INLINE uint32_t __get_BASEPRI(void)
 249:../../../PY32F002B_Firmware_V1.2.1/PY32F002B_Firmware_V1.2.1/Drivers/CMSIS/Include/cmsis_gcc.h **** {
 250:../../../PY32F002B_Firmware_V1.2.1/PY32F002B_Firmware_V1.2.1/Drivers/CMSIS/Include/cmsis_gcc.h ****   uint32_t result;
 251:../../../PY32F002B_Firmware_V1.2.1/PY32F002B_Firmware_V1.2.1/Drivers/CMSIS/Include/cmsis_gcc.h **** 
 252:../../../PY32F002B_Firmware_V1.2.1/PY32F002B_Firmware_V1.2.1/Drivers/CMSIS/Include/cmsis_gcc.h ****   __ASM volatile ("MRS %0, basepri" : "=r" (result) );
 253:../../../PY32F002B_Firmware_V1.2.1/PY32F002B_Firmware_V1.2.1/Drivers/CMSIS/Include/cmsis_gcc.h ****   return(result);
 254:../../../PY32F002B_Firmware_V1.2.1/PY32F002B_Firmware_V1.2.1/Drivers/CMSIS/Include/cmsis_gcc.h **** }
 255:../../../PY32F002B_Firmware_V1.2.1/PY32F002B_Firmware_V1.2.1/Drivers/CMSIS/Include/cmsis_gcc.h **** 
 256:../../../PY32F002B_Firmware_V1.2.1/PY32F002B_Firmware_V1.2.1/Drivers/CMSIS/Include/cmsis_gcc.h **** 
 257:../../../PY32F002B_Firmware_V1.2.1/PY32F002B_Firmware_V1.2.1/Drivers/CMSIS/Include/cmsis_gcc.h **** /**
 258:../../../PY32F002B_Firmware_V1.2.1/PY32F002B_Firmware_V1.2.1/Drivers/CMSIS/Include/cmsis_gcc.h ****   \brief   Set Base Priority
 259:../../../PY32F002B_Firmware_V1.2.1/PY32F002B_Firmware_V1.2.1/Drivers/CMSIS/Include/cmsis_gcc.h ****   \details Assigns the given value to the Base Priority register.
 260:../../../PY32F002B_Firmware_V1.2.1/PY32F002B_Firmware_V1.2.1/Drivers/CMSIS/Include/cmsis_gcc.h ****   \param [in]    basePri  Base Priority value to set
 261:../../../PY32F002B_Firmware_V1.2.1/PY32F002B_Firmware_V1.2.1/Drivers/CMSIS/Include/cmsis_gcc.h ****  */
 262:../../../PY32F002B_Firmware_V1.2.1/PY32F002B_Firmware_V1.2.1/Drivers/CMSIS/Include/cmsis_gcc.h **** __attribute__( ( always_inline ) ) __STATIC_INLINE void __set_BASEPRI(uint32_t value)
 263:../../../PY32F002B_Firmware_V1.2.1/PY32F002B_Firmware_V1.2.1/Drivers/CMSIS/Include/cmsis_gcc.h **** {
 264:../../../PY32F002B_Firmware_V1.2.1/PY32F002B_Firmware_V1.2.1/Drivers/CMSIS/Include/cmsis_gcc.h ****   __ASM volatile ("MSR basepri, %0" : : "r" (value) : "memory");
ARM GAS  C:\Users\Gautam\AppData\Local\Temp\cchduyDh.s 			page 49


 265:../../../PY32F002B_Firmware_V1.2.1/PY32F002B_Firmware_V1.2.1/Drivers/CMSIS/Include/cmsis_gcc.h **** }
 266:../../../PY32F002B_Firmware_V1.2.1/PY32F002B_Firmware_V1.2.1/Drivers/CMSIS/Include/cmsis_gcc.h **** 
 267:../../../PY32F002B_Firmware_V1.2.1/PY32F002B_Firmware_V1.2.1/Drivers/CMSIS/Include/cmsis_gcc.h **** 
 268:../../../PY32F002B_Firmware_V1.2.1/PY32F002B_Firmware_V1.2.1/Drivers/CMSIS/Include/cmsis_gcc.h **** /**
 269:../../../PY32F002B_Firmware_V1.2.1/PY32F002B_Firmware_V1.2.1/Drivers/CMSIS/Include/cmsis_gcc.h ****   \brief   Set Base Priority with condition
 270:../../../PY32F002B_Firmware_V1.2.1/PY32F002B_Firmware_V1.2.1/Drivers/CMSIS/Include/cmsis_gcc.h ****   \details Assigns the given value to the Base Priority register only if BASEPRI masking is disable
 271:../../../PY32F002B_Firmware_V1.2.1/PY32F002B_Firmware_V1.2.1/Drivers/CMSIS/Include/cmsis_gcc.h ****            or the new value increases the BASEPRI priority level.
 272:../../../PY32F002B_Firmware_V1.2.1/PY32F002B_Firmware_V1.2.1/Drivers/CMSIS/Include/cmsis_gcc.h ****   \param [in]    basePri  Base Priority value to set
 273:../../../PY32F002B_Firmware_V1.2.1/PY32F002B_Firmware_V1.2.1/Drivers/CMSIS/Include/cmsis_gcc.h ****  */
 274:../../../PY32F002B_Firmware_V1.2.1/PY32F002B_Firmware_V1.2.1/Drivers/CMSIS/Include/cmsis_gcc.h **** __attribute__( ( always_inline ) ) __STATIC_INLINE void __set_BASEPRI_MAX(uint32_t value)
 275:../../../PY32F002B_Firmware_V1.2.1/PY32F002B_Firmware_V1.2.1/Drivers/CMSIS/Include/cmsis_gcc.h **** {
 276:../../../PY32F002B_Firmware_V1.2.1/PY32F002B_Firmware_V1.2.1/Drivers/CMSIS/Include/cmsis_gcc.h ****   __ASM volatile ("MSR basepri_max, %0" : : "r" (value) : "memory");
 277:../../../PY32F002B_Firmware_V1.2.1/PY32F002B_Firmware_V1.2.1/Drivers/CMSIS/Include/cmsis_gcc.h **** }
 278:../../../PY32F002B_Firmware_V1.2.1/PY32F002B_Firmware_V1.2.1/Drivers/CMSIS/Include/cmsis_gcc.h **** 
 279:../../../PY32F002B_Firmware_V1.2.1/PY32F002B_Firmware_V1.2.1/Drivers/CMSIS/Include/cmsis_gcc.h **** 
 280:../../../PY32F002B_Firmware_V1.2.1/PY32F002B_Firmware_V1.2.1/Drivers/CMSIS/Include/cmsis_gcc.h **** /**
 281:../../../PY32F002B_Firmware_V1.2.1/PY32F002B_Firmware_V1.2.1/Drivers/CMSIS/Include/cmsis_gcc.h ****   \brief   Get Fault Mask
 282:../../../PY32F002B_Firmware_V1.2.1/PY32F002B_Firmware_V1.2.1/Drivers/CMSIS/Include/cmsis_gcc.h ****   \details Returns the current value of the Fault Mask register.
 283:../../../PY32F002B_Firmware_V1.2.1/PY32F002B_Firmware_V1.2.1/Drivers/CMSIS/Include/cmsis_gcc.h ****   \return               Fault Mask register value
 284:../../../PY32F002B_Firmware_V1.2.1/PY32F002B_Firmware_V1.2.1/Drivers/CMSIS/Include/cmsis_gcc.h ****  */
 285:../../../PY32F002B_Firmware_V1.2.1/PY32F002B_Firmware_V1.2.1/Drivers/CMSIS/Include/cmsis_gcc.h **** __attribute__( ( always_inline ) ) __STATIC_INLINE uint32_t __get_FAULTMASK(void)
 286:../../../PY32F002B_Firmware_V1.2.1/PY32F002B_Firmware_V1.2.1/Drivers/CMSIS/Include/cmsis_gcc.h **** {
 287:../../../PY32F002B_Firmware_V1.2.1/PY32F002B_Firmware_V1.2.1/Drivers/CMSIS/Include/cmsis_gcc.h ****   uint32_t result;
 288:../../../PY32F002B_Firmware_V1.2.1/PY32F002B_Firmware_V1.2.1/Drivers/CMSIS/Include/cmsis_gcc.h **** 
 289:../../../PY32F002B_Firmware_V1.2.1/PY32F002B_Firmware_V1.2.1/Drivers/CMSIS/Include/cmsis_gcc.h ****   __ASM volatile ("MRS %0, faultmask" : "=r" (result) );
 290:../../../PY32F002B_Firmware_V1.2.1/PY32F002B_Firmware_V1.2.1/Drivers/CMSIS/Include/cmsis_gcc.h ****   return(result);
 291:../../../PY32F002B_Firmware_V1.2.1/PY32F002B_Firmware_V1.2.1/Drivers/CMSIS/Include/cmsis_gcc.h **** }
 292:../../../PY32F002B_Firmware_V1.2.1/PY32F002B_Firmware_V1.2.1/Drivers/CMSIS/Include/cmsis_gcc.h **** 
 293:../../../PY32F002B_Firmware_V1.2.1/PY32F002B_Firmware_V1.2.1/Drivers/CMSIS/Include/cmsis_gcc.h **** 
 294:../../../PY32F002B_Firmware_V1.2.1/PY32F002B_Firmware_V1.2.1/Drivers/CMSIS/Include/cmsis_gcc.h **** /**
 295:../../../PY32F002B_Firmware_V1.2.1/PY32F002B_Firmware_V1.2.1/Drivers/CMSIS/Include/cmsis_gcc.h ****   \brief   Set Fault Mask
 296:../../../PY32F002B_Firmware_V1.2.1/PY32F002B_Firmware_V1.2.1/Drivers/CMSIS/Include/cmsis_gcc.h ****   \details Assigns the given value to the Fault Mask register.
 297:../../../PY32F002B_Firmware_V1.2.1/PY32F002B_Firmware_V1.2.1/Drivers/CMSIS/Include/cmsis_gcc.h ****   \param [in]    faultMask  Fault Mask value to set
 298:../../../PY32F002B_Firmware_V1.2.1/PY32F002B_Firmware_V1.2.1/Drivers/CMSIS/Include/cmsis_gcc.h ****  */
 299:../../../PY32F002B_Firmware_V1.2.1/PY32F002B_Firmware_V1.2.1/Drivers/CMSIS/Include/cmsis_gcc.h **** __attribute__( ( always_inline ) ) __STATIC_INLINE void __set_FAULTMASK(uint32_t faultMask)
 300:../../../PY32F002B_Firmware_V1.2.1/PY32F002B_Firmware_V1.2.1/Drivers/CMSIS/Include/cmsis_gcc.h **** {
 301:../../../PY32F002B_Firmware_V1.2.1/PY32F002B_Firmware_V1.2.1/Drivers/CMSIS/Include/cmsis_gcc.h ****   __ASM volatile ("MSR faultmask, %0" : : "r" (faultMask) : "memory");
 302:../../../PY32F002B_Firmware_V1.2.1/PY32F002B_Firmware_V1.2.1/Drivers/CMSIS/Include/cmsis_gcc.h **** }
 303:../../../PY32F002B_Firmware_V1.2.1/PY32F002B_Firmware_V1.2.1/Drivers/CMSIS/Include/cmsis_gcc.h **** 
 304:../../../PY32F002B_Firmware_V1.2.1/PY32F002B_Firmware_V1.2.1/Drivers/CMSIS/Include/cmsis_gcc.h **** #endif /* (__CORTEX_M >= 0x03U) */
