
Project.elf:     file format elf32-littlearm


Disassembly of section .text:

080000c0 <__udivsi3>:
 80000c0:	2200      	movs	r2, #0
 80000c2:	0843      	lsrs	r3, r0, #1
 80000c4:	428b      	cmp	r3, r1
 80000c6:	d374      	bcc.n	80001b2 <__udivsi3+0xf2>
 80000c8:	0903      	lsrs	r3, r0, #4
 80000ca:	428b      	cmp	r3, r1
 80000cc:	d35f      	bcc.n	800018e <__udivsi3+0xce>
 80000ce:	0a03      	lsrs	r3, r0, #8
 80000d0:	428b      	cmp	r3, r1
 80000d2:	d344      	bcc.n	800015e <__udivsi3+0x9e>
 80000d4:	0b03      	lsrs	r3, r0, #12
 80000d6:	428b      	cmp	r3, r1
 80000d8:	d328      	bcc.n	800012c <__udivsi3+0x6c>
 80000da:	0c03      	lsrs	r3, r0, #16
 80000dc:	428b      	cmp	r3, r1
 80000de:	d30d      	bcc.n	80000fc <__udivsi3+0x3c>
 80000e0:	22ff      	movs	r2, #255	@ 0xff
 80000e2:	0209      	lsls	r1, r1, #8
 80000e4:	ba12      	rev	r2, r2
 80000e6:	0c03      	lsrs	r3, r0, #16
 80000e8:	428b      	cmp	r3, r1
 80000ea:	d302      	bcc.n	80000f2 <__udivsi3+0x32>
 80000ec:	1212      	asrs	r2, r2, #8
 80000ee:	0209      	lsls	r1, r1, #8
 80000f0:	d065      	beq.n	80001be <__udivsi3+0xfe>
 80000f2:	0b03      	lsrs	r3, r0, #12
 80000f4:	428b      	cmp	r3, r1
 80000f6:	d319      	bcc.n	800012c <__udivsi3+0x6c>
 80000f8:	e000      	b.n	80000fc <__udivsi3+0x3c>
 80000fa:	0a09      	lsrs	r1, r1, #8
 80000fc:	0bc3      	lsrs	r3, r0, #15
 80000fe:	428b      	cmp	r3, r1
 8000100:	d301      	bcc.n	8000106 <__udivsi3+0x46>
 8000102:	03cb      	lsls	r3, r1, #15
 8000104:	1ac0      	subs	r0, r0, r3
 8000106:	4152      	adcs	r2, r2
 8000108:	0b83      	lsrs	r3, r0, #14
 800010a:	428b      	cmp	r3, r1
 800010c:	d301      	bcc.n	8000112 <__udivsi3+0x52>
 800010e:	038b      	lsls	r3, r1, #14
 8000110:	1ac0      	subs	r0, r0, r3
 8000112:	4152      	adcs	r2, r2
 8000114:	0b43      	lsrs	r3, r0, #13
 8000116:	428b      	cmp	r3, r1
 8000118:	d301      	bcc.n	800011e <__udivsi3+0x5e>
 800011a:	034b      	lsls	r3, r1, #13
 800011c:	1ac0      	subs	r0, r0, r3
 800011e:	4152      	adcs	r2, r2
 8000120:	0b03      	lsrs	r3, r0, #12
 8000122:	428b      	cmp	r3, r1
 8000124:	d301      	bcc.n	800012a <__udivsi3+0x6a>
 8000126:	030b      	lsls	r3, r1, #12
 8000128:	1ac0      	subs	r0, r0, r3
 800012a:	4152      	adcs	r2, r2
 800012c:	0ac3      	lsrs	r3, r0, #11
 800012e:	428b      	cmp	r3, r1
 8000130:	d301      	bcc.n	8000136 <__udivsi3+0x76>
 8000132:	02cb      	lsls	r3, r1, #11
 8000134:	1ac0      	subs	r0, r0, r3
 8000136:	4152      	adcs	r2, r2
 8000138:	0a83      	lsrs	r3, r0, #10
 800013a:	428b      	cmp	r3, r1
 800013c:	d301      	bcc.n	8000142 <__udivsi3+0x82>
 800013e:	028b      	lsls	r3, r1, #10
 8000140:	1ac0      	subs	r0, r0, r3
 8000142:	4152      	adcs	r2, r2
 8000144:	0a43      	lsrs	r3, r0, #9
 8000146:	428b      	cmp	r3, r1
 8000148:	d301      	bcc.n	800014e <__udivsi3+0x8e>
 800014a:	024b      	lsls	r3, r1, #9
 800014c:	1ac0      	subs	r0, r0, r3
 800014e:	4152      	adcs	r2, r2
 8000150:	0a03      	lsrs	r3, r0, #8
 8000152:	428b      	cmp	r3, r1
 8000154:	d301      	bcc.n	800015a <__udivsi3+0x9a>
 8000156:	020b      	lsls	r3, r1, #8
 8000158:	1ac0      	subs	r0, r0, r3
 800015a:	4152      	adcs	r2, r2
 800015c:	d2cd      	bcs.n	80000fa <__udivsi3+0x3a>
 800015e:	09c3      	lsrs	r3, r0, #7
 8000160:	428b      	cmp	r3, r1
 8000162:	d301      	bcc.n	8000168 <__udivsi3+0xa8>
 8000164:	01cb      	lsls	r3, r1, #7
 8000166:	1ac0      	subs	r0, r0, r3
 8000168:	4152      	adcs	r2, r2
 800016a:	0983      	lsrs	r3, r0, #6
 800016c:	428b      	cmp	r3, r1
 800016e:	d301      	bcc.n	8000174 <__udivsi3+0xb4>
 8000170:	018b      	lsls	r3, r1, #6
 8000172:	1ac0      	subs	r0, r0, r3
 8000174:	4152      	adcs	r2, r2
 8000176:	0943      	lsrs	r3, r0, #5
 8000178:	428b      	cmp	r3, r1
 800017a:	d301      	bcc.n	8000180 <__udivsi3+0xc0>
 800017c:	014b      	lsls	r3, r1, #5
 800017e:	1ac0      	subs	r0, r0, r3
 8000180:	4152      	adcs	r2, r2
 8000182:	0903      	lsrs	r3, r0, #4
 8000184:	428b      	cmp	r3, r1
 8000186:	d301      	bcc.n	800018c <__udivsi3+0xcc>
 8000188:	010b      	lsls	r3, r1, #4
 800018a:	1ac0      	subs	r0, r0, r3
 800018c:	4152      	adcs	r2, r2
 800018e:	08c3      	lsrs	r3, r0, #3
 8000190:	428b      	cmp	r3, r1
 8000192:	d301      	bcc.n	8000198 <__udivsi3+0xd8>
 8000194:	00cb      	lsls	r3, r1, #3
 8000196:	1ac0      	subs	r0, r0, r3
 8000198:	4152      	adcs	r2, r2
 800019a:	0883      	lsrs	r3, r0, #2
 800019c:	428b      	cmp	r3, r1
 800019e:	d301      	bcc.n	80001a4 <__udivsi3+0xe4>
 80001a0:	008b      	lsls	r3, r1, #2
 80001a2:	1ac0      	subs	r0, r0, r3
 80001a4:	4152      	adcs	r2, r2
 80001a6:	0843      	lsrs	r3, r0, #1
 80001a8:	428b      	cmp	r3, r1
 80001aa:	d301      	bcc.n	80001b0 <__udivsi3+0xf0>
 80001ac:	004b      	lsls	r3, r1, #1
 80001ae:	1ac0      	subs	r0, r0, r3
 80001b0:	4152      	adcs	r2, r2
 80001b2:	1a41      	subs	r1, r0, r1
 80001b4:	d200      	bcs.n	80001b8 <__udivsi3+0xf8>
 80001b6:	4601      	mov	r1, r0
 80001b8:	4152      	adcs	r2, r2
 80001ba:	4610      	mov	r0, r2
 80001bc:	4770      	bx	lr
 80001be:	e7ff      	b.n	80001c0 <__udivsi3+0x100>
 80001c0:	b501      	push	{r0, lr}
 80001c2:	2000      	movs	r0, #0
 80001c4:	f000 f8f0 	bl	80003a8 <__aeabi_idiv0>
 80001c8:	bd02      	pop	{r1, pc}
 80001ca:	46c0      	nop			@ (mov r8, r8)

080001cc <__aeabi_uidivmod>:
 80001cc:	2900      	cmp	r1, #0
 80001ce:	d0f7      	beq.n	80001c0 <__udivsi3+0x100>
 80001d0:	e776      	b.n	80000c0 <__udivsi3>
 80001d2:	4770      	bx	lr

080001d4 <__divsi3>:
 80001d4:	4603      	mov	r3, r0
 80001d6:	430b      	orrs	r3, r1
 80001d8:	d47f      	bmi.n	80002da <__divsi3+0x106>
 80001da:	2200      	movs	r2, #0
 80001dc:	0843      	lsrs	r3, r0, #1
 80001de:	428b      	cmp	r3, r1
 80001e0:	d374      	bcc.n	80002cc <__divsi3+0xf8>
 80001e2:	0903      	lsrs	r3, r0, #4
 80001e4:	428b      	cmp	r3, r1
 80001e6:	d35f      	bcc.n	80002a8 <__divsi3+0xd4>
 80001e8:	0a03      	lsrs	r3, r0, #8
 80001ea:	428b      	cmp	r3, r1
 80001ec:	d344      	bcc.n	8000278 <__divsi3+0xa4>
 80001ee:	0b03      	lsrs	r3, r0, #12
 80001f0:	428b      	cmp	r3, r1
 80001f2:	d328      	bcc.n	8000246 <__divsi3+0x72>
 80001f4:	0c03      	lsrs	r3, r0, #16
 80001f6:	428b      	cmp	r3, r1
 80001f8:	d30d      	bcc.n	8000216 <__divsi3+0x42>
 80001fa:	22ff      	movs	r2, #255	@ 0xff
 80001fc:	0209      	lsls	r1, r1, #8
 80001fe:	ba12      	rev	r2, r2
 8000200:	0c03      	lsrs	r3, r0, #16
 8000202:	428b      	cmp	r3, r1
 8000204:	d302      	bcc.n	800020c <__divsi3+0x38>
 8000206:	1212      	asrs	r2, r2, #8
 8000208:	0209      	lsls	r1, r1, #8
 800020a:	d065      	beq.n	80002d8 <__divsi3+0x104>
 800020c:	0b03      	lsrs	r3, r0, #12
 800020e:	428b      	cmp	r3, r1
 8000210:	d319      	bcc.n	8000246 <__divsi3+0x72>
 8000212:	e000      	b.n	8000216 <__divsi3+0x42>
 8000214:	0a09      	lsrs	r1, r1, #8
 8000216:	0bc3      	lsrs	r3, r0, #15
 8000218:	428b      	cmp	r3, r1
 800021a:	d301      	bcc.n	8000220 <__divsi3+0x4c>
 800021c:	03cb      	lsls	r3, r1, #15
 800021e:	1ac0      	subs	r0, r0, r3
 8000220:	4152      	adcs	r2, r2
 8000222:	0b83      	lsrs	r3, r0, #14
 8000224:	428b      	cmp	r3, r1
 8000226:	d301      	bcc.n	800022c <__divsi3+0x58>
 8000228:	038b      	lsls	r3, r1, #14
 800022a:	1ac0      	subs	r0, r0, r3
 800022c:	4152      	adcs	r2, r2
 800022e:	0b43      	lsrs	r3, r0, #13
 8000230:	428b      	cmp	r3, r1
 8000232:	d301      	bcc.n	8000238 <__divsi3+0x64>
 8000234:	034b      	lsls	r3, r1, #13
 8000236:	1ac0      	subs	r0, r0, r3
 8000238:	4152      	adcs	r2, r2
 800023a:	0b03      	lsrs	r3, r0, #12
 800023c:	428b      	cmp	r3, r1
 800023e:	d301      	bcc.n	8000244 <__divsi3+0x70>
 8000240:	030b      	lsls	r3, r1, #12
 8000242:	1ac0      	subs	r0, r0, r3
 8000244:	4152      	adcs	r2, r2
 8000246:	0ac3      	lsrs	r3, r0, #11
 8000248:	428b      	cmp	r3, r1
 800024a:	d301      	bcc.n	8000250 <__divsi3+0x7c>
 800024c:	02cb      	lsls	r3, r1, #11
 800024e:	1ac0      	subs	r0, r0, r3
 8000250:	4152      	adcs	r2, r2
 8000252:	0a83      	lsrs	r3, r0, #10
 8000254:	428b      	cmp	r3, r1
 8000256:	d301      	bcc.n	800025c <__divsi3+0x88>
 8000258:	028b      	lsls	r3, r1, #10
 800025a:	1ac0      	subs	r0, r0, r3
 800025c:	4152      	adcs	r2, r2
 800025e:	0a43      	lsrs	r3, r0, #9
 8000260:	428b      	cmp	r3, r1
 8000262:	d301      	bcc.n	8000268 <__divsi3+0x94>
 8000264:	024b      	lsls	r3, r1, #9
 8000266:	1ac0      	subs	r0, r0, r3
 8000268:	4152      	adcs	r2, r2
 800026a:	0a03      	lsrs	r3, r0, #8
 800026c:	428b      	cmp	r3, r1
 800026e:	d301      	bcc.n	8000274 <__divsi3+0xa0>
 8000270:	020b      	lsls	r3, r1, #8
 8000272:	1ac0      	subs	r0, r0, r3
 8000274:	4152      	adcs	r2, r2
 8000276:	d2cd      	bcs.n	8000214 <__divsi3+0x40>
 8000278:	09c3      	lsrs	r3, r0, #7
 800027a:	428b      	cmp	r3, r1
 800027c:	d301      	bcc.n	8000282 <__divsi3+0xae>
 800027e:	01cb      	lsls	r3, r1, #7
 8000280:	1ac0      	subs	r0, r0, r3
 8000282:	4152      	adcs	r2, r2
 8000284:	0983      	lsrs	r3, r0, #6
 8000286:	428b      	cmp	r3, r1
 8000288:	d301      	bcc.n	800028e <__divsi3+0xba>
 800028a:	018b      	lsls	r3, r1, #6
 800028c:	1ac0      	subs	r0, r0, r3
 800028e:	4152      	adcs	r2, r2
 8000290:	0943      	lsrs	r3, r0, #5
 8000292:	428b      	cmp	r3, r1
 8000294:	d301      	bcc.n	800029a <__divsi3+0xc6>
 8000296:	014b      	lsls	r3, r1, #5
 8000298:	1ac0      	subs	r0, r0, r3
 800029a:	4152      	adcs	r2, r2
 800029c:	0903      	lsrs	r3, r0, #4
 800029e:	428b      	cmp	r3, r1
 80002a0:	d301      	bcc.n	80002a6 <__divsi3+0xd2>
 80002a2:	010b      	lsls	r3, r1, #4
 80002a4:	1ac0      	subs	r0, r0, r3
 80002a6:	4152      	adcs	r2, r2
 80002a8:	08c3      	lsrs	r3, r0, #3
 80002aa:	428b      	cmp	r3, r1
 80002ac:	d301      	bcc.n	80002b2 <__divsi3+0xde>
 80002ae:	00cb      	lsls	r3, r1, #3
 80002b0:	1ac0      	subs	r0, r0, r3
 80002b2:	4152      	adcs	r2, r2
 80002b4:	0883      	lsrs	r3, r0, #2
 80002b6:	428b      	cmp	r3, r1
 80002b8:	d301      	bcc.n	80002be <__divsi3+0xea>
 80002ba:	008b      	lsls	r3, r1, #2
 80002bc:	1ac0      	subs	r0, r0, r3
 80002be:	4152      	adcs	r2, r2
 80002c0:	0843      	lsrs	r3, r0, #1
 80002c2:	428b      	cmp	r3, r1
 80002c4:	d301      	bcc.n	80002ca <__divsi3+0xf6>
 80002c6:	004b      	lsls	r3, r1, #1
 80002c8:	1ac0      	subs	r0, r0, r3
 80002ca:	4152      	adcs	r2, r2
 80002cc:	1a41      	subs	r1, r0, r1
 80002ce:	d200      	bcs.n	80002d2 <__divsi3+0xfe>
 80002d0:	4601      	mov	r1, r0
 80002d2:	4152      	adcs	r2, r2
 80002d4:	4610      	mov	r0, r2
 80002d6:	4770      	bx	lr
 80002d8:	e05d      	b.n	8000396 <__divsi3+0x1c2>
 80002da:	0fca      	lsrs	r2, r1, #31
 80002dc:	d000      	beq.n	80002e0 <__divsi3+0x10c>
 80002de:	4249      	negs	r1, r1
 80002e0:	1003      	asrs	r3, r0, #32
 80002e2:	d300      	bcc.n	80002e6 <__divsi3+0x112>
 80002e4:	4240      	negs	r0, r0
 80002e6:	4053      	eors	r3, r2
 80002e8:	2200      	movs	r2, #0
 80002ea:	469c      	mov	ip, r3
 80002ec:	0903      	lsrs	r3, r0, #4
 80002ee:	428b      	cmp	r3, r1
 80002f0:	d32d      	bcc.n	800034e <__divsi3+0x17a>
 80002f2:	0a03      	lsrs	r3, r0, #8
 80002f4:	428b      	cmp	r3, r1
 80002f6:	d312      	bcc.n	800031e <__divsi3+0x14a>
 80002f8:	22fc      	movs	r2, #252	@ 0xfc
 80002fa:	0189      	lsls	r1, r1, #6
 80002fc:	ba12      	rev	r2, r2
 80002fe:	0a03      	lsrs	r3, r0, #8
 8000300:	428b      	cmp	r3, r1
 8000302:	d30c      	bcc.n	800031e <__divsi3+0x14a>
 8000304:	0189      	lsls	r1, r1, #6
 8000306:	1192      	asrs	r2, r2, #6
 8000308:	428b      	cmp	r3, r1
 800030a:	d308      	bcc.n	800031e <__divsi3+0x14a>
 800030c:	0189      	lsls	r1, r1, #6
 800030e:	1192      	asrs	r2, r2, #6
 8000310:	428b      	cmp	r3, r1
 8000312:	d304      	bcc.n	800031e <__divsi3+0x14a>
 8000314:	0189      	lsls	r1, r1, #6
 8000316:	d03a      	beq.n	800038e <__divsi3+0x1ba>
 8000318:	1192      	asrs	r2, r2, #6
 800031a:	e000      	b.n	800031e <__divsi3+0x14a>
 800031c:	0989      	lsrs	r1, r1, #6
 800031e:	09c3      	lsrs	r3, r0, #7
 8000320:	428b      	cmp	r3, r1
 8000322:	d301      	bcc.n	8000328 <__divsi3+0x154>
 8000324:	01cb      	lsls	r3, r1, #7
 8000326:	1ac0      	subs	r0, r0, r3
 8000328:	4152      	adcs	r2, r2
 800032a:	0983      	lsrs	r3, r0, #6
 800032c:	428b      	cmp	r3, r1
 800032e:	d301      	bcc.n	8000334 <__divsi3+0x160>
 8000330:	018b      	lsls	r3, r1, #6
 8000332:	1ac0      	subs	r0, r0, r3
 8000334:	4152      	adcs	r2, r2
 8000336:	0943      	lsrs	r3, r0, #5
 8000338:	428b      	cmp	r3, r1
 800033a:	d301      	bcc.n	8000340 <__divsi3+0x16c>
 800033c:	014b      	lsls	r3, r1, #5
 800033e:	1ac0      	subs	r0, r0, r3
 8000340:	4152      	adcs	r2, r2
 8000342:	0903      	lsrs	r3, r0, #4
 8000344:	428b      	cmp	r3, r1
 8000346:	d301      	bcc.n	800034c <__divsi3+0x178>
 8000348:	010b      	lsls	r3, r1, #4
 800034a:	1ac0      	subs	r0, r0, r3
 800034c:	4152      	adcs	r2, r2
 800034e:	08c3      	lsrs	r3, r0, #3
 8000350:	428b      	cmp	r3, r1
 8000352:	d301      	bcc.n	8000358 <__divsi3+0x184>
 8000354:	00cb      	lsls	r3, r1, #3
 8000356:	1ac0      	subs	r0, r0, r3
 8000358:	4152      	adcs	r2, r2
 800035a:	0883      	lsrs	r3, r0, #2
 800035c:	428b      	cmp	r3, r1
 800035e:	d301      	bcc.n	8000364 <__divsi3+0x190>
 8000360:	008b      	lsls	r3, r1, #2
 8000362:	1ac0      	subs	r0, r0, r3
 8000364:	4152      	adcs	r2, r2
 8000366:	d2d9      	bcs.n	800031c <__divsi3+0x148>
 8000368:	0843      	lsrs	r3, r0, #1
 800036a:	428b      	cmp	r3, r1
 800036c:	d301      	bcc.n	8000372 <__divsi3+0x19e>
 800036e:	004b      	lsls	r3, r1, #1
 8000370:	1ac0      	subs	r0, r0, r3
 8000372:	4152      	adcs	r2, r2
 8000374:	1a41      	subs	r1, r0, r1
 8000376:	d200      	bcs.n	800037a <__divsi3+0x1a6>
 8000378:	4601      	mov	r1, r0
 800037a:	4663      	mov	r3, ip
 800037c:	4152      	adcs	r2, r2
 800037e:	105b      	asrs	r3, r3, #1
 8000380:	4610      	mov	r0, r2
 8000382:	d301      	bcc.n	8000388 <__divsi3+0x1b4>
 8000384:	4240      	negs	r0, r0
 8000386:	2b00      	cmp	r3, #0
 8000388:	d500      	bpl.n	800038c <__divsi3+0x1b8>
 800038a:	4249      	negs	r1, r1
 800038c:	4770      	bx	lr
 800038e:	4663      	mov	r3, ip
 8000390:	105b      	asrs	r3, r3, #1
 8000392:	d300      	bcc.n	8000396 <__divsi3+0x1c2>
 8000394:	4240      	negs	r0, r0
 8000396:	b501      	push	{r0, lr}
 8000398:	2000      	movs	r0, #0
 800039a:	f000 f805 	bl	80003a8 <__aeabi_idiv0>
 800039e:	bd02      	pop	{r1, pc}

080003a0 <__aeabi_idivmod>:
 80003a0:	2900      	cmp	r1, #0
 80003a2:	d0f8      	beq.n	8000396 <__divsi3+0x1c2>
 80003a4:	e716      	b.n	80001d4 <__divsi3>
 80003a6:	4770      	bx	lr

080003a8 <__aeabi_idiv0>:
 80003a8:	4770      	bx	lr
 80003aa:	46c0      	nop			@ (mov r8, r8)

080003ac <deregister_tm_clones>:
 80003ac:	4804      	ldr	r0, [pc, #16]	@ (80003c0 <deregister_tm_clones+0x14>)
 80003ae:	4b05      	ldr	r3, [pc, #20]	@ (80003c4 <deregister_tm_clones+0x18>)
 80003b0:	b510      	push	{r4, lr}
 80003b2:	4283      	cmp	r3, r0
 80003b4:	d003      	beq.n	80003be <deregister_tm_clones+0x12>
 80003b6:	4b04      	ldr	r3, [pc, #16]	@ (80003c8 <deregister_tm_clones+0x1c>)
 80003b8:	2b00      	cmp	r3, #0
 80003ba:	d000      	beq.n	80003be <deregister_tm_clones+0x12>
 80003bc:	4798      	blx	r3
 80003be:	bd10      	pop	{r4, pc}
 80003c0:	20000008 	.word	0x20000008
 80003c4:	20000008 	.word	0x20000008
 80003c8:	00000000 	.word	0x00000000

080003cc <register_tm_clones>:
 80003cc:	4806      	ldr	r0, [pc, #24]	@ (80003e8 <register_tm_clones+0x1c>)
 80003ce:	4907      	ldr	r1, [pc, #28]	@ (80003ec <register_tm_clones+0x20>)
 80003d0:	1a09      	subs	r1, r1, r0
 80003d2:	108b      	asrs	r3, r1, #2
 80003d4:	0fc9      	lsrs	r1, r1, #31
 80003d6:	18c9      	adds	r1, r1, r3
 80003d8:	b510      	push	{r4, lr}
 80003da:	1049      	asrs	r1, r1, #1
 80003dc:	d003      	beq.n	80003e6 <register_tm_clones+0x1a>
 80003de:	4b04      	ldr	r3, [pc, #16]	@ (80003f0 <register_tm_clones+0x24>)
 80003e0:	2b00      	cmp	r3, #0
 80003e2:	d000      	beq.n	80003e6 <register_tm_clones+0x1a>
 80003e4:	4798      	blx	r3
 80003e6:	bd10      	pop	{r4, pc}
 80003e8:	20000008 	.word	0x20000008
 80003ec:	20000008 	.word	0x20000008
 80003f0:	00000000 	.word	0x00000000

080003f4 <__do_global_dtors_aux>:
 80003f4:	b510      	push	{r4, lr}
 80003f6:	4c07      	ldr	r4, [pc, #28]	@ (8000414 <__do_global_dtors_aux+0x20>)
 80003f8:	7823      	ldrb	r3, [r4, #0]
 80003fa:	2b00      	cmp	r3, #0
 80003fc:	d109      	bne.n	8000412 <__do_global_dtors_aux+0x1e>
 80003fe:	f7ff ffd5 	bl	80003ac <deregister_tm_clones>
 8000402:	4b05      	ldr	r3, [pc, #20]	@ (8000418 <__do_global_dtors_aux+0x24>)
 8000404:	2b00      	cmp	r3, #0
 8000406:	d002      	beq.n	800040e <__do_global_dtors_aux+0x1a>
 8000408:	4804      	ldr	r0, [pc, #16]	@ (800041c <__do_global_dtors_aux+0x28>)
 800040a:	e000      	b.n	800040e <__do_global_dtors_aux+0x1a>
 800040c:	bf00      	nop
 800040e:	2301      	movs	r3, #1
 8000410:	7023      	strb	r3, [r4, #0]
 8000412:	bd10      	pop	{r4, pc}
 8000414:	20000008 	.word	0x20000008
 8000418:	00000000 	.word	0x00000000
 800041c:	08001810 	.word	0x08001810

08000420 <frame_dummy>:
 8000420:	4b05      	ldr	r3, [pc, #20]	@ (8000438 <frame_dummy+0x18>)
 8000422:	b510      	push	{r4, lr}
 8000424:	2b00      	cmp	r3, #0
 8000426:	d003      	beq.n	8000430 <frame_dummy+0x10>
 8000428:	4904      	ldr	r1, [pc, #16]	@ (800043c <frame_dummy+0x1c>)
 800042a:	4805      	ldr	r0, [pc, #20]	@ (8000440 <frame_dummy+0x20>)
 800042c:	e000      	b.n	8000430 <frame_dummy+0x10>
 800042e:	bf00      	nop
 8000430:	f7ff ffcc 	bl	80003cc <register_tm_clones>
 8000434:	bd10      	pop	{r4, pc}
 8000436:	46c0      	nop			@ (mov r8, r8)
 8000438:	00000000 	.word	0x00000000
 800043c:	2000000c 	.word	0x2000000c
 8000440:	08001810 	.word	0x08001810

08000444 <SystemInit_GPIO>:
 8000444:	b570      	push	{r4, r5, r6, lr}
 8000446:	b082      	sub	sp, #8
 8000448:	4b1f      	ldr	r3, [pc, #124]	@ (80004c8 <SystemInit_GPIO+0x84>)
 800044a:	6b59      	ldr	r1, [r3, #52]	@ 0x34
 800044c:	2201      	movs	r2, #1
 800044e:	4311      	orrs	r1, r2
 8000450:	6359      	str	r1, [r3, #52]	@ 0x34
 8000452:	6b59      	ldr	r1, [r3, #52]	@ 0x34
 8000454:	400a      	ands	r2, r1
 8000456:	9200      	str	r2, [sp, #0]
 8000458:	9a00      	ldr	r2, [sp, #0]
 800045a:	6b59      	ldr	r1, [r3, #52]	@ 0x34
 800045c:	2202      	movs	r2, #2
 800045e:	4311      	orrs	r1, r2
 8000460:	6359      	str	r1, [r3, #52]	@ 0x34
 8000462:	6b5b      	ldr	r3, [r3, #52]	@ 0x34
 8000464:	4013      	ands	r3, r2
 8000466:	9301      	str	r3, [sp, #4]
 8000468:	9b01      	ldr	r3, [sp, #4]
 800046a:	23a0      	movs	r3, #160	@ 0xa0
 800046c:	05db      	lsls	r3, r3, #23
 800046e:	6819      	ldr	r1, [r3, #0]
 8000470:	250c      	movs	r5, #12
 8000472:	43a9      	bics	r1, r5
 8000474:	6019      	str	r1, [r3, #0]
 8000476:	6818      	ldr	r0, [r3, #0]
 8000478:	2104      	movs	r1, #4
 800047a:	4308      	orrs	r0, r1
 800047c:	6018      	str	r0, [r3, #0]
 800047e:	619a      	str	r2, [r3, #24]
 8000480:	681a      	ldr	r2, [r3, #0]
 8000482:	2430      	movs	r4, #48	@ 0x30
 8000484:	43a2      	bics	r2, r4
 8000486:	601a      	str	r2, [r3, #0]
 8000488:	681a      	ldr	r2, [r3, #0]
 800048a:	2010      	movs	r0, #16
 800048c:	4302      	orrs	r2, r0
 800048e:	601a      	str	r2, [r3, #0]
 8000490:	6299      	str	r1, [r3, #40]	@ 0x28
 8000492:	681a      	ldr	r2, [r3, #0]
 8000494:	26c0      	movs	r6, #192	@ 0xc0
 8000496:	43b2      	bics	r2, r6
 8000498:	601a      	str	r2, [r3, #0]
 800049a:	68da      	ldr	r2, [r3, #12]
 800049c:	43b2      	bics	r2, r6
 800049e:	60da      	str	r2, [r3, #12]
 80004a0:	68da      	ldr	r2, [r3, #12]
 80004a2:	3e80      	subs	r6, #128	@ 0x80
 80004a4:	4332      	orrs	r2, r6
 80004a6:	60da      	str	r2, [r3, #12]
 80004a8:	4b08      	ldr	r3, [pc, #32]	@ (80004cc <SystemInit_GPIO+0x88>)
 80004aa:	681a      	ldr	r2, [r3, #0]
 80004ac:	43aa      	bics	r2, r5
 80004ae:	601a      	str	r2, [r3, #0]
 80004b0:	681a      	ldr	r2, [r3, #0]
 80004b2:	43a2      	bics	r2, r4
 80004b4:	601a      	str	r2, [r3, #0]
 80004b6:	681a      	ldr	r2, [r3, #0]
 80004b8:	430a      	orrs	r2, r1
 80004ba:	601a      	str	r2, [r3, #0]
 80004bc:	681a      	ldr	r2, [r3, #0]
 80004be:	4302      	orrs	r2, r0
 80004c0:	601a      	str	r2, [r3, #0]
 80004c2:	b002      	add	sp, #8
 80004c4:	bd70      	pop	{r4, r5, r6, pc}
 80004c6:	46c0      	nop			@ (mov r8, r8)
 80004c8:	40021000 	.word	0x40021000
 80004cc:	50000400 	.word	0x50000400

080004d0 <SystemInit_Timer>:
 80004d0:	4a07      	ldr	r2, [pc, #28]	@ (80004f0 <SystemInit_Timer+0x20>)
 80004d2:	4b08      	ldr	r3, [pc, #32]	@ (80004f4 <SystemInit_Timer+0x24>)
 80004d4:	6053      	str	r3, [r2, #4]
 80004d6:	4808      	ldr	r0, [pc, #32]	@ (80004f8 <SystemInit_Timer+0x28>)
 80004d8:	6a03      	ldr	r3, [r0, #32]
 80004da:	021b      	lsls	r3, r3, #8
 80004dc:	0a1b      	lsrs	r3, r3, #8
 80004de:	21c0      	movs	r1, #192	@ 0xc0
 80004e0:	0609      	lsls	r1, r1, #24
 80004e2:	430b      	orrs	r3, r1
 80004e4:	6203      	str	r3, [r0, #32]
 80004e6:	2300      	movs	r3, #0
 80004e8:	6093      	str	r3, [r2, #8]
 80004ea:	3307      	adds	r3, #7
 80004ec:	6013      	str	r3, [r2, #0]
 80004ee:	4770      	bx	lr
 80004f0:	e000e010 	.word	0xe000e010
 80004f4:	0001387f 	.word	0x0001387f
 80004f8:	e000ed00 	.word	0xe000ed00

080004fc <Task_100ms>:
 80004fc:	b530      	push	{r4, r5, lr}
 80004fe:	b087      	sub	sp, #28
 8000500:	ac01      	add	r4, sp, #4
 8000502:	0020      	movs	r0, r4
 8000504:	f000 fc9a 	bl	8000e3c <ADC_GetMeasurement>
 8000508:	9d01      	ldr	r5, [sp, #4]
 800050a:	0028      	movs	r0, r5
 800050c:	f000 fffa 	bl	8001504 <Battery_Update>
 8000510:	0028      	movs	r0, r5
 8000512:	f001 f8bb 	bl	800168c <SOC_Update>
 8000516:	8923      	ldrh	r3, [r4, #8]
 8000518:	88e2      	ldrh	r2, [r4, #6]
 800051a:	88a1      	ldrh	r1, [r4, #4]
 800051c:	0028      	movs	r0, r5
 800051e:	f000 fed9 	bl	80012d4 <ChargerSM_Task>
 8000522:	f000 fca1 	bl	8000e68 <ADC_StartConversion>
 8000526:	b007      	add	sp, #28
 8000528:	bd30      	pop	{r4, r5, pc}

0800052a <UpdateLED>:
 800052a:	b510      	push	{r4, lr}
 800052c:	f000 ff8a 	bl	8001444 <ChargerSM_GetState>
 8000530:	2800      	cmp	r0, #0
 8000532:	d100      	bne.n	8000536 <UpdateLED+0xc>
 8000534:	bd10      	pop	{r4, pc}
 8000536:	f000 ff97 	bl	8001468 <ChargerSM_IsCharging>
 800053a:	e7fb      	b.n	8000534 <UpdateLED+0xa>

0800053c <UpdateFan>:
 800053c:	b510      	push	{r4, lr}
 800053e:	f000 ff8d 	bl	800145c <ChargerSM_IsFanEnabled>
 8000542:	2800      	cmp	r0, #0
 8000544:	d004      	beq.n	8000550 <UpdateFan+0x14>
 8000546:	23a0      	movs	r3, #160	@ 0xa0
 8000548:	05db      	lsls	r3, r3, #23
 800054a:	2204      	movs	r2, #4
 800054c:	619a      	str	r2, [r3, #24]
 800054e:	bd10      	pop	{r4, pc}
 8000550:	23a0      	movs	r3, #160	@ 0xa0
 8000552:	05db      	lsls	r3, r3, #23
 8000554:	2204      	movs	r2, #4
 8000556:	629a      	str	r2, [r3, #40]	@ 0x28
 8000558:	e7f9      	b.n	800054e <UpdateFan+0x12>

0800055a <UpdateTL494>:
 800055a:	b510      	push	{r4, lr}
 800055c:	f000 ff9a 	bl	8001494 <ChargerSM_IsPWMEnabled>
 8000560:	2800      	cmp	r0, #0
 8000562:	d004      	beq.n	800056e <UpdateTL494+0x14>
 8000564:	23a0      	movs	r3, #160	@ 0xa0
 8000566:	05db      	lsls	r3, r3, #23
 8000568:	2202      	movs	r2, #2
 800056a:	629a      	str	r2, [r3, #40]	@ 0x28
 800056c:	bd10      	pop	{r4, pc}
 800056e:	23a0      	movs	r3, #160	@ 0xa0
 8000570:	05db      	lsls	r3, r3, #23
 8000572:	2202      	movs	r2, #2
 8000574:	619a      	str	r2, [r3, #24]
 8000576:	e7f9      	b.n	800056c <UpdateTL494+0x12>

08000578 <CheckACPower>:
 8000578:	b510      	push	{r4, lr}
 800057a:	b082      	sub	sp, #8
 800057c:	23a0      	movs	r3, #160	@ 0xa0
 800057e:	05db      	lsls	r3, r3, #23
 8000580:	691a      	ldr	r2, [r3, #16]
 8000582:	2308      	movs	r3, #8
 8000584:	4013      	ands	r3, r2
 8000586:	425c      	negs	r4, r3
 8000588:	415c      	adcs	r4, r3
 800058a:	b2e4      	uxtb	r4, r4
 800058c:	2b00      	cmp	r3, #0
 800058e:	d10a      	bne.n	80005a6 <CheckACPower+0x2e>
 8000590:	4b08      	ldr	r3, [pc, #32]	@ (80005b4 <CheckACPower+0x3c>)
 8000592:	781b      	ldrb	r3, [r3, #0]
 8000594:	2b00      	cmp	r3, #0
 8000596:	d003      	beq.n	80005a0 <CheckACPower+0x28>
 8000598:	4b06      	ldr	r3, [pc, #24]	@ (80005b4 <CheckACPower+0x3c>)
 800059a:	701c      	strb	r4, [r3, #0]
 800059c:	b002      	add	sp, #8
 800059e:	bd10      	pop	{r4, pc}
 80005a0:	f000 ff38 	bl	8001414 <ChargerSM_ACOnEvent>
 80005a4:	e7f8      	b.n	8000598 <CheckACPower+0x20>
 80005a6:	4b03      	ldr	r3, [pc, #12]	@ (80005b4 <CheckACPower+0x3c>)
 80005a8:	781b      	ldrb	r3, [r3, #0]
 80005aa:	2b00      	cmp	r3, #0
 80005ac:	d0f4      	beq.n	8000598 <CheckACPower+0x20>
 80005ae:	f000 ff41 	bl	8001434 <ChargerSM_ACOffEvent>
 80005b2:	e7f1      	b.n	8000598 <CheckACPower+0x20>
 80005b4:	20000024 	.word	0x20000024

080005b8 <SystemInit_ADC>:
 80005b8:	b510      	push	{r4, lr}
 80005ba:	b086      	sub	sp, #24
 80005bc:	ac01      	add	r4, sp, #4
 80005be:	2214      	movs	r2, #20
 80005c0:	2100      	movs	r1, #0
 80005c2:	0020      	movs	r0, r4
 80005c4:	f001 f8ed 	bl	80017a2 <memset>
 80005c8:	2314      	movs	r3, #20
 80005ca:	8023      	strh	r3, [r4, #0]
 80005cc:	3b11      	subs	r3, #17
 80005ce:	8063      	strh	r3, [r4, #2]
 80005d0:	23fa      	movs	r3, #250	@ 0xfa
 80005d2:	00db      	lsls	r3, r3, #3
 80005d4:	8123      	strh	r3, [r4, #8]
 80005d6:	23fa      	movs	r3, #250	@ 0xfa
 80005d8:	011b      	lsls	r3, r3, #4
 80005da:	8163      	strh	r3, [r4, #10]
 80005dc:	23fa      	movs	r3, #250	@ 0xfa
 80005de:	005b      	lsls	r3, r3, #1
 80005e0:	81a3      	strh	r3, [r4, #12]
 80005e2:	2396      	movs	r3, #150	@ 0x96
 80005e4:	00db      	lsls	r3, r3, #3
 80005e6:	8223      	strh	r3, [r4, #16]
 80005e8:	3bc8      	subs	r3, #200	@ 0xc8
 80005ea:	8263      	strh	r3, [r4, #18]
 80005ec:	0020      	movs	r0, r4
 80005ee:	f000 fbe9 	bl	8000dc4 <ADC_Init>
 80005f2:	b006      	add	sp, #24
 80005f4:	bd10      	pop	{r4, pc}
	...

080005f8 <ChargerInit>:
 80005f8:	b570      	push	{r4, r5, r6, lr}
 80005fa:	b090      	sub	sp, #64	@ 0x40
 80005fc:	466c      	mov	r4, sp
 80005fe:	2224      	movs	r2, #36	@ 0x24
 8000600:	2100      	movs	r1, #0
 8000602:	4668      	mov	r0, sp
 8000604:	f001 f8cd 	bl	80017a2 <memset>
 8000608:	4b16      	ldr	r3, [pc, #88]	@ (8000664 <ChargerInit+0x6c>)
 800060a:	9300      	str	r3, [sp, #0]
 800060c:	4b16      	ldr	r3, [pc, #88]	@ (8000668 <ChargerInit+0x70>)
 800060e:	8223      	strh	r3, [r4, #16]
 8000610:	4b16      	ldr	r3, [pc, #88]	@ (800066c <ChargerInit+0x74>)
 8000612:	9305      	str	r3, [sp, #20]
 8000614:	4b16      	ldr	r3, [pc, #88]	@ (8000670 <ChargerInit+0x78>)
 8000616:	9306      	str	r3, [sp, #24]
 8000618:	2396      	movs	r3, #150	@ 0x96
 800061a:	00db      	lsls	r3, r3, #3
 800061c:	83a3      	strh	r3, [r4, #28]
 800061e:	3bc8      	subs	r3, #200	@ 0xc8
 8000620:	83e3      	strh	r3, [r4, #30]
 8000622:	233c      	movs	r3, #60	@ 0x3c
 8000624:	2220      	movs	r2, #32
 8000626:	54a3      	strb	r3, [r4, r2]
 8000628:	3201      	adds	r2, #1
 800062a:	54a3      	strb	r3, [r4, r2]
 800062c:	3b1a      	subs	r3, #26
 800062e:	3a1a      	subs	r2, #26
 8000630:	54e2      	strb	r2, [r4, r3]
 8000632:	3301      	adds	r3, #1
 8000634:	3a06      	subs	r2, #6
 8000636:	54e2      	strb	r2, [r4, r3]
 8000638:	4668      	mov	r0, sp
 800063a:	f000 fe17 	bl	800126c <ChargerSM_Init>
 800063e:	a809      	add	r0, sp, #36	@ 0x24
 8000640:	4c0c      	ldr	r4, [pc, #48]	@ (8000674 <ChargerInit+0x7c>)
 8000642:	0003      	movs	r3, r0
 8000644:	0022      	movs	r2, r4
 8000646:	ca62      	ldmia	r2!, {r1, r5, r6}
 8000648:	c362      	stmia	r3!, {r1, r5, r6}
 800064a:	ca22      	ldmia	r2!, {r1, r5}
 800064c:	c322      	stmia	r3!, {r1, r5}
 800064e:	f000 ff3d 	bl	80014cc <Battery_Init>
 8000652:	a80e      	add	r0, sp, #56	@ 0x38
 8000654:	3414      	adds	r4, #20
 8000656:	0003      	movs	r3, r0
 8000658:	cc06      	ldmia	r4!, {r1, r2}
 800065a:	c306      	stmia	r3!, {r1, r2}
 800065c:	f000 fff6 	bl	800164c <SOC_Init>
 8000660:	b010      	add	sp, #64	@ 0x40
 8000662:	bd70      	pop	{r4, r5, r6, pc}
 8000664:	00010680 	.word	0x00010680
 8000668:	00001838 	.word	0x00001838
 800066c:	000124f8 	.word	0x000124f8
 8000670:	00002710 	.word	0x00002710
 8000674:	08001828 	.word	0x08001828

08000678 <Task_10ms>:
 8000678:	b510      	push	{r4, lr}
 800067a:	f000 fb75 	bl	8000d68 <Button_Task>
 800067e:	4b10      	ldr	r3, [pc, #64]	@ (80006c0 <Task_10ms+0x48>)
 8000680:	781b      	ldrb	r3, [r3, #0]
 8000682:	2b04      	cmp	r3, #4
 8000684:	d00d      	beq.n	80006a2 <Task_10ms+0x2a>
 8000686:	f000 fb55 	bl	8000d34 <Menu_IsActive>
 800068a:	2800      	cmp	r0, #0
 800068c:	d00c      	beq.n	80006a8 <Task_10ms+0x30>
 800068e:	4b0d      	ldr	r3, [pc, #52]	@ (80006c4 <Task_10ms+0x4c>)
 8000690:	2201      	movs	r2, #1
 8000692:	701a      	strb	r2, [r3, #0]
 8000694:	4b0a      	ldr	r3, [pc, #40]	@ (80006c0 <Task_10ms+0x48>)
 8000696:	3203      	adds	r2, #3
 8000698:	701a      	strb	r2, [r3, #0]
 800069a:	4b0b      	ldr	r3, [pc, #44]	@ (80006c8 <Task_10ms+0x50>)
 800069c:	2200      	movs	r2, #0
 800069e:	601a      	str	r2, [r3, #0]
 80006a0:	bd10      	pop	{r4, pc}
 80006a2:	f000 fa8b 	bl	8000bbc <Menu_Task>
 80006a6:	e7ee      	b.n	8000686 <Task_10ms+0xe>
 80006a8:	4b06      	ldr	r3, [pc, #24]	@ (80006c4 <Task_10ms+0x4c>)
 80006aa:	781b      	ldrb	r3, [r3, #0]
 80006ac:	2b00      	cmp	r3, #0
 80006ae:	d0f7      	beq.n	80006a0 <Task_10ms+0x28>
 80006b0:	4a04      	ldr	r2, [pc, #16]	@ (80006c4 <Task_10ms+0x4c>)
 80006b2:	2300      	movs	r3, #0
 80006b4:	7013      	strb	r3, [r2, #0]
 80006b6:	4a02      	ldr	r2, [pc, #8]	@ (80006c0 <Task_10ms+0x48>)
 80006b8:	7013      	strb	r3, [r2, #0]
 80006ba:	4a03      	ldr	r2, [pc, #12]	@ (80006c8 <Task_10ms+0x50>)
 80006bc:	6013      	str	r3, [r2, #0]
 80006be:	e7ef      	b.n	80006a0 <Task_10ms+0x28>
 80006c0:	20000030 	.word	0x20000030
 80006c4:	20000031 	.word	0x20000031
 80006c8:	2000002c 	.word	0x2000002c

080006cc <Task_1sec>:
 80006cc:	b510      	push	{r4, lr}
 80006ce:	f000 feb9 	bl	8001444 <ChargerSM_GetState>
 80006d2:	280a      	cmp	r0, #10
 80006d4:	d103      	bne.n	80006de <Task_1sec+0x12>
 80006d6:	4b13      	ldr	r3, [pc, #76]	@ (8000724 <Task_1sec+0x58>)
 80006d8:	2203      	movs	r2, #3
 80006da:	701a      	strb	r2, [r3, #0]
 80006dc:	bd10      	pop	{r4, pc}
 80006de:	f000 fb29 	bl	8000d34 <Menu_IsActive>
 80006e2:	2800      	cmp	r0, #0
 80006e4:	d003      	beq.n	80006ee <Task_1sec+0x22>
 80006e6:	4b0f      	ldr	r3, [pc, #60]	@ (8000724 <Task_1sec+0x58>)
 80006e8:	2204      	movs	r2, #4
 80006ea:	701a      	strb	r2, [r3, #0]
 80006ec:	e7f6      	b.n	80006dc <Task_1sec+0x10>
 80006ee:	f000 febb 	bl	8001468 <ChargerSM_IsCharging>
 80006f2:	2800      	cmp	r0, #0
 80006f4:	d012      	beq.n	800071c <Task_1sec+0x50>
 80006f6:	4a0c      	ldr	r2, [pc, #48]	@ (8000728 <Task_1sec+0x5c>)
 80006f8:	6813      	ldr	r3, [r2, #0]
 80006fa:	3301      	adds	r3, #1
 80006fc:	6013      	str	r3, [r2, #0]
 80006fe:	2b09      	cmp	r3, #9
 8000700:	d9ec      	bls.n	80006dc <Task_1sec+0x10>
 8000702:	0013      	movs	r3, r2
 8000704:	2200      	movs	r2, #0
 8000706:	601a      	str	r2, [r3, #0]
 8000708:	4b06      	ldr	r3, [pc, #24]	@ (8000724 <Task_1sec+0x58>)
 800070a:	781b      	ldrb	r3, [r3, #0]
 800070c:	2b00      	cmp	r3, #0
 800070e:	d103      	bne.n	8000718 <Task_1sec+0x4c>
 8000710:	3202      	adds	r2, #2
 8000712:	4b04      	ldr	r3, [pc, #16]	@ (8000724 <Task_1sec+0x58>)
 8000714:	701a      	strb	r2, [r3, #0]
 8000716:	e7e1      	b.n	80006dc <Task_1sec+0x10>
 8000718:	2200      	movs	r2, #0
 800071a:	e7fa      	b.n	8000712 <Task_1sec+0x46>
 800071c:	4b01      	ldr	r3, [pc, #4]	@ (8000724 <Task_1sec+0x58>)
 800071e:	2200      	movs	r2, #0
 8000720:	701a      	strb	r2, [r3, #0]
 8000722:	e7db      	b.n	80006dc <Task_1sec+0x10>
 8000724:	20000030 	.word	0x20000030
 8000728:	2000002c 	.word	0x2000002c

0800072c <main>:
 800072c:	b510      	push	{r4, lr}
 800072e:	f7ff fe89 	bl	8000444 <SystemInit_GPIO>
 8000732:	f7ff fecd 	bl	80004d0 <SystemInit_Timer>
 8000736:	f7ff ff3f 	bl	80005b8 <SystemInit_ADC>
 800073a:	f000 fb0b 	bl	8000d54 <Button_Init>
 800073e:	f000 fa21 	bl	8000b84 <Menu_Init>
 8000742:	f000 f930 	bl	80009a6 <TM1637_Init>
 8000746:	f7ff ff57 	bl	80005f8 <ChargerInit>
 800074a:	b662      	cpsie	i
 800074c:	20d2      	movs	r0, #210	@ 0xd2
 800074e:	0140      	lsls	r0, r0, #5
 8000750:	f000 f98c 	bl	8000a6c <TM1637_DisplayVoltage>
 8000754:	bf30      	wfi
 8000756:	e7fd      	b.n	8000754 <main+0x28>

08000758 <UpdateDisplay>:
 8000758:	b510      	push	{r4, lr}
 800075a:	b086      	sub	sp, #24
 800075c:	a801      	add	r0, sp, #4
 800075e:	f000 fb6d 	bl	8000e3c <ADC_GetMeasurement>
 8000762:	f000 ffd7 	bl	8001714 <SOC_GetDisplaySOC>
 8000766:	0004      	movs	r4, r0
 8000768:	4b17      	ldr	r3, [pc, #92]	@ (80007c8 <UpdateDisplay+0x70>)
 800076a:	781a      	ldrb	r2, [r3, #0]
 800076c:	2a04      	cmp	r2, #4
 800076e:	d80a      	bhi.n	8000786 <UpdateDisplay+0x2e>
 8000770:	0093      	lsls	r3, r2, #2
 8000772:	4a16      	ldr	r2, [pc, #88]	@ (80007cc <UpdateDisplay+0x74>)
 8000774:	58d3      	ldr	r3, [r2, r3]
 8000776:	469f      	mov	pc, r3
 8000778:	9801      	ldr	r0, [sp, #4]
 800077a:	210a      	movs	r1, #10
 800077c:	f7ff fca0 	bl	80000c0 <__udivsi3>
 8000780:	b280      	uxth	r0, r0
 8000782:	f000 f973 	bl	8000a6c <TM1637_DisplayVoltage>
 8000786:	b006      	add	sp, #24
 8000788:	bd10      	pop	{r4, pc}
 800078a:	ab01      	add	r3, sp, #4
 800078c:	8898      	ldrh	r0, [r3, #4]
 800078e:	21fa      	movs	r1, #250	@ 0xfa
 8000790:	0089      	lsls	r1, r1, #2
 8000792:	f7ff fc95 	bl	80000c0 <__udivsi3>
 8000796:	b280      	uxth	r0, r0
 8000798:	f000 f934 	bl	8000a04 <TM1637_DisplayNumber>
 800079c:	e7f3      	b.n	8000786 <UpdateDisplay+0x2e>
 800079e:	f000 ffbf 	bl	8001720 <SOC_IsQualified>
 80007a2:	2800      	cmp	r0, #0
 80007a4:	d003      	beq.n	80007ae <UpdateDisplay+0x56>
 80007a6:	0020      	movs	r0, r4
 80007a8:	f000 f92c 	bl	8000a04 <TM1637_DisplayNumber>
 80007ac:	e7eb      	b.n	8000786 <UpdateDisplay+0x2e>
 80007ae:	0020      	movs	r0, r4
 80007b0:	f000 f928 	bl	8000a04 <TM1637_DisplayNumber>
 80007b4:	e7e7      	b.n	8000786 <UpdateDisplay+0x2e>
 80007b6:	f000 fe4b 	bl	8001450 <ChargerSM_GetFault>
 80007ba:	f000 f923 	bl	8000a04 <TM1637_DisplayNumber>
 80007be:	e7e2      	b.n	8000786 <UpdateDisplay+0x2e>
 80007c0:	f000 fa42 	bl	8000c48 <Menu_UpdateDisplay>
 80007c4:	e7df      	b.n	8000786 <UpdateDisplay+0x2e>
 80007c6:	46c0      	nop			@ (mov r8, r8)
 80007c8:	20000030 	.word	0x20000030
 80007cc:	08001844 	.word	0x08001844

080007d0 <App_SysTickHandler>:
 80007d0:	b510      	push	{r4, lr}
 80007d2:	4a15      	ldr	r2, [pc, #84]	@ (8000828 <App_SysTickHandler+0x58>)
 80007d4:	6813      	ldr	r3, [r2, #0]
 80007d6:	330a      	adds	r3, #10
 80007d8:	6013      	str	r3, [r2, #0]
 80007da:	f7ff ff4d 	bl	8000678 <Task_10ms>
 80007de:	4a13      	ldr	r2, [pc, #76]	@ (800082c <App_SysTickHandler+0x5c>)
 80007e0:	7813      	ldrb	r3, [r2, #0]
 80007e2:	3301      	adds	r3, #1
 80007e4:	b2db      	uxtb	r3, r3
 80007e6:	7013      	strb	r3, [r2, #0]
 80007e8:	2b09      	cmp	r3, #9
 80007ea:	d811      	bhi.n	8000810 <App_SysTickHandler+0x40>
 80007ec:	4a10      	ldr	r2, [pc, #64]	@ (8000830 <App_SysTickHandler+0x60>)
 80007ee:	8813      	ldrh	r3, [r2, #0]
 80007f0:	3301      	adds	r3, #1
 80007f2:	b29b      	uxth	r3, r3
 80007f4:	8013      	strh	r3, [r2, #0]
 80007f6:	2b63      	cmp	r3, #99	@ 0x63
 80007f8:	d810      	bhi.n	800081c <App_SysTickHandler+0x4c>
 80007fa:	f7ff ffad 	bl	8000758 <UpdateDisplay>
 80007fe:	f7ff fe94 	bl	800052a <UpdateLED>
 8000802:	f7ff fe9b 	bl	800053c <UpdateFan>
 8000806:	f7ff fea8 	bl	800055a <UpdateTL494>
 800080a:	f7ff feb5 	bl	8000578 <CheckACPower>
 800080e:	bd10      	pop	{r4, pc}
 8000810:	0013      	movs	r3, r2
 8000812:	2200      	movs	r2, #0
 8000814:	701a      	strb	r2, [r3, #0]
 8000816:	f7ff fe71 	bl	80004fc <Task_100ms>
 800081a:	e7e7      	b.n	80007ec <App_SysTickHandler+0x1c>
 800081c:	0013      	movs	r3, r2
 800081e:	2200      	movs	r2, #0
 8000820:	801a      	strh	r2, [r3, #0]
 8000822:	f7ff ff53 	bl	80006cc <Task_1sec>
 8000826:	e7e8      	b.n	80007fa <App_SysTickHandler+0x2a>
 8000828:	20000034 	.word	0x20000034
 800082c:	20000028 	.word	0x20000028
 8000830:	20000026 	.word	0x20000026

08000834 <NMI_Handler>:
 8000834:	4770      	bx	lr

08000836 <HardFault_Handler>:
 8000836:	e7fe      	b.n	8000836 <HardFault_Handler>

08000838 <SVC_Handler>:
 8000838:	4770      	bx	lr

0800083a <PendSV_Handler>:
 800083a:	4770      	bx	lr

0800083c <SysTick_Handler>:
 800083c:	b510      	push	{r4, lr}
 800083e:	f000 ff75 	bl	800172c <HAL_IncTick>
 8000842:	f7ff ffc5 	bl	80007d0 <App_SysTickHandler>
 8000846:	bd10      	pop	{r4, pc}

08000848 <DelayTime>:
 8000848:	b082      	sub	sp, #8
 800084a:	4b05      	ldr	r3, [pc, #20]	@ (8000860 <DelayTime+0x18>)
 800084c:	4343      	muls	r3, r0
 800084e:	9301      	str	r3, [sp, #4]
 8000850:	46c0      	nop			@ (mov r8, r8)
 8000852:	9b01      	ldr	r3, [sp, #4]
 8000854:	1e5a      	subs	r2, r3, #1
 8000856:	9201      	str	r2, [sp, #4]
 8000858:	2b00      	cmp	r3, #0
 800085a:	d1f9      	bne.n	8000850 <DelayTime+0x8>
 800085c:	b002      	add	sp, #8
 800085e:	4770      	bx	lr
 8000860:	00000bb8 	.word	0x00000bb8

08000864 <SystemInit>:
 8000864:	b510      	push	{r4, lr}
 8000866:	490e      	ldr	r1, [pc, #56]	@ (80008a0 <SystemInit+0x3c>)
 8000868:	684b      	ldr	r3, [r1, #4]
 800086a:	0c1b      	lsrs	r3, r3, #16
 800086c:	041b      	lsls	r3, r3, #16
 800086e:	4a0d      	ldr	r2, [pc, #52]	@ (80008a4 <SystemInit+0x40>)
 8000870:	6812      	ldr	r2, [r2, #0]
 8000872:	0412      	lsls	r2, r2, #16
 8000874:	0c12      	lsrs	r2, r2, #16
 8000876:	4313      	orrs	r3, r2
 8000878:	604b      	str	r3, [r1, #4]
 800087a:	684b      	ldr	r3, [r1, #4]
 800087c:	4a0a      	ldr	r2, [pc, #40]	@ (80008a8 <SystemInit+0x44>)
 800087e:	4013      	ands	r3, r2
 8000880:	4a0a      	ldr	r2, [pc, #40]	@ (80008ac <SystemInit+0x48>)
 8000882:	6812      	ldr	r2, [r2, #0]
 8000884:	0412      	lsls	r2, r2, #16
 8000886:	480a      	ldr	r0, [pc, #40]	@ (80008b0 <SystemInit+0x4c>)
 8000888:	4002      	ands	r2, r0
 800088a:	4313      	orrs	r3, r2
 800088c:	604b      	str	r3, [r1, #4]
 800088e:	4b09      	ldr	r3, [pc, #36]	@ (80008b4 <SystemInit+0x50>)
 8000890:	2280      	movs	r2, #128	@ 0x80
 8000892:	0512      	lsls	r2, r2, #20
 8000894:	609a      	str	r2, [r3, #8]
 8000896:	20c8      	movs	r0, #200	@ 0xc8
 8000898:	f7ff ffd6 	bl	8000848 <DelayTime>
 800089c:	bd10      	pop	{r4, pc}
 800089e:	46c0      	nop			@ (mov r8, r8)
 80008a0:	40021000 	.word	0x40021000
 80008a4:	1fff0100 	.word	0x1fff0100
 80008a8:	fe00ffff 	.word	0xfe00ffff
 80008ac:	1fff0144 	.word	0x1fff0144
 80008b0:	01ff0000 	.word	0x01ff0000
 80008b4:	e000ed00 	.word	0xe000ed00

080008b8 <Delay>:
 80008b8:	b082      	sub	sp, #8
 80008ba:	2300      	movs	r3, #0
 80008bc:	9301      	str	r3, [sp, #4]
 80008be:	e002      	b.n	80008c6 <Delay+0xe>
 80008c0:	9b01      	ldr	r3, [sp, #4]
 80008c2:	3301      	adds	r3, #1
 80008c4:	9301      	str	r3, [sp, #4]
 80008c6:	9b01      	ldr	r3, [sp, #4]
 80008c8:	2b13      	cmp	r3, #19
 80008ca:	ddf9      	ble.n	80008c0 <Delay+0x8>
 80008cc:	b002      	add	sp, #8
 80008ce:	4770      	bx	lr

080008d0 <CLK_HIGH>:
 80008d0:	b510      	push	{r4, lr}
 80008d2:	2201      	movs	r2, #1
 80008d4:	2104      	movs	r1, #4
 80008d6:	4802      	ldr	r0, [pc, #8]	@ (80008e0 <CLK_HIGH+0x10>)
 80008d8:	f000 ff34 	bl	8001744 <HAL_GPIO_WritePin>
 80008dc:	bd10      	pop	{r4, pc}
 80008de:	46c0      	nop			@ (mov r8, r8)
 80008e0:	50000400 	.word	0x50000400

080008e4 <DIO_HIGH>:
 80008e4:	b510      	push	{r4, lr}
 80008e6:	2201      	movs	r2, #1
 80008e8:	2102      	movs	r1, #2
 80008ea:	4802      	ldr	r0, [pc, #8]	@ (80008f4 <DIO_HIGH+0x10>)
 80008ec:	f000 ff2a 	bl	8001744 <HAL_GPIO_WritePin>
 80008f0:	bd10      	pop	{r4, pc}
 80008f2:	46c0      	nop			@ (mov r8, r8)
 80008f4:	50000400 	.word	0x50000400

080008f8 <DIO_LOW>:
 80008f8:	b510      	push	{r4, lr}
 80008fa:	2200      	movs	r2, #0
 80008fc:	2102      	movs	r1, #2
 80008fe:	4802      	ldr	r0, [pc, #8]	@ (8000908 <DIO_LOW+0x10>)
 8000900:	f000 ff20 	bl	8001744 <HAL_GPIO_WritePin>
 8000904:	bd10      	pop	{r4, pc}
 8000906:	46c0      	nop			@ (mov r8, r8)
 8000908:	50000400 	.word	0x50000400

0800090c <CLK_LOW>:
 800090c:	b510      	push	{r4, lr}
 800090e:	2200      	movs	r2, #0
 8000910:	2104      	movs	r1, #4
 8000912:	4802      	ldr	r0, [pc, #8]	@ (800091c <CLK_LOW+0x10>)
 8000914:	f000 ff16 	bl	8001744 <HAL_GPIO_WritePin>
 8000918:	bd10      	pop	{r4, pc}
 800091a:	46c0      	nop			@ (mov r8, r8)
 800091c:	50000400 	.word	0x50000400

08000920 <Start>:
 8000920:	b510      	push	{r4, lr}
 8000922:	f7ff ffdf 	bl	80008e4 <DIO_HIGH>
 8000926:	f7ff ffd3 	bl	80008d0 <CLK_HIGH>
 800092a:	f7ff ffc5 	bl	80008b8 <Delay>
 800092e:	f7ff ffe3 	bl	80008f8 <DIO_LOW>
 8000932:	f7ff ffc1 	bl	80008b8 <Delay>
 8000936:	f7ff ffe9 	bl	800090c <CLK_LOW>
 800093a:	bd10      	pop	{r4, pc}

0800093c <WriteByte>:
 800093c:	b570      	push	{r4, r5, r6, lr}
 800093e:	0005      	movs	r5, r0
 8000940:	2400      	movs	r4, #0
 8000942:	e00a      	b.n	800095a <WriteByte+0x1e>
 8000944:	f7ff ffd8 	bl	80008f8 <DIO_LOW>
 8000948:	f7ff ffb6 	bl	80008b8 <Delay>
 800094c:	f7ff ffc0 	bl	80008d0 <CLK_HIGH>
 8000950:	f7ff ffb2 	bl	80008b8 <Delay>
 8000954:	086d      	lsrs	r5, r5, #1
 8000956:	3401      	adds	r4, #1
 8000958:	b2e4      	uxtb	r4, r4
 800095a:	2c07      	cmp	r4, #7
 800095c:	d806      	bhi.n	800096c <WriteByte+0x30>
 800095e:	f7ff ffd5 	bl	800090c <CLK_LOW>
 8000962:	07eb      	lsls	r3, r5, #31
 8000964:	d5ee      	bpl.n	8000944 <WriteByte+0x8>
 8000966:	f7ff ffbd 	bl	80008e4 <DIO_HIGH>
 800096a:	e7ed      	b.n	8000948 <WriteByte+0xc>
 800096c:	f7ff ffce 	bl	800090c <CLK_LOW>
 8000970:	f7ff ffb8 	bl	80008e4 <DIO_HIGH>
 8000974:	f7ff ffa0 	bl	80008b8 <Delay>
 8000978:	f7ff ffaa 	bl	80008d0 <CLK_HIGH>
 800097c:	f7ff ff9c 	bl	80008b8 <Delay>
 8000980:	f7ff ffc4 	bl	800090c <CLK_LOW>
 8000984:	bd70      	pop	{r4, r5, r6, pc}

08000986 <Stop>:
 8000986:	b510      	push	{r4, lr}
 8000988:	f7ff ffc0 	bl	800090c <CLK_LOW>
 800098c:	f7ff ff94 	bl	80008b8 <Delay>
 8000990:	f7ff ffb2 	bl	80008f8 <DIO_LOW>
 8000994:	f7ff ff90 	bl	80008b8 <Delay>
 8000998:	f7ff ff9a 	bl	80008d0 <CLK_HIGH>
 800099c:	f7ff ff8c 	bl	80008b8 <Delay>
 80009a0:	f7ff ffa0 	bl	80008e4 <DIO_HIGH>
 80009a4:	bd10      	pop	{r4, pc}

080009a6 <TM1637_Init>:
 80009a6:	b510      	push	{r4, lr}
 80009a8:	f7ff ff92 	bl	80008d0 <CLK_HIGH>
 80009ac:	f7ff ff9a 	bl	80008e4 <DIO_HIGH>
 80009b0:	bd10      	pop	{r4, pc}
	...

080009b4 <TM1637_DisplayRaw>:
 80009b4:	b570      	push	{r4, r5, r6, lr}
 80009b6:	0005      	movs	r5, r0
 80009b8:	f7ff ffb2 	bl	8000920 <Start>
 80009bc:	2040      	movs	r0, #64	@ 0x40
 80009be:	f7ff ffbd 	bl	800093c <WriteByte>
 80009c2:	f7ff ffe0 	bl	8000986 <Stop>
 80009c6:	f7ff ffab 	bl	8000920 <Start>
 80009ca:	20c0      	movs	r0, #192	@ 0xc0
 80009cc:	f7ff ffb6 	bl	800093c <WriteByte>
 80009d0:	2400      	movs	r4, #0
 80009d2:	e004      	b.n	80009de <TM1637_DisplayRaw+0x2a>
 80009d4:	5d28      	ldrb	r0, [r5, r4]
 80009d6:	f7ff ffb1 	bl	800093c <WriteByte>
 80009da:	3401      	adds	r4, #1
 80009dc:	b2e4      	uxtb	r4, r4
 80009de:	2c03      	cmp	r4, #3
 80009e0:	d9f8      	bls.n	80009d4 <TM1637_DisplayRaw+0x20>
 80009e2:	f7ff ffd0 	bl	8000986 <Stop>
 80009e6:	f7ff ff9b 	bl	8000920 <Start>
 80009ea:	4b05      	ldr	r3, [pc, #20]	@ (8000a00 <TM1637_DisplayRaw+0x4c>)
 80009ec:	781b      	ldrb	r3, [r3, #0]
 80009ee:	2078      	movs	r0, #120	@ 0x78
 80009f0:	4240      	negs	r0, r0
 80009f2:	4318      	orrs	r0, r3
 80009f4:	b2c0      	uxtb	r0, r0
 80009f6:	f7ff ffa1 	bl	800093c <WriteByte>
 80009fa:	f7ff ffc4 	bl	8000986 <Stop>
 80009fe:	bd70      	pop	{r4, r5, r6, pc}
 8000a00:	20000000 	.word	0x20000000

08000a04 <TM1637_DisplayNumber>:
 8000a04:	b570      	push	{r4, r5, r6, lr}
 8000a06:	b082      	sub	sp, #8
 8000a08:	0004      	movs	r4, r0
 8000a0a:	21fa      	movs	r1, #250	@ 0xfa
 8000a0c:	0089      	lsls	r1, r1, #2
 8000a0e:	f7ff fb57 	bl	80000c0 <__udivsi3>
 8000a12:	b280      	uxth	r0, r0
 8000a14:	210a      	movs	r1, #10
 8000a16:	f7ff fbd9 	bl	80001cc <__aeabi_uidivmod>
 8000a1a:	b289      	uxth	r1, r1
 8000a1c:	4e12      	ldr	r6, [pc, #72]	@ (8000a68 <TM1637_DisplayNumber+0x64>)
 8000a1e:	5c73      	ldrb	r3, [r6, r1]
 8000a20:	ad01      	add	r5, sp, #4
 8000a22:	702b      	strb	r3, [r5, #0]
 8000a24:	2164      	movs	r1, #100	@ 0x64
 8000a26:	0020      	movs	r0, r4
 8000a28:	f7ff fb4a 	bl	80000c0 <__udivsi3>
 8000a2c:	b280      	uxth	r0, r0
 8000a2e:	210a      	movs	r1, #10
 8000a30:	f7ff fbcc 	bl	80001cc <__aeabi_uidivmod>
 8000a34:	b289      	uxth	r1, r1
 8000a36:	5c73      	ldrb	r3, [r6, r1]
 8000a38:	706b      	strb	r3, [r5, #1]
 8000a3a:	210a      	movs	r1, #10
 8000a3c:	0020      	movs	r0, r4
 8000a3e:	f7ff fb3f 	bl	80000c0 <__udivsi3>
 8000a42:	b280      	uxth	r0, r0
 8000a44:	210a      	movs	r1, #10
 8000a46:	f7ff fbc1 	bl	80001cc <__aeabi_uidivmod>
 8000a4a:	b289      	uxth	r1, r1
 8000a4c:	5c73      	ldrb	r3, [r6, r1]
 8000a4e:	70ab      	strb	r3, [r5, #2]
 8000a50:	210a      	movs	r1, #10
 8000a52:	0020      	movs	r0, r4
 8000a54:	f7ff fbba 	bl	80001cc <__aeabi_uidivmod>
 8000a58:	b289      	uxth	r1, r1
 8000a5a:	5c73      	ldrb	r3, [r6, r1]
 8000a5c:	70eb      	strb	r3, [r5, #3]
 8000a5e:	0028      	movs	r0, r5
 8000a60:	f7ff ffa8 	bl	80009b4 <TM1637_DisplayRaw>
 8000a64:	b002      	add	sp, #8
 8000a66:	bd70      	pop	{r4, r5, r6, pc}
 8000a68:	08001858 	.word	0x08001858

08000a6c <TM1637_DisplayVoltage>:
 8000a6c:	b5f0      	push	{r4, r5, r6, r7, lr}
 8000a6e:	b083      	sub	sp, #12
 8000a70:	0004      	movs	r4, r0
 8000a72:	21fa      	movs	r1, #250	@ 0xfa
 8000a74:	0089      	lsls	r1, r1, #2
 8000a76:	f7ff fb23 	bl	80000c0 <__udivsi3>
 8000a7a:	b2c7      	uxtb	r7, r0
 8000a7c:	2164      	movs	r1, #100	@ 0x64
 8000a7e:	0020      	movs	r0, r4
 8000a80:	f7ff fb1e 	bl	80000c0 <__udivsi3>
 8000a84:	b280      	uxth	r0, r0
 8000a86:	210a      	movs	r1, #10
 8000a88:	f7ff fba0 	bl	80001cc <__aeabi_uidivmod>
 8000a8c:	b2ce      	uxtb	r6, r1
 8000a8e:	210a      	movs	r1, #10
 8000a90:	0020      	movs	r0, r4
 8000a92:	f7ff fb15 	bl	80000c0 <__udivsi3>
 8000a96:	b280      	uxth	r0, r0
 8000a98:	210a      	movs	r1, #10
 8000a9a:	f7ff fb97 	bl	80001cc <__aeabi_uidivmod>
 8000a9e:	b2cd      	uxtb	r5, r1
 8000aa0:	210a      	movs	r1, #10
 8000aa2:	0020      	movs	r0, r4
 8000aa4:	f7ff fb92 	bl	80001cc <__aeabi_uidivmod>
 8000aa8:	b2ca      	uxtb	r2, r1
 8000aaa:	4b08      	ldr	r3, [pc, #32]	@ (8000acc <TM1637_DisplayVoltage+0x60>)
 8000aac:	5dd9      	ldrb	r1, [r3, r7]
 8000aae:	a801      	add	r0, sp, #4
 8000ab0:	7001      	strb	r1, [r0, #0]
 8000ab2:	5d9c      	ldrb	r4, [r3, r6]
 8000ab4:	2180      	movs	r1, #128	@ 0x80
 8000ab6:	4249      	negs	r1, r1
 8000ab8:	4321      	orrs	r1, r4
 8000aba:	7041      	strb	r1, [r0, #1]
 8000abc:	5d59      	ldrb	r1, [r3, r5]
 8000abe:	7081      	strb	r1, [r0, #2]
 8000ac0:	5c9b      	ldrb	r3, [r3, r2]
 8000ac2:	70c3      	strb	r3, [r0, #3]
 8000ac4:	f7ff ff76 	bl	80009b4 <TM1637_DisplayRaw>
 8000ac8:	b003      	add	sp, #12
 8000aca:	bdf0      	pop	{r4, r5, r6, r7, pc}
 8000acc:	08001858 	.word	0x08001858

08000ad0 <TM1637_DisplayCurrent>:
 8000ad0:	b5f0      	push	{r4, r5, r6, r7, lr}
 8000ad2:	b083      	sub	sp, #12
 8000ad4:	0004      	movs	r4, r0
 8000ad6:	2863      	cmp	r0, #99	@ 0x63
 8000ad8:	d819      	bhi.n	8000b0e <TM1637_DisplayCurrent+0x3e>
 8000ada:	ad01      	add	r5, sp, #4
 8000adc:	2600      	movs	r6, #0
 8000ade:	702e      	strb	r6, [r5, #0]
 8000ae0:	210a      	movs	r1, #10
 8000ae2:	f7ff faed 	bl	80000c0 <__udivsi3>
 8000ae6:	b280      	uxth	r0, r0
 8000ae8:	4f10      	ldr	r7, [pc, #64]	@ (8000b2c <TM1637_DisplayCurrent+0x5c>)
 8000aea:	5c3a      	ldrb	r2, [r7, r0]
 8000aec:	2380      	movs	r3, #128	@ 0x80
 8000aee:	425b      	negs	r3, r3
 8000af0:	4313      	orrs	r3, r2
 8000af2:	706b      	strb	r3, [r5, #1]
 8000af4:	210a      	movs	r1, #10
 8000af6:	0020      	movs	r0, r4
 8000af8:	f7ff fb68 	bl	80001cc <__aeabi_uidivmod>
 8000afc:	b289      	uxth	r1, r1
 8000afe:	5c7b      	ldrb	r3, [r7, r1]
 8000b00:	70ab      	strb	r3, [r5, #2]
 8000b02:	70ee      	strb	r6, [r5, #3]
 8000b04:	a801      	add	r0, sp, #4
 8000b06:	f7ff ff55 	bl	80009b4 <TM1637_DisplayRaw>
 8000b0a:	b003      	add	sp, #12
 8000b0c:	bdf0      	pop	{r4, r5, r6, r7, pc}
 8000b0e:	ad01      	add	r5, sp, #4
 8000b10:	2306      	movs	r3, #6
 8000b12:	702b      	strb	r3, [r5, #0]
 8000b14:	33b9      	adds	r3, #185	@ 0xb9
 8000b16:	706b      	strb	r3, [r5, #1]
 8000b18:	210a      	movs	r1, #10
 8000b1a:	f7ff fb57 	bl	80001cc <__aeabi_uidivmod>
 8000b1e:	b289      	uxth	r1, r1
 8000b20:	4b02      	ldr	r3, [pc, #8]	@ (8000b2c <TM1637_DisplayCurrent+0x5c>)
 8000b22:	5c5b      	ldrb	r3, [r3, r1]
 8000b24:	70ab      	strb	r3, [r5, #2]
 8000b26:	2300      	movs	r3, #0
 8000b28:	70eb      	strb	r3, [r5, #3]
 8000b2a:	e7eb      	b.n	8000b04 <TM1637_DisplayCurrent+0x34>
 8000b2c:	08001858 	.word	0x08001858

08000b30 <MenuVsetToMv>:
 8000b30:	0083      	lsls	r3, r0, #2
 8000b32:	1818      	adds	r0, r3, r0
 8000b34:	0040      	lsls	r0, r0, #1
 8000b36:	4770      	bx	lr

08000b38 <Menu_ApplySelection>:
 8000b38:	b570      	push	{r4, r5, r6, lr}
 8000b3a:	4b0e      	ldr	r3, [pc, #56]	@ (8000b74 <Menu_ApplySelection+0x3c>)
 8000b3c:	781a      	ldrb	r2, [r3, #0]
 8000b3e:	4b0e      	ldr	r3, [pc, #56]	@ (8000b78 <Menu_ApplySelection+0x40>)
 8000b40:	0052      	lsls	r2, r2, #1
 8000b42:	5ad0      	ldrh	r0, [r2, r3]
 8000b44:	f7ff fff4 	bl	8000b30 <MenuVsetToMv>
 8000b48:	0004      	movs	r4, r0
 8000b4a:	4b0c      	ldr	r3, [pc, #48]	@ (8000b7c <Menu_ApplySelection+0x44>)
 8000b4c:	4a0c      	ldr	r2, [pc, #48]	@ (8000b80 <Menu_ApplySelection+0x48>)
 8000b4e:	7812      	ldrb	r2, [r2, #0]
 8000b50:	0052      	lsls	r2, r2, #1
 8000b52:	5ad3      	ldrh	r3, [r2, r3]
 8000b54:	2564      	movs	r5, #100	@ 0x64
 8000b56:	435d      	muls	r5, r3
 8000b58:	b2ad      	uxth	r5, r5
 8000b5a:	f000 fc33 	bl	80013c4 <ChargerSM_SetVset>
 8000b5e:	0028      	movs	r0, r5
 8000b60:	f000 fc4a 	bl	80013f8 <ChargerSM_SetCset>
 8000b64:	0020      	movs	r0, r4
 8000b66:	f000 fd01 	bl	800156c <Battery_SetVset>
 8000b6a:	0020      	movs	r0, r4
 8000b6c:	f000 fdc2 	bl	80016f4 <SOC_SetVset>
 8000b70:	bd70      	pop	{r4, r5, r6, pc}
 8000b72:	46c0      	nop			@ (mov r8, r8)
 8000b74:	20000001 	.word	0x20000001
 8000b78:	08001870 	.word	0x08001870
 8000b7c:	08001864 	.word	0x08001864
 8000b80:	2000003d 	.word	0x2000003d

08000b84 <Menu_Init>:
 8000b84:	4a07      	ldr	r2, [pc, #28]	@ (8000ba4 <Menu_Init+0x20>)
 8000b86:	2300      	movs	r3, #0
 8000b88:	7013      	strb	r3, [r2, #0]
 8000b8a:	4a07      	ldr	r2, [pc, #28]	@ (8000ba8 <Menu_Init+0x24>)
 8000b8c:	2104      	movs	r1, #4
 8000b8e:	7011      	strb	r1, [r2, #0]
 8000b90:	4a06      	ldr	r2, [pc, #24]	@ (8000bac <Menu_Init+0x28>)
 8000b92:	7013      	strb	r3, [r2, #0]
 8000b94:	4a06      	ldr	r2, [pc, #24]	@ (8000bb0 <Menu_Init+0x2c>)
 8000b96:	7013      	strb	r3, [r2, #0]
 8000b98:	4a06      	ldr	r2, [pc, #24]	@ (8000bb4 <Menu_Init+0x30>)
 8000b9a:	8013      	strh	r3, [r2, #0]
 8000b9c:	4b06      	ldr	r3, [pc, #24]	@ (8000bb8 <Menu_Init+0x34>)
 8000b9e:	2200      	movs	r2, #0
 8000ba0:	701a      	strb	r2, [r3, #0]
 8000ba2:	4770      	bx	lr
 8000ba4:	2000003e 	.word	0x2000003e
 8000ba8:	20000001 	.word	0x20000001
 8000bac:	2000003d 	.word	0x2000003d
 8000bb0:	2000003c 	.word	0x2000003c
 8000bb4:	2000003a 	.word	0x2000003a
 8000bb8:	20000038 	.word	0x20000038

08000bbc <Menu_Task>:
 8000bbc:	b510      	push	{r4, lr}
 8000bbe:	4b1b      	ldr	r3, [pc, #108]	@ (8000c2c <Menu_Task+0x70>)
 8000bc0:	781b      	ldrb	r3, [r3, #0]
 8000bc2:	2b00      	cmp	r3, #0
 8000bc4:	d011      	beq.n	8000bea <Menu_Task+0x2e>
 8000bc6:	4a1a      	ldr	r2, [pc, #104]	@ (8000c30 <Menu_Task+0x74>)
 8000bc8:	8813      	ldrh	r3, [r2, #0]
 8000bca:	3301      	adds	r3, #1
 8000bcc:	b29b      	uxth	r3, r3
 8000bce:	8013      	strh	r3, [r2, #0]
 8000bd0:	22c8      	movs	r2, #200	@ 0xc8
 8000bd2:	0092      	lsls	r2, r2, #2
 8000bd4:	4293      	cmp	r3, r2
 8000bd6:	d308      	bcc.n	8000bea <Menu_Task+0x2e>
 8000bd8:	d008      	beq.n	8000bec <Menu_Task+0x30>
 8000bda:	22fa      	movs	r2, #250	@ 0xfa
 8000bdc:	0092      	lsls	r2, r2, #2
 8000bde:	4293      	cmp	r3, r2
 8000be0:	d00f      	beq.n	8000c02 <Menu_Task+0x46>
 8000be2:	2296      	movs	r2, #150	@ 0x96
 8000be4:	00d2      	lsls	r2, r2, #3
 8000be6:	4293      	cmp	r3, r2
 8000be8:	d216      	bcs.n	8000c18 <Menu_Task+0x5c>
 8000bea:	bd10      	pop	{r4, pc}
 8000bec:	4b11      	ldr	r3, [pc, #68]	@ (8000c34 <Menu_Task+0x78>)
 8000bee:	2201      	movs	r2, #1
 8000bf0:	701a      	strb	r2, [r3, #0]
 8000bf2:	4b11      	ldr	r3, [pc, #68]	@ (8000c38 <Menu_Task+0x7c>)
 8000bf4:	781a      	ldrb	r2, [r3, #0]
 8000bf6:	4b11      	ldr	r3, [pc, #68]	@ (8000c3c <Menu_Task+0x80>)
 8000bf8:	0052      	lsls	r2, r2, #1
 8000bfa:	5ad0      	ldrh	r0, [r2, r3]
 8000bfc:	f7ff ff36 	bl	8000a6c <TM1637_DisplayVoltage>
 8000c00:	e7f3      	b.n	8000bea <Menu_Task+0x2e>
 8000c02:	4b0c      	ldr	r3, [pc, #48]	@ (8000c34 <Menu_Task+0x78>)
 8000c04:	2202      	movs	r2, #2
 8000c06:	701a      	strb	r2, [r3, #0]
 8000c08:	4b0d      	ldr	r3, [pc, #52]	@ (8000c40 <Menu_Task+0x84>)
 8000c0a:	781a      	ldrb	r2, [r3, #0]
 8000c0c:	4b0d      	ldr	r3, [pc, #52]	@ (8000c44 <Menu_Task+0x88>)
 8000c0e:	0052      	lsls	r2, r2, #1
 8000c10:	5ad0      	ldrh	r0, [r2, r3]
 8000c12:	f7ff ff5d 	bl	8000ad0 <TM1637_DisplayCurrent>
 8000c16:	e7e8      	b.n	8000bea <Menu_Task+0x2e>
 8000c18:	f7ff ff8e 	bl	8000b38 <Menu_ApplySelection>
 8000c1c:	4a03      	ldr	r2, [pc, #12]	@ (8000c2c <Menu_Task+0x70>)
 8000c1e:	2300      	movs	r3, #0
 8000c20:	7013      	strb	r3, [r2, #0]
 8000c22:	4a04      	ldr	r2, [pc, #16]	@ (8000c34 <Menu_Task+0x78>)
 8000c24:	7013      	strb	r3, [r2, #0]
 8000c26:	4a02      	ldr	r2, [pc, #8]	@ (8000c30 <Menu_Task+0x74>)
 8000c28:	8013      	strh	r3, [r2, #0]
 8000c2a:	e7de      	b.n	8000bea <Menu_Task+0x2e>
 8000c2c:	2000003c 	.word	0x2000003c
 8000c30:	2000003a 	.word	0x2000003a
 8000c34:	20000038 	.word	0x20000038
 8000c38:	20000001 	.word	0x20000001
 8000c3c:	08001870 	.word	0x08001870
 8000c40:	2000003d 	.word	0x2000003d
 8000c44:	08001864 	.word	0x08001864

08000c48 <Menu_UpdateDisplay>:
 8000c48:	b510      	push	{r4, lr}
 8000c4a:	4b0a      	ldr	r3, [pc, #40]	@ (8000c74 <Menu_UpdateDisplay+0x2c>)
 8000c4c:	781b      	ldrb	r3, [r3, #0]
 8000c4e:	2b00      	cmp	r3, #0
 8000c50:	d107      	bne.n	8000c62 <Menu_UpdateDisplay+0x1a>
 8000c52:	4b09      	ldr	r3, [pc, #36]	@ (8000c78 <Menu_UpdateDisplay+0x30>)
 8000c54:	781a      	ldrb	r2, [r3, #0]
 8000c56:	4b09      	ldr	r3, [pc, #36]	@ (8000c7c <Menu_UpdateDisplay+0x34>)
 8000c58:	0052      	lsls	r2, r2, #1
 8000c5a:	5ad0      	ldrh	r0, [r2, r3]
 8000c5c:	f7ff ff06 	bl	8000a6c <TM1637_DisplayVoltage>
 8000c60:	bd10      	pop	{r4, pc}
 8000c62:	4b07      	ldr	r3, [pc, #28]	@ (8000c80 <Menu_UpdateDisplay+0x38>)
 8000c64:	781a      	ldrb	r2, [r3, #0]
 8000c66:	4b07      	ldr	r3, [pc, #28]	@ (8000c84 <Menu_UpdateDisplay+0x3c>)
 8000c68:	0052      	lsls	r2, r2, #1
 8000c6a:	5ad0      	ldrh	r0, [r2, r3]
 8000c6c:	f7ff ff30 	bl	8000ad0 <TM1637_DisplayCurrent>
 8000c70:	e7f6      	b.n	8000c60 <Menu_UpdateDisplay+0x18>
 8000c72:	46c0      	nop			@ (mov r8, r8)
 8000c74:	2000003e 	.word	0x2000003e
 8000c78:	20000001 	.word	0x20000001
 8000c7c:	08001870 	.word	0x08001870
 8000c80:	2000003d 	.word	0x2000003d
 8000c84:	08001864 	.word	0x08001864

08000c88 <Menu_NextItem>:
 8000c88:	b510      	push	{r4, lr}
 8000c8a:	4b13      	ldr	r3, [pc, #76]	@ (8000cd8 <Menu_NextItem+0x50>)
 8000c8c:	781b      	ldrb	r3, [r3, #0]
 8000c8e:	2b00      	cmp	r3, #0
 8000c90:	d115      	bne.n	8000cbe <Menu_NextItem+0x36>
 8000c92:	4b12      	ldr	r3, [pc, #72]	@ (8000cdc <Menu_NextItem+0x54>)
 8000c94:	2201      	movs	r2, #1
 8000c96:	701a      	strb	r2, [r3, #0]
 8000c98:	4b11      	ldr	r3, [pc, #68]	@ (8000ce0 <Menu_NextItem+0x58>)
 8000c9a:	2200      	movs	r2, #0
 8000c9c:	801a      	strh	r2, [r3, #0]
 8000c9e:	4b11      	ldr	r3, [pc, #68]	@ (8000ce4 <Menu_NextItem+0x5c>)
 8000ca0:	781b      	ldrb	r3, [r3, #0]
 8000ca2:	2b00      	cmp	r3, #0
 8000ca4:	d10c      	bne.n	8000cc0 <Menu_NextItem+0x38>
 8000ca6:	4a10      	ldr	r2, [pc, #64]	@ (8000ce8 <Menu_NextItem+0x60>)
 8000ca8:	7813      	ldrb	r3, [r2, #0]
 8000caa:	3301      	adds	r3, #1
 8000cac:	b2db      	uxtb	r3, r3
 8000cae:	7013      	strb	r3, [r2, #0]
 8000cb0:	2b0a      	cmp	r3, #10
 8000cb2:	d902      	bls.n	8000cba <Menu_NextItem+0x32>
 8000cb4:	0013      	movs	r3, r2
 8000cb6:	2200      	movs	r2, #0
 8000cb8:	701a      	strb	r2, [r3, #0]
 8000cba:	f7ff ffc5 	bl	8000c48 <Menu_UpdateDisplay>
 8000cbe:	bd10      	pop	{r4, pc}
 8000cc0:	4a0a      	ldr	r2, [pc, #40]	@ (8000cec <Menu_NextItem+0x64>)
 8000cc2:	7813      	ldrb	r3, [r2, #0]
 8000cc4:	3301      	adds	r3, #1
 8000cc6:	b2db      	uxtb	r3, r3
 8000cc8:	7013      	strb	r3, [r2, #0]
 8000cca:	2b04      	cmp	r3, #4
 8000ccc:	d9f5      	bls.n	8000cba <Menu_NextItem+0x32>
 8000cce:	0013      	movs	r3, r2
 8000cd0:	2200      	movs	r2, #0
 8000cd2:	701a      	strb	r2, [r3, #0]
 8000cd4:	e7f1      	b.n	8000cba <Menu_NextItem+0x32>
 8000cd6:	46c0      	nop			@ (mov r8, r8)
 8000cd8:	20000038 	.word	0x20000038
 8000cdc:	2000003c 	.word	0x2000003c
 8000ce0:	2000003a 	.word	0x2000003a
 8000ce4:	2000003e 	.word	0x2000003e
 8000ce8:	20000001 	.word	0x20000001
 8000cec:	2000003d 	.word	0x2000003d

08000cf0 <Menu_ToggleMode>:
 8000cf0:	b510      	push	{r4, lr}
 8000cf2:	4b0c      	ldr	r3, [pc, #48]	@ (8000d24 <Menu_ToggleMode+0x34>)
 8000cf4:	781b      	ldrb	r3, [r3, #0]
 8000cf6:	2b00      	cmp	r3, #0
 8000cf8:	d10e      	bne.n	8000d18 <Menu_ToggleMode+0x28>
 8000cfa:	4b0b      	ldr	r3, [pc, #44]	@ (8000d28 <Menu_ToggleMode+0x38>)
 8000cfc:	2201      	movs	r2, #1
 8000cfe:	701a      	strb	r2, [r3, #0]
 8000d00:	4b0a      	ldr	r3, [pc, #40]	@ (8000d2c <Menu_ToggleMode+0x3c>)
 8000d02:	2200      	movs	r2, #0
 8000d04:	801a      	strh	r2, [r3, #0]
 8000d06:	4b0a      	ldr	r3, [pc, #40]	@ (8000d30 <Menu_ToggleMode+0x40>)
 8000d08:	781b      	ldrb	r3, [r3, #0]
 8000d0a:	2b00      	cmp	r3, #0
 8000d0c:	d105      	bne.n	8000d1a <Menu_ToggleMode+0x2a>
 8000d0e:	4b08      	ldr	r3, [pc, #32]	@ (8000d30 <Menu_ToggleMode+0x40>)
 8000d10:	3201      	adds	r2, #1
 8000d12:	701a      	strb	r2, [r3, #0]
 8000d14:	f7ff ff98 	bl	8000c48 <Menu_UpdateDisplay>
 8000d18:	bd10      	pop	{r4, pc}
 8000d1a:	4b05      	ldr	r3, [pc, #20]	@ (8000d30 <Menu_ToggleMode+0x40>)
 8000d1c:	2200      	movs	r2, #0
 8000d1e:	701a      	strb	r2, [r3, #0]
 8000d20:	e7f8      	b.n	8000d14 <Menu_ToggleMode+0x24>
 8000d22:	46c0      	nop			@ (mov r8, r8)
 8000d24:	20000038 	.word	0x20000038
 8000d28:	2000003c 	.word	0x2000003c
 8000d2c:	2000003a 	.word	0x2000003a
 8000d30:	2000003e 	.word	0x2000003e

08000d34 <Menu_IsActive>:
 8000d34:	4b01      	ldr	r3, [pc, #4]	@ (8000d3c <Menu_IsActive+0x8>)
 8000d36:	7818      	ldrb	r0, [r3, #0]
 8000d38:	4770      	bx	lr
 8000d3a:	46c0      	nop			@ (mov r8, r8)
 8000d3c:	2000003c 	.word	0x2000003c

08000d40 <Button_Read>:
 8000d40:	4b03      	ldr	r3, [pc, #12]	@ (8000d50 <Button_Read+0x10>)
 8000d42:	691b      	ldr	r3, [r3, #16]
 8000d44:	2008      	movs	r0, #8
 8000d46:	4018      	ands	r0, r3
 8000d48:	4243      	negs	r3, r0
 8000d4a:	4158      	adcs	r0, r3
 8000d4c:	b2c0      	uxtb	r0, r0
 8000d4e:	4770      	bx	lr
 8000d50:	50000400 	.word	0x50000400

08000d54 <Button_Init>:
 8000d54:	4b02      	ldr	r3, [pc, #8]	@ (8000d60 <Button_Init+0xc>)
 8000d56:	2200      	movs	r2, #0
 8000d58:	801a      	strh	r2, [r3, #0]
 8000d5a:	4b02      	ldr	r3, [pc, #8]	@ (8000d64 <Button_Init+0x10>)
 8000d5c:	701a      	strb	r2, [r3, #0]
 8000d5e:	4770      	bx	lr
 8000d60:	20000040 	.word	0x20000040
 8000d64:	2000003f 	.word	0x2000003f

08000d68 <Button_Task>:
 8000d68:	b510      	push	{r4, lr}
 8000d6a:	f7ff ffe9 	bl	8000d40 <Button_Read>
 8000d6e:	2800      	cmp	r0, #0
 8000d70:	d014      	beq.n	8000d9c <Button_Task+0x34>
 8000d72:	4b12      	ldr	r3, [pc, #72]	@ (8000dbc <Button_Task+0x54>)
 8000d74:	881b      	ldrh	r3, [r3, #0]
 8000d76:	2bc7      	cmp	r3, #199	@ 0xc7
 8000d78:	d802      	bhi.n	8000d80 <Button_Task+0x18>
 8000d7a:	4a10      	ldr	r2, [pc, #64]	@ (8000dbc <Button_Task+0x54>)
 8000d7c:	3301      	adds	r3, #1
 8000d7e:	8013      	strh	r3, [r2, #0]
 8000d80:	4b0e      	ldr	r3, [pc, #56]	@ (8000dbc <Button_Task+0x54>)
 8000d82:	881b      	ldrh	r3, [r3, #0]
 8000d84:	2bc7      	cmp	r3, #199	@ 0xc7
 8000d86:	d914      	bls.n	8000db2 <Button_Task+0x4a>
 8000d88:	4b0d      	ldr	r3, [pc, #52]	@ (8000dc0 <Button_Task+0x58>)
 8000d8a:	781b      	ldrb	r3, [r3, #0]
 8000d8c:	2b00      	cmp	r3, #0
 8000d8e:	d110      	bne.n	8000db2 <Button_Task+0x4a>
 8000d90:	4b0b      	ldr	r3, [pc, #44]	@ (8000dc0 <Button_Task+0x58>)
 8000d92:	2201      	movs	r2, #1
 8000d94:	701a      	strb	r2, [r3, #0]
 8000d96:	f7ff ffab 	bl	8000cf0 <Menu_ToggleMode>
 8000d9a:	e00a      	b.n	8000db2 <Button_Task+0x4a>
 8000d9c:	4b07      	ldr	r3, [pc, #28]	@ (8000dbc <Button_Task+0x54>)
 8000d9e:	881b      	ldrh	r3, [r3, #0]
 8000da0:	3b01      	subs	r3, #1
 8000da2:	b29b      	uxth	r3, r3
 8000da4:	2bc6      	cmp	r3, #198	@ 0xc6
 8000da6:	d905      	bls.n	8000db4 <Button_Task+0x4c>
 8000da8:	4b04      	ldr	r3, [pc, #16]	@ (8000dbc <Button_Task+0x54>)
 8000daa:	2200      	movs	r2, #0
 8000dac:	801a      	strh	r2, [r3, #0]
 8000dae:	4b04      	ldr	r3, [pc, #16]	@ (8000dc0 <Button_Task+0x58>)
 8000db0:	701a      	strb	r2, [r3, #0]
 8000db2:	bd10      	pop	{r4, pc}
 8000db4:	f7ff ff68 	bl	8000c88 <Menu_NextItem>
 8000db8:	e7f6      	b.n	8000da8 <Button_Task+0x40>
 8000dba:	46c0      	nop			@ (mov r8, r8)
 8000dbc:	20000040 	.word	0x20000040
 8000dc0:	2000003f 	.word	0x2000003f

08000dc4 <ADC_Init>:
 8000dc4:	b510      	push	{r4, lr}
 8000dc6:	0001      	movs	r1, r0
 8000dc8:	4b13      	ldr	r3, [pc, #76]	@ (8000e18 <ADC_Init+0x54>)
 8000dca:	2214      	movs	r2, #20
 8000dcc:	0018      	movs	r0, r3
 8000dce:	f000 fd15 	bl	80017fc <memcpy>
 8000dd2:	4c12      	ldr	r4, [pc, #72]	@ (8000e1c <ADC_Init+0x58>)
 8000dd4:	2214      	movs	r2, #20
 8000dd6:	2100      	movs	r1, #0
 8000dd8:	0020      	movs	r0, r4
 8000dda:	f000 fce2 	bl	80017a2 <memset>
 8000dde:	4810      	ldr	r0, [pc, #64]	@ (8000e20 <ADC_Init+0x5c>)
 8000de0:	2206      	movs	r2, #6
 8000de2:	2100      	movs	r1, #0
 8000de4:	f000 fcdd 	bl	80017a2 <memset>
 8000de8:	480e      	ldr	r0, [pc, #56]	@ (8000e24 <ADC_Init+0x60>)
 8000dea:	2206      	movs	r2, #6
 8000dec:	2100      	movs	r1, #0
 8000dee:	f000 fcd8 	bl	80017a2 <memset>
 8000df2:	480d      	ldr	r0, [pc, #52]	@ (8000e28 <ADC_Init+0x64>)
 8000df4:	2206      	movs	r2, #6
 8000df6:	2100      	movs	r1, #0
 8000df8:	f000 fcd3 	bl	80017a2 <memset>
 8000dfc:	480b      	ldr	r0, [pc, #44]	@ (8000e2c <ADC_Init+0x68>)
 8000dfe:	2206      	movs	r2, #6
 8000e00:	2100      	movs	r1, #0
 8000e02:	f000 fcce 	bl	80017a2 <memset>
 8000e06:	4b0a      	ldr	r3, [pc, #40]	@ (8000e30 <ADC_Init+0x6c>)
 8000e08:	2200      	movs	r2, #0
 8000e0a:	701a      	strb	r2, [r3, #0]
 8000e0c:	4b09      	ldr	r3, [pc, #36]	@ (8000e34 <ADC_Init+0x70>)
 8000e0e:	701a      	strb	r2, [r3, #0]
 8000e10:	4b09      	ldr	r3, [pc, #36]	@ (8000e38 <ADC_Init+0x74>)
 8000e12:	6023      	str	r3, [r4, #0]
 8000e14:	bd10      	pop	{r4, pc}
 8000e16:	46c0      	nop			@ (mov r8, r8)
 8000e18:	20000078 	.word	0x20000078
 8000e1c:	20000064 	.word	0x20000064
 8000e20:	2000005c 	.word	0x2000005c
 8000e24:	20000054 	.word	0x20000054
 8000e28:	2000004c 	.word	0x2000004c
 8000e2c:	20000044 	.word	0x20000044
 8000e30:	20000042 	.word	0x20000042
 8000e34:	20000062 	.word	0x20000062
 8000e38:	00010680 	.word	0x00010680

08000e3c <ADC_GetMeasurement>:
 8000e3c:	b530      	push	{r4, r5, lr}
 8000e3e:	4b07      	ldr	r3, [pc, #28]	@ (8000e5c <ADC_GetMeasurement+0x20>)
 8000e40:	781b      	ldrb	r3, [r3, #0]
 8000e42:	2b00      	cmp	r3, #0
 8000e44:	d102      	bne.n	8000e4c <ADC_GetMeasurement+0x10>
 8000e46:	4b06      	ldr	r3, [pc, #24]	@ (8000e60 <ADC_GetMeasurement+0x24>)
 8000e48:	4a06      	ldr	r2, [pc, #24]	@ (8000e64 <ADC_GetMeasurement+0x28>)
 8000e4a:	601a      	str	r2, [r3, #0]
 8000e4c:	4b04      	ldr	r3, [pc, #16]	@ (8000e60 <ADC_GetMeasurement+0x24>)
 8000e4e:	0002      	movs	r2, r0
 8000e50:	cb32      	ldmia	r3!, {r1, r4, r5}
 8000e52:	c232      	stmia	r2!, {r1, r4, r5}
 8000e54:	cb12      	ldmia	r3!, {r1, r4}
 8000e56:	c212      	stmia	r2!, {r1, r4}
 8000e58:	bd30      	pop	{r4, r5, pc}
 8000e5a:	46c0      	nop			@ (mov r8, r8)
 8000e5c:	20000062 	.word	0x20000062
 8000e60:	20000064 	.word	0x20000064
 8000e64:	00010680 	.word	0x00010680

08000e68 <ADC_StartConversion>:
 8000e68:	4770      	bx	lr

08000e6a <ADC_GetACVoltage>:
 8000e6a:	20e6      	movs	r0, #230	@ 0xe6
 8000e6c:	4770      	bx	lr
	...

08000e70 <CalculateSOC>:
 8000e70:	b5f8      	push	{r3, r4, r5, r6, r7, lr}
 8000e72:	0143      	lsls	r3, r0, #5
 8000e74:	1a1b      	subs	r3, r3, r0
 8000e76:	009b      	lsls	r3, r3, #2
 8000e78:	1818      	adds	r0, r3, r0
 8000e7a:	00c0      	lsls	r0, r0, #3
 8000e7c:	4b14      	ldr	r3, [pc, #80]	@ (8000ed0 <CalculateSOC+0x60>)
 8000e7e:	6819      	ldr	r1, [r3, #0]
 8000e80:	f7ff f91e 	bl	80000c0 <__udivsi3>
 8000e84:	b287      	uxth	r7, r0
 8000e86:	2300      	movs	r3, #0
 8000e88:	2b13      	cmp	r3, #19
 8000e8a:	d819      	bhi.n	8000ec0 <CalculateSOC+0x50>
 8000e8c:	4a11      	ldr	r2, [pc, #68]	@ (8000ed4 <CalculateSOC+0x64>)
 8000e8e:	009c      	lsls	r4, r3, #2
 8000e90:	1911      	adds	r1, r2, r4
 8000e92:	884d      	ldrh	r5, [r1, #2]
 8000e94:	3301      	adds	r3, #1
 8000e96:	0099      	lsls	r1, r3, #2
 8000e98:	1856      	adds	r6, r2, r1
 8000e9a:	8876      	ldrh	r6, [r6, #2]
 8000e9c:	5aa4      	ldrh	r4, [r4, r2]
 8000e9e:	5a8a      	ldrh	r2, [r1, r2]
 8000ea0:	42af      	cmp	r7, r5
 8000ea2:	d3f1      	bcc.n	8000e88 <CalculateSOC+0x18>
 8000ea4:	42b7      	cmp	r7, r6
 8000ea6:	d2ef      	bcs.n	8000e88 <CalculateSOC+0x18>
 8000ea8:	0403      	lsls	r3, r0, #16
 8000eaa:	0c1b      	lsrs	r3, r3, #16
 8000eac:	1b5b      	subs	r3, r3, r5
 8000eae:	1b10      	subs	r0, r2, r4
 8000eb0:	4358      	muls	r0, r3
 8000eb2:	1b71      	subs	r1, r6, r5
 8000eb4:	f7ff f98e 	bl	80001d4 <__divsi3>
 8000eb8:	b280      	uxth	r0, r0
 8000eba:	1900      	adds	r0, r0, r4
 8000ebc:	b2c0      	uxtb	r0, r0
 8000ebe:	e004      	b.n	8000eca <CalculateSOC+0x5a>
 8000ec0:	23fa      	movs	r3, #250	@ 0xfa
 8000ec2:	009b      	lsls	r3, r3, #2
 8000ec4:	429f      	cmp	r7, r3
 8000ec6:	d201      	bcs.n	8000ecc <CalculateSOC+0x5c>
 8000ec8:	2000      	movs	r0, #0
 8000eca:	bdf8      	pop	{r3, r4, r5, r6, r7, pc}
 8000ecc:	2064      	movs	r0, #100	@ 0x64
 8000ece:	e7fc      	b.n	8000eca <CalculateSOC+0x5a>
 8000ed0:	200000c0 	.word	0x200000c0
 8000ed4:	080018b4 	.word	0x080018b4

08000ed8 <CheckFaults>:
 8000ed8:	b570      	push	{r4, r5, r6, lr}
 8000eda:	0004      	movs	r4, r0
 8000edc:	000d      	movs	r5, r1
 8000ede:	491a      	ldr	r1, [pc, #104]	@ (8000f48 <CheckFaults+0x70>)
 8000ee0:	6949      	ldr	r1, [r1, #20]
 8000ee2:	4281      	cmp	r1, r0
 8000ee4:	d323      	bcc.n	8000f2e <CheckFaults+0x56>
 8000ee6:	4918      	ldr	r1, [pc, #96]	@ (8000f48 <CheckFaults+0x70>)
 8000ee8:	6989      	ldr	r1, [r1, #24]
 8000eea:	4281      	cmp	r1, r0
 8000eec:	d904      	bls.n	8000ef8 <CheckFaults+0x20>
 8000eee:	4917      	ldr	r1, [pc, #92]	@ (8000f4c <CheckFaults+0x74>)
 8000ef0:	2031      	movs	r0, #49	@ 0x31
 8000ef2:	5c09      	ldrb	r1, [r1, r0]
 8000ef4:	2900      	cmp	r1, #0
 8000ef6:	d11c      	bne.n	8000f32 <CheckFaults+0x5a>
 8000ef8:	4913      	ldr	r1, [pc, #76]	@ (8000f48 <CheckFaults+0x70>)
 8000efa:	8bc9      	ldrh	r1, [r1, #30]
 8000efc:	4291      	cmp	r1, r2
 8000efe:	d31a      	bcc.n	8000f36 <CheckFaults+0x5e>
 8000f00:	4299      	cmp	r1, r3
 8000f02:	d31a      	bcc.n	8000f3a <CheckFaults+0x62>
 8000f04:	4b10      	ldr	r3, [pc, #64]	@ (8000f48 <CheckFaults+0x70>)
 8000f06:	8a1b      	ldrh	r3, [r3, #16]
 8000f08:	2096      	movs	r0, #150	@ 0x96
 8000f0a:	4358      	muls	r0, r3
 8000f0c:	2164      	movs	r1, #100	@ 0x64
 8000f0e:	f7ff f961 	bl	80001d4 <__divsi3>
 8000f12:	4285      	cmp	r5, r0
 8000f14:	dd13      	ble.n	8000f3e <CheckFaults+0x66>
 8000f16:	4b0c      	ldr	r3, [pc, #48]	@ (8000f48 <CheckFaults+0x70>)
 8000f18:	681b      	ldr	r3, [r3, #0]
 8000f1a:	0118      	lsls	r0, r3, #4
 8000f1c:	1ac0      	subs	r0, r0, r3
 8000f1e:	0040      	lsls	r0, r0, #1
 8000f20:	2164      	movs	r1, #100	@ 0x64
 8000f22:	f7ff f8cd 	bl	80000c0 <__udivsi3>
 8000f26:	42a0      	cmp	r0, r4
 8000f28:	d80b      	bhi.n	8000f42 <CheckFaults+0x6a>
 8000f2a:	2000      	movs	r0, #0
 8000f2c:	e000      	b.n	8000f30 <CheckFaults+0x58>
 8000f2e:	2004      	movs	r0, #4
 8000f30:	bd70      	pop	{r4, r5, r6, pc}
 8000f32:	2005      	movs	r0, #5
 8000f34:	e7fc      	b.n	8000f30 <CheckFaults+0x58>
 8000f36:	2003      	movs	r0, #3
 8000f38:	e7fa      	b.n	8000f30 <CheckFaults+0x58>
 8000f3a:	2003      	movs	r0, #3
 8000f3c:	e7f8      	b.n	8000f30 <CheckFaults+0x58>
 8000f3e:	2000      	movs	r0, #0
 8000f40:	e7f6      	b.n	8000f30 <CheckFaults+0x58>
 8000f42:	2001      	movs	r0, #1
 8000f44:	e7f4      	b.n	8000f30 <CheckFaults+0x58>
 8000f46:	46c0      	nop			@ (mov r8, r8)
 8000f48:	200000c0 	.word	0x200000c0
 8000f4c:	2000008c 	.word	0x2000008c

08000f50 <State_PowerOn>:
 8000f50:	4b08      	ldr	r3, [pc, #32]	@ (8000f74 <State_PowerOn+0x24>)
 8000f52:	695b      	ldr	r3, [r3, #20]
 8000f54:	2b00      	cmp	r3, #0
 8000f56:	d106      	bne.n	8000f66 <State_PowerOn+0x16>
 8000f58:	4a06      	ldr	r2, [pc, #24]	@ (8000f74 <State_PowerOn+0x24>)
 8000f5a:	2100      	movs	r1, #0
 8000f5c:	73d1      	strb	r1, [r2, #15]
 8000f5e:	2001      	movs	r0, #1
 8000f60:	7410      	strb	r0, [r2, #16]
 8000f62:	3031      	adds	r0, #49	@ 0x31
 8000f64:	5411      	strb	r1, [r2, r0]
 8000f66:	2b63      	cmp	r3, #99	@ 0x63
 8000f68:	d903      	bls.n	8000f72 <State_PowerOn+0x22>
 8000f6a:	4b02      	ldr	r3, [pc, #8]	@ (8000f74 <State_PowerOn+0x24>)
 8000f6c:	2201      	movs	r2, #1
 8000f6e:	73da      	strb	r2, [r3, #15]
 8000f70:	705a      	strb	r2, [r3, #1]
 8000f72:	4770      	bx	lr
 8000f74:	2000008c 	.word	0x2000008c

08000f78 <State_VsetWake>:
 8000f78:	b510      	push	{r4, lr}
 8000f7a:	4b1f      	ldr	r3, [pc, #124]	@ (8000ff8 <State_VsetWake+0x80>)
 8000f7c:	695b      	ldr	r3, [r3, #20]
 8000f7e:	2b00      	cmp	r3, #0
 8000f80:	d106      	bne.n	8000f90 <State_VsetWake+0x18>
 8000f82:	4a1d      	ldr	r2, [pc, #116]	@ (8000ff8 <State_VsetWake+0x80>)
 8000f84:	2101      	movs	r1, #1
 8000f86:	73d1      	strb	r1, [r2, #15]
 8000f88:	2100      	movs	r1, #0
 8000f8a:	7411      	strb	r1, [r2, #16]
 8000f8c:	2031      	movs	r0, #49	@ 0x31
 8000f8e:	5411      	strb	r1, [r2, r0]
 8000f90:	2296      	movs	r2, #150	@ 0x96
 8000f92:	0092      	lsls	r2, r2, #2
 8000f94:	4293      	cmp	r3, r2
 8000f96:	d30f      	bcc.n	8000fb8 <State_VsetWake+0x40>
 8000f98:	4b17      	ldr	r3, [pc, #92]	@ (8000ff8 <State_VsetWake+0x80>)
 8000f9a:	685b      	ldr	r3, [r3, #4]
 8000f9c:	2064      	movs	r0, #100	@ 0x64
 8000f9e:	4358      	muls	r0, r3
 8000fa0:	4b16      	ldr	r3, [pc, #88]	@ (8000ffc <State_VsetWake+0x84>)
 8000fa2:	6819      	ldr	r1, [r3, #0]
 8000fa4:	f7ff f88c 	bl	80000c0 <__udivsi3>
 8000fa8:	2840      	cmp	r0, #64	@ 0x40
 8000faa:	d906      	bls.n	8000fba <State_VsetWake+0x42>
 8000fac:	4b12      	ldr	r3, [pc, #72]	@ (8000ff8 <State_VsetWake+0x80>)
 8000fae:	2231      	movs	r2, #49	@ 0x31
 8000fb0:	2101      	movs	r1, #1
 8000fb2:	5499      	strb	r1, [r3, r2]
 8000fb4:	3a2c      	subs	r2, #44	@ 0x2c
 8000fb6:	705a      	strb	r2, [r3, #1]
 8000fb8:	bd10      	pop	{r4, pc}
 8000fba:	2827      	cmp	r0, #39	@ 0x27
 8000fbc:	d909      	bls.n	8000fd2 <State_VsetWake+0x5a>
 8000fbe:	4b0e      	ldr	r3, [pc, #56]	@ (8000ff8 <State_VsetWake+0x80>)
 8000fc0:	2231      	movs	r2, #49	@ 0x31
 8000fc2:	2101      	movs	r1, #1
 8000fc4:	5499      	strb	r1, [r3, r2]
 8000fc6:	3a01      	subs	r2, #1
 8000fc8:	3105      	adds	r1, #5
 8000fca:	5499      	strb	r1, [r3, r2]
 8000fcc:	3a2c      	subs	r2, #44	@ 0x2c
 8000fce:	705a      	strb	r2, [r3, #1]
 8000fd0:	e7f2      	b.n	8000fb8 <State_VsetWake+0x40>
 8000fd2:	2813      	cmp	r0, #19
 8000fd4:	d909      	bls.n	8000fea <State_VsetWake+0x72>
 8000fd6:	4b08      	ldr	r3, [pc, #32]	@ (8000ff8 <State_VsetWake+0x80>)
 8000fd8:	2231      	movs	r2, #49	@ 0x31
 8000fda:	2101      	movs	r1, #1
 8000fdc:	5499      	strb	r1, [r3, r2]
 8000fde:	3a01      	subs	r2, #1
 8000fe0:	3106      	adds	r1, #6
 8000fe2:	5499      	strb	r1, [r3, r2]
 8000fe4:	3a2d      	subs	r2, #45	@ 0x2d
 8000fe6:	705a      	strb	r2, [r3, #1]
 8000fe8:	e7e6      	b.n	8000fb8 <State_VsetWake+0x40>
 8000fea:	4b03      	ldr	r3, [pc, #12]	@ (8000ff8 <State_VsetWake+0x80>)
 8000fec:	2230      	movs	r2, #48	@ 0x30
 8000fee:	2108      	movs	r1, #8
 8000ff0:	5499      	strb	r1, [r3, r2]
 8000ff2:	3a27      	subs	r2, #39	@ 0x27
 8000ff4:	705a      	strb	r2, [r3, #1]
 8000ff6:	e7df      	b.n	8000fb8 <State_VsetWake+0x40>
 8000ff8:	2000008c 	.word	0x2000008c
 8000ffc:	200000c0 	.word	0x200000c0

08001000 <State_Precharge>:
 8001000:	4b0b      	ldr	r3, [pc, #44]	@ (8001030 <State_Precharge+0x30>)
 8001002:	695b      	ldr	r3, [r3, #20]
 8001004:	2b00      	cmp	r3, #0
 8001006:	d105      	bne.n	8001014 <State_Precharge+0x14>
 8001008:	4b09      	ldr	r3, [pc, #36]	@ (8001030 <State_Precharge+0x30>)
 800100a:	2200      	movs	r2, #0
 800100c:	851a      	strh	r2, [r3, #40]	@ 0x28
 800100e:	32f5      	adds	r2, #245	@ 0xf5
 8001010:	32ff      	adds	r2, #255	@ 0xff
 8001012:	855a      	strh	r2, [r3, #42]	@ 0x2a
 8001014:	4b06      	ldr	r3, [pc, #24]	@ (8001030 <State_Precharge+0x30>)
 8001016:	2201      	movs	r2, #1
 8001018:	741a      	strb	r2, [r3, #16]
 800101a:	73da      	strb	r2, [r3, #15]
 800101c:	685a      	ldr	r2, [r3, #4]
 800101e:	4b05      	ldr	r3, [pc, #20]	@ (8001034 <State_Precharge+0x34>)
 8001020:	689b      	ldr	r3, [r3, #8]
 8001022:	429a      	cmp	r2, r3
 8001024:	d302      	bcc.n	800102c <State_Precharge+0x2c>
 8001026:	4b02      	ldr	r3, [pc, #8]	@ (8001030 <State_Precharge+0x30>)
 8001028:	2204      	movs	r2, #4
 800102a:	705a      	strb	r2, [r3, #1]
 800102c:	4770      	bx	lr
 800102e:	46c0      	nop			@ (mov r8, r8)
 8001030:	2000008c 	.word	0x2000008c
 8001034:	200000c0 	.word	0x200000c0

08001038 <State_DeepDischarge>:
 8001038:	4b0b      	ldr	r3, [pc, #44]	@ (8001068 <State_DeepDischarge+0x30>)
 800103a:	695b      	ldr	r3, [r3, #20]
 800103c:	2b00      	cmp	r3, #0
 800103e:	d105      	bne.n	800104c <State_DeepDischarge+0x14>
 8001040:	4b09      	ldr	r3, [pc, #36]	@ (8001068 <State_DeepDischarge+0x30>)
 8001042:	2200      	movs	r2, #0
 8001044:	851a      	strh	r2, [r3, #40]	@ 0x28
 8001046:	22fa      	movs	r2, #250	@ 0xfa
 8001048:	0092      	lsls	r2, r2, #2
 800104a:	855a      	strh	r2, [r3, #42]	@ 0x2a
 800104c:	4b06      	ldr	r3, [pc, #24]	@ (8001068 <State_DeepDischarge+0x30>)
 800104e:	2201      	movs	r2, #1
 8001050:	741a      	strb	r2, [r3, #16]
 8001052:	73da      	strb	r2, [r3, #15]
 8001054:	685a      	ldr	r2, [r3, #4]
 8001056:	4b05      	ldr	r3, [pc, #20]	@ (800106c <State_DeepDischarge+0x34>)
 8001058:	68db      	ldr	r3, [r3, #12]
 800105a:	429a      	cmp	r2, r3
 800105c:	d302      	bcc.n	8001064 <State_DeepDischarge+0x2c>
 800105e:	4b02      	ldr	r3, [pc, #8]	@ (8001068 <State_DeepDischarge+0x30>)
 8001060:	2205      	movs	r2, #5
 8001062:	705a      	strb	r2, [r3, #1]
 8001064:	4770      	bx	lr
 8001066:	46c0      	nop			@ (mov r8, r8)
 8001068:	2000008c 	.word	0x2000008c
 800106c:	200000c0 	.word	0x200000c0

08001070 <State_Softstart>:
 8001070:	4b11      	ldr	r3, [pc, #68]	@ (80010b8 <State_Softstart+0x48>)
 8001072:	695b      	ldr	r3, [r3, #20]
 8001074:	2b00      	cmp	r3, #0
 8001076:	d107      	bne.n	8001088 <State_Softstart+0x18>
 8001078:	4b0f      	ldr	r3, [pc, #60]	@ (80010b8 <State_Softstart+0x48>)
 800107a:	2200      	movs	r2, #0
 800107c:	851a      	strh	r2, [r3, #40]	@ 0x28
 800107e:	490f      	ldr	r1, [pc, #60]	@ (80010bc <State_Softstart+0x4c>)
 8001080:	8a09      	ldrh	r1, [r1, #16]
 8001082:	8559      	strh	r1, [r3, #42]	@ 0x2a
 8001084:	625a      	str	r2, [r3, #36]	@ 0x24
 8001086:	621a      	str	r2, [r3, #32]
 8001088:	4b0b      	ldr	r3, [pc, #44]	@ (80010b8 <State_Softstart+0x48>)
 800108a:	2201      	movs	r2, #1
 800108c:	741a      	strb	r2, [r3, #16]
 800108e:	73da      	strb	r2, [r3, #15]
 8001090:	8d1a      	ldrh	r2, [r3, #40]	@ 0x28
 8001092:	8d5b      	ldrh	r3, [r3, #42]	@ 0x2a
 8001094:	429a      	cmp	r2, r3
 8001096:	d206      	bcs.n	80010a6 <State_Softstart+0x36>
 8001098:	3203      	adds	r2, #3
 800109a:	b292      	uxth	r2, r2
 800109c:	4906      	ldr	r1, [pc, #24]	@ (80010b8 <State_Softstart+0x48>)
 800109e:	850a      	strh	r2, [r1, #40]	@ 0x28
 80010a0:	4293      	cmp	r3, r2
 80010a2:	d200      	bcs.n	80010a6 <State_Softstart+0x36>
 80010a4:	850b      	strh	r3, [r1, #40]	@ 0x28
 80010a6:	4a04      	ldr	r2, [pc, #16]	@ (80010b8 <State_Softstart+0x48>)
 80010a8:	8d12      	ldrh	r2, [r2, #40]	@ 0x28
 80010aa:	4293      	cmp	r3, r2
 80010ac:	d802      	bhi.n	80010b4 <State_Softstart+0x44>
 80010ae:	4b02      	ldr	r3, [pc, #8]	@ (80010b8 <State_Softstart+0x48>)
 80010b0:	2206      	movs	r2, #6
 80010b2:	705a      	strb	r2, [r3, #1]
 80010b4:	4770      	bx	lr
 80010b6:	46c0      	nop			@ (mov r8, r8)
 80010b8:	2000008c 	.word	0x2000008c
 80010bc:	200000c0 	.word	0x200000c0

080010c0 <State_CC>:
 80010c0:	4b08      	ldr	r3, [pc, #32]	@ (80010e4 <State_CC+0x24>)
 80010c2:	2201      	movs	r2, #1
 80010c4:	741a      	strb	r2, [r3, #16]
 80010c6:	73da      	strb	r2, [r3, #15]
 80010c8:	4a07      	ldr	r2, [pc, #28]	@ (80010e8 <State_CC+0x28>)
 80010ca:	8a11      	ldrh	r1, [r2, #16]
 80010cc:	8519      	strh	r1, [r3, #40]	@ 0x28
 80010ce:	6859      	ldr	r1, [r3, #4]
 80010d0:	6813      	ldr	r3, [r2, #0]
 80010d2:	4299      	cmp	r1, r3
 80010d4:	d304      	bcc.n	80010e0 <State_CC+0x20>
 80010d6:	4b03      	ldr	r3, [pc, #12]	@ (80010e4 <State_CC+0x24>)
 80010d8:	2200      	movs	r2, #0
 80010da:	61da      	str	r2, [r3, #28]
 80010dc:	3207      	adds	r2, #7
 80010de:	705a      	strb	r2, [r3, #1]
 80010e0:	4770      	bx	lr
 80010e2:	46c0      	nop			@ (mov r8, r8)
 80010e4:	2000008c 	.word	0x2000008c
 80010e8:	200000c0 	.word	0x200000c0

080010ec <State_CV>:
 80010ec:	b510      	push	{r4, lr}
 80010ee:	4b18      	ldr	r3, [pc, #96]	@ (8001150 <State_CV+0x64>)
 80010f0:	2201      	movs	r2, #1
 80010f2:	741a      	strb	r2, [r3, #16]
 80010f4:	73da      	strb	r2, [r3, #15]
 80010f6:	3230      	adds	r2, #48	@ 0x30
 80010f8:	5c9b      	ldrb	r3, [r3, r2]
 80010fa:	2b00      	cmp	r3, #0
 80010fc:	d027      	beq.n	800114e <State_CV+0x62>
 80010fe:	4b14      	ldr	r3, [pc, #80]	@ (8001150 <State_CV+0x64>)
 8001100:	685c      	ldr	r4, [r3, #4]
 8001102:	4b14      	ldr	r3, [pc, #80]	@ (8001154 <State_CV+0x68>)
 8001104:	681b      	ldr	r3, [r3, #0]
 8001106:	429c      	cmp	r4, r3
 8001108:	d30b      	bcc.n	8001122 <State_CV+0x36>
 800110a:	4a11      	ldr	r2, [pc, #68]	@ (8001150 <State_CV+0x64>)
 800110c:	8911      	ldrh	r1, [r2, #8]
 800110e:	4a11      	ldr	r2, [pc, #68]	@ (8001154 <State_CV+0x68>)
 8001110:	8a52      	ldrh	r2, [r2, #18]
 8001112:	4291      	cmp	r1, r2
 8001114:	d805      	bhi.n	8001122 <State_CV+0x36>
 8001116:	4a0e      	ldr	r2, [pc, #56]	@ (8001150 <State_CV+0x64>)
 8001118:	2130      	movs	r1, #48	@ 0x30
 800111a:	200a      	movs	r0, #10
 800111c:	5450      	strb	r0, [r2, r1]
 800111e:	3928      	subs	r1, #40	@ 0x28
 8001120:	7051      	strb	r1, [r2, #1]
 8001122:	0058      	lsls	r0, r3, #1
 8001124:	18c0      	adds	r0, r0, r3
 8001126:	0143      	lsls	r3, r0, #5
 8001128:	18c0      	adds	r0, r0, r3
 800112a:	2164      	movs	r1, #100	@ 0x64
 800112c:	f7fe ffc8 	bl	80000c0 <__udivsi3>
 8001130:	4284      	cmp	r4, r0
 8001132:	d30c      	bcc.n	800114e <State_CV+0x62>
 8001134:	4a06      	ldr	r2, [pc, #24]	@ (8001150 <State_CV+0x64>)
 8001136:	69d3      	ldr	r3, [r2, #28]
 8001138:	3301      	adds	r3, #1
 800113a:	61d3      	str	r3, [r2, #28]
 800113c:	4a06      	ldr	r2, [pc, #24]	@ (8001158 <State_CV+0x6c>)
 800113e:	4293      	cmp	r3, r2
 8001140:	d905      	bls.n	800114e <State_CV+0x62>
 8001142:	4b03      	ldr	r3, [pc, #12]	@ (8001150 <State_CV+0x64>)
 8001144:	2230      	movs	r2, #48	@ 0x30
 8001146:	2109      	movs	r1, #9
 8001148:	5499      	strb	r1, [r3, r2]
 800114a:	3a26      	subs	r2, #38	@ 0x26
 800114c:	705a      	strb	r2, [r3, #1]
 800114e:	bd10      	pop	{r4, pc}
 8001150:	2000008c 	.word	0x2000008c
 8001154:	200000c0 	.word	0x200000c0
 8001158:	00008c9f 	.word	0x00008c9f

0800115c <State_ChargeComplete>:
 800115c:	4b05      	ldr	r3, [pc, #20]	@ (8001174 <State_ChargeComplete+0x18>)
 800115e:	695b      	ldr	r3, [r3, #20]
 8001160:	2b00      	cmp	r3, #0
 8001162:	d106      	bne.n	8001172 <State_ChargeComplete+0x16>
 8001164:	4b03      	ldr	r3, [pc, #12]	@ (8001174 <State_ChargeComplete+0x18>)
 8001166:	2200      	movs	r2, #0
 8001168:	73da      	strb	r2, [r3, #15]
 800116a:	741a      	strb	r2, [r3, #16]
 800116c:	3232      	adds	r2, #50	@ 0x32
 800116e:	2101      	movs	r1, #1
 8001170:	5499      	strb	r1, [r3, r2]
 8001172:	4770      	bx	lr
 8001174:	2000008c 	.word	0x2000008c

08001178 <State_Standby>:
 8001178:	4b05      	ldr	r3, [pc, #20]	@ (8001190 <State_Standby+0x18>)
 800117a:	695b      	ldr	r3, [r3, #20]
 800117c:	2b00      	cmp	r3, #0
 800117e:	d105      	bne.n	800118c <State_Standby+0x14>
 8001180:	4b03      	ldr	r3, [pc, #12]	@ (8001190 <State_Standby+0x18>)
 8001182:	2200      	movs	r2, #0
 8001184:	73da      	strb	r2, [r3, #15]
 8001186:	741a      	strb	r2, [r3, #16]
 8001188:	2131      	movs	r1, #49	@ 0x31
 800118a:	545a      	strb	r2, [r3, r1]
 800118c:	4770      	bx	lr
 800118e:	46c0      	nop			@ (mov r8, r8)
 8001190:	2000008c 	.word	0x2000008c

08001194 <State_Fault>:
 8001194:	4b05      	ldr	r3, [pc, #20]	@ (80011ac <State_Fault+0x18>)
 8001196:	695b      	ldr	r3, [r3, #20]
 8001198:	2b00      	cmp	r3, #0
 800119a:	d105      	bne.n	80011a8 <State_Fault+0x14>
 800119c:	4b03      	ldr	r3, [pc, #12]	@ (80011ac <State_Fault+0x18>)
 800119e:	2200      	movs	r2, #0
 80011a0:	73da      	strb	r2, [r3, #15]
 80011a2:	741a      	strb	r2, [r3, #16]
 80011a4:	2131      	movs	r1, #49	@ 0x31
 80011a6:	545a      	strb	r2, [r3, r1]
 80011a8:	4770      	bx	lr
 80011aa:	46c0      	nop			@ (mov r8, r8)
 80011ac:	2000008c 	.word	0x2000008c

080011b0 <ApplyThermalDerating>:
 80011b0:	b510      	push	{r4, lr}
 80011b2:	1c0b      	adds	r3, r1, #0
 80011b4:	4281      	cmp	r1, r0
 80011b6:	d200      	bcs.n	80011ba <ApplyThermalDerating+0xa>
 80011b8:	1c03      	adds	r3, r0, #0
 80011ba:	b29b      	uxth	r3, r3
 80011bc:	22e1      	movs	r2, #225	@ 0xe1
 80011be:	0092      	lsls	r2, r2, #2
 80011c0:	4293      	cmp	r3, r2
 80011c2:	d212      	bcs.n	80011ea <ApplyThermalDerating+0x3a>
 80011c4:	22c8      	movs	r2, #200	@ 0xc8
 80011c6:	0092      	lsls	r2, r2, #2
 80011c8:	4293      	cmp	r3, r2
 80011ca:	d315      	bcc.n	80011f8 <ApplyThermalDerating+0x48>
 80011cc:	4a0d      	ldr	r2, [pc, #52]	@ (8001204 <ApplyThermalDerating+0x54>)
 80011ce:	4694      	mov	ip, r2
 80011d0:	4463      	add	r3, ip
 80011d2:	b2db      	uxtb	r3, r3
 80011d4:	4a0c      	ldr	r2, [pc, #48]	@ (8001208 <ApplyThermalDerating+0x58>)
 80011d6:	8a12      	ldrh	r2, [r2, #16]
 80011d8:	2064      	movs	r0, #100	@ 0x64
 80011da:	1ac0      	subs	r0, r0, r3
 80011dc:	4350      	muls	r0, r2
 80011de:	2164      	movs	r1, #100	@ 0x64
 80011e0:	f7fe fff8 	bl	80001d4 <__divsi3>
 80011e4:	4b09      	ldr	r3, [pc, #36]	@ (800120c <ApplyThermalDerating+0x5c>)
 80011e6:	8558      	strh	r0, [r3, #42]	@ 0x2a
 80011e8:	e005      	b.n	80011f6 <ApplyThermalDerating+0x46>
 80011ea:	4b08      	ldr	r3, [pc, #32]	@ (800120c <ApplyThermalDerating+0x5c>)
 80011ec:	2230      	movs	r2, #48	@ 0x30
 80011ee:	2103      	movs	r1, #3
 80011f0:	5499      	strb	r1, [r3, r2]
 80011f2:	3a26      	subs	r2, #38	@ 0x26
 80011f4:	705a      	strb	r2, [r3, #1]
 80011f6:	bd10      	pop	{r4, pc}
 80011f8:	4b03      	ldr	r3, [pc, #12]	@ (8001208 <ApplyThermalDerating+0x58>)
 80011fa:	8a1a      	ldrh	r2, [r3, #16]
 80011fc:	4b03      	ldr	r3, [pc, #12]	@ (800120c <ApplyThermalDerating+0x5c>)
 80011fe:	855a      	strh	r2, [r3, #42]	@ 0x2a
 8001200:	e7f9      	b.n	80011f6 <ApplyThermalDerating+0x46>
 8001202:	46c0      	nop			@ (mov r8, r8)
 8001204:	fffffce0 	.word	0xfffffce0
 8001208:	200000c0 	.word	0x200000c0
 800120c:	2000008c 	.word	0x2000008c

08001210 <CheckACInputProtection>:
 8001210:	b510      	push	{r4, lr}
 8001212:	f7ff fe2a 	bl	8000e6a <ADC_GetACVoltage>
 8001216:	238c      	movs	r3, #140	@ 0x8c
 8001218:	005b      	lsls	r3, r3, #1
 800121a:	4298      	cmp	r0, r3
 800121c:	d216      	bcs.n	800124c <CheckACInputProtection+0x3c>
 800121e:	2387      	movs	r3, #135	@ 0x87
 8001220:	005b      	lsls	r3, r3, #1
 8001222:	4298      	cmp	r0, r3
 8001224:	d806      	bhi.n	8001234 <CheckACInputProtection+0x24>
 8001226:	4b10      	ldr	r3, [pc, #64]	@ (8001268 <CheckACInputProtection+0x58>)
 8001228:	2230      	movs	r2, #48	@ 0x30
 800122a:	5c9b      	ldrb	r3, [r3, r2]
 800122c:	2b04      	cmp	r3, #4
 800122e:	d012      	beq.n	8001256 <CheckACInputProtection+0x46>
 8001230:	2895      	cmp	r0, #149	@ 0x95
 8001232:	d914      	bls.n	800125e <CheckACInputProtection+0x4e>
 8001234:	289f      	cmp	r0, #159	@ 0x9f
 8001236:	d90d      	bls.n	8001254 <CheckACInputProtection+0x44>
 8001238:	4b0b      	ldr	r3, [pc, #44]	@ (8001268 <CheckACInputProtection+0x58>)
 800123a:	2231      	movs	r2, #49	@ 0x31
 800123c:	5c9b      	ldrb	r3, [r3, r2]
 800123e:	2b00      	cmp	r3, #0
 8001240:	d108      	bne.n	8001254 <CheckACInputProtection+0x44>
 8001242:	4b09      	ldr	r3, [pc, #36]	@ (8001268 <CheckACInputProtection+0x58>)
 8001244:	3a01      	subs	r2, #1
 8001246:	2100      	movs	r1, #0
 8001248:	5499      	strb	r1, [r3, r2]
 800124a:	e003      	b.n	8001254 <CheckACInputProtection+0x44>
 800124c:	4b06      	ldr	r3, [pc, #24]	@ (8001268 <CheckACInputProtection+0x58>)
 800124e:	2230      	movs	r2, #48	@ 0x30
 8001250:	2104      	movs	r1, #4
 8001252:	5499      	strb	r1, [r3, r2]
 8001254:	bd10      	pop	{r4, pc}
 8001256:	4b04      	ldr	r3, [pc, #16]	@ (8001268 <CheckACInputProtection+0x58>)
 8001258:	2100      	movs	r1, #0
 800125a:	5499      	strb	r1, [r3, r2]
 800125c:	e7e8      	b.n	8001230 <CheckACInputProtection+0x20>
 800125e:	4b02      	ldr	r3, [pc, #8]	@ (8001268 <CheckACInputProtection+0x58>)
 8001260:	2230      	movs	r2, #48	@ 0x30
 8001262:	2105      	movs	r1, #5
 8001264:	5499      	strb	r1, [r3, r2]
 8001266:	e7f5      	b.n	8001254 <CheckACInputProtection+0x44>
 8001268:	2000008c 	.word	0x2000008c

0800126c <ChargerSM_Init>:
 800126c:	b5f8      	push	{r3, r4, r5, r6, r7, lr}
 800126e:	0001      	movs	r1, r0
 8001270:	4c16      	ldr	r4, [pc, #88]	@ (80012cc <ChargerSM_Init+0x60>)
 8001272:	2224      	movs	r2, #36	@ 0x24
 8001274:	0020      	movs	r0, r4
 8001276:	f000 fac1 	bl	80017fc <memcpy>
 800127a:	4d15      	ldr	r5, [pc, #84]	@ (80012d0 <ChargerSM_Init+0x64>)
 800127c:	2234      	movs	r2, #52	@ 0x34
 800127e:	2100      	movs	r1, #0
 8001280:	0028      	movs	r0, r5
 8001282:	f000 fa8e 	bl	80017a2 <memset>
 8001286:	6826      	ldr	r6, [r4, #0]
 8001288:	01b0      	lsls	r0, r6, #6
 800128a:	1980      	adds	r0, r0, r6
 800128c:	2164      	movs	r1, #100	@ 0x64
 800128e:	f7fe ff17 	bl	80000c0 <__udivsi3>
 8001292:	0007      	movs	r7, r0
 8001294:	f7ff fdec 	bl	8000e70 <CalculateSOC>
 8001298:	232c      	movs	r3, #44	@ 0x2c
 800129a:	54e8      	strb	r0, [r5, r3]
 800129c:	8a23      	ldrh	r3, [r4, #16]
 800129e:	0098      	lsls	r0, r3, #2
 80012a0:	18c0      	adds	r0, r0, r3
 80012a2:	00c0      	lsls	r0, r0, #3
 80012a4:	2164      	movs	r1, #100	@ 0x64
 80012a6:	f7fe ff95 	bl	80001d4 <__divsi3>
 80012aa:	8260      	strh	r0, [r4, #18]
 80012ac:	00b5      	lsls	r5, r6, #2
 80012ae:	19a8      	adds	r0, r5, r6
 80012b0:	0080      	lsls	r0, r0, #2
 80012b2:	2164      	movs	r1, #100	@ 0x64
 80012b4:	f7fe ff04 	bl	80000c0 <__udivsi3>
 80012b8:	6060      	str	r0, [r4, #4]
 80012ba:	19ad      	adds	r5, r5, r6
 80012bc:	00e8      	lsls	r0, r5, #3
 80012be:	2164      	movs	r1, #100	@ 0x64
 80012c0:	f7fe fefe 	bl	80000c0 <__udivsi3>
 80012c4:	60a0      	str	r0, [r4, #8]
 80012c6:	60e7      	str	r7, [r4, #12]
 80012c8:	bdf8      	pop	{r3, r4, r5, r6, r7, pc}
 80012ca:	46c0      	nop			@ (mov r8, r8)
 80012cc:	200000c0 	.word	0x200000c0
 80012d0:	2000008c 	.word	0x2000008c

080012d4 <ChargerSM_Task>:
 80012d4:	b5f8      	push	{r3, r4, r5, r6, r7, lr}
 80012d6:	0006      	movs	r6, r0
 80012d8:	000f      	movs	r7, r1
 80012da:	0014      	movs	r4, r2
 80012dc:	001d      	movs	r5, r3
 80012de:	4b36      	ldr	r3, [pc, #216]	@ (80013b8 <ChargerSM_Task+0xe4>)
 80012e0:	6058      	str	r0, [r3, #4]
 80012e2:	8119      	strh	r1, [r3, #8]
 80012e4:	815a      	strh	r2, [r3, #10]
 80012e6:	819d      	strh	r5, [r3, #12]
 80012e8:	f7ff ff92 	bl	8001210 <CheckACInputProtection>
 80012ec:	0029      	movs	r1, r5
 80012ee:	0020      	movs	r0, r4
 80012f0:	f7ff ff5e 	bl	80011b0 <ApplyThermalDerating>
 80012f4:	002b      	movs	r3, r5
 80012f6:	0022      	movs	r2, r4
 80012f8:	0039      	movs	r1, r7
 80012fa:	0030      	movs	r0, r6
 80012fc:	f7ff fdec 	bl	8000ed8 <CheckFaults>
 8001300:	2800      	cmp	r0, #0
 8001302:	d004      	beq.n	800130e <ChargerSM_Task+0x3a>
 8001304:	4b2c      	ldr	r3, [pc, #176]	@ (80013b8 <ChargerSM_Task+0xe4>)
 8001306:	2230      	movs	r2, #48	@ 0x30
 8001308:	5498      	strb	r0, [r3, r2]
 800130a:	3a26      	subs	r2, #38	@ 0x26
 800130c:	705a      	strb	r2, [r3, #1]
 800130e:	4b2a      	ldr	r3, [pc, #168]	@ (80013b8 <ChargerSM_Task+0xe4>)
 8001310:	2231      	movs	r2, #49	@ 0x31
 8001312:	5c9b      	ldrb	r3, [r3, r2]
 8001314:	2b00      	cmp	r3, #0
 8001316:	d00a      	beq.n	800132e <ChargerSM_Task+0x5a>
 8001318:	4b27      	ldr	r3, [pc, #156]	@ (80013b8 <ChargerSM_Task+0xe4>)
 800131a:	6a1a      	ldr	r2, [r3, #32]
 800131c:	4b27      	ldr	r3, [pc, #156]	@ (80013bc <ChargerSM_Task+0xe8>)
 800131e:	429a      	cmp	r2, r3
 8001320:	d905      	bls.n	800132e <ChargerSM_Task+0x5a>
 8001322:	4b25      	ldr	r3, [pc, #148]	@ (80013b8 <ChargerSM_Task+0xe4>)
 8001324:	2230      	movs	r2, #48	@ 0x30
 8001326:	2109      	movs	r1, #9
 8001328:	5499      	strb	r1, [r3, r2]
 800132a:	3a26      	subs	r2, #38	@ 0x26
 800132c:	705a      	strb	r2, [r3, #1]
 800132e:	4b22      	ldr	r3, [pc, #136]	@ (80013b8 <ChargerSM_Task+0xe4>)
 8001330:	781b      	ldrb	r3, [r3, #0]
 8001332:	2b0a      	cmp	r3, #10
 8001334:	d805      	bhi.n	8001342 <ChargerSM_Task+0x6e>
 8001336:	009b      	lsls	r3, r3, #2
 8001338:	4a21      	ldr	r2, [pc, #132]	@ (80013c0 <ChargerSM_Task+0xec>)
 800133a:	58d3      	ldr	r3, [r2, r3]
 800133c:	469f      	mov	pc, r3
 800133e:	f7ff fe07 	bl	8000f50 <State_PowerOn>
 8001342:	4b1d      	ldr	r3, [pc, #116]	@ (80013b8 <ChargerSM_Task+0xe4>)
 8001344:	785a      	ldrb	r2, [r3, #1]
 8001346:	781b      	ldrb	r3, [r3, #0]
 8001348:	429a      	cmp	r2, r3
 800134a:	d030      	beq.n	80013ae <ChargerSM_Task+0xda>
 800134c:	4b1a      	ldr	r3, [pc, #104]	@ (80013b8 <ChargerSM_Task+0xe4>)
 800134e:	701a      	strb	r2, [r3, #0]
 8001350:	2200      	movs	r2, #0
 8001352:	615a      	str	r2, [r3, #20]
 8001354:	4b18      	ldr	r3, [pc, #96]	@ (80013b8 <ChargerSM_Task+0xe4>)
 8001356:	699a      	ldr	r2, [r3, #24]
 8001358:	3201      	adds	r2, #1
 800135a:	619a      	str	r2, [r3, #24]
 800135c:	6a1a      	ldr	r2, [r3, #32]
 800135e:	3201      	adds	r2, #1
 8001360:	621a      	str	r2, [r3, #32]
 8001362:	6a5a      	ldr	r2, [r3, #36]	@ 0x24
 8001364:	3201      	adds	r2, #1
 8001366:	625a      	str	r2, [r3, #36]	@ 0x24
 8001368:	212d      	movs	r1, #45	@ 0x2d
 800136a:	5c5a      	ldrb	r2, [r3, r1]
 800136c:	3201      	adds	r2, #1
 800136e:	545a      	strb	r2, [r3, r1]
 8001370:	bdf8      	pop	{r3, r4, r5, r6, r7, pc}
 8001372:	f7ff fe01 	bl	8000f78 <State_VsetWake>
 8001376:	e7e4      	b.n	8001342 <ChargerSM_Task+0x6e>
 8001378:	f7ff fefe 	bl	8001178 <State_Standby>
 800137c:	e7e1      	b.n	8001342 <ChargerSM_Task+0x6e>
 800137e:	f7ff fe3f 	bl	8001000 <State_Precharge>
 8001382:	e7de      	b.n	8001342 <ChargerSM_Task+0x6e>
 8001384:	f7ff fe58 	bl	8001038 <State_DeepDischarge>
 8001388:	e7db      	b.n	8001342 <ChargerSM_Task+0x6e>
 800138a:	f7ff fe71 	bl	8001070 <State_Softstart>
 800138e:	e7d8      	b.n	8001342 <ChargerSM_Task+0x6e>
 8001390:	f7ff fe96 	bl	80010c0 <State_CC>
 8001394:	e7d5      	b.n	8001342 <ChargerSM_Task+0x6e>
 8001396:	f7ff fea9 	bl	80010ec <State_CV>
 800139a:	e7d2      	b.n	8001342 <ChargerSM_Task+0x6e>
 800139c:	f7ff fede 	bl	800115c <State_ChargeComplete>
 80013a0:	e7cf      	b.n	8001342 <ChargerSM_Task+0x6e>
 80013a2:	f7ff fee9 	bl	8001178 <State_Standby>
 80013a6:	e7cc      	b.n	8001342 <ChargerSM_Task+0x6e>
 80013a8:	f7ff fef4 	bl	8001194 <State_Fault>
 80013ac:	e7c9      	b.n	8001342 <ChargerSM_Task+0x6e>
 80013ae:	4a02      	ldr	r2, [pc, #8]	@ (80013b8 <ChargerSM_Task+0xe4>)
 80013b0:	6953      	ldr	r3, [r2, #20]
 80013b2:	3301      	adds	r3, #1
 80013b4:	6153      	str	r3, [r2, #20]
 80013b6:	e7cd      	b.n	8001354 <ChargerSM_Task+0x80>
 80013b8:	2000008c 	.word	0x2000008c
 80013bc:	0003d860 	.word	0x0003d860
 80013c0:	08001888 	.word	0x08001888

080013c4 <ChargerSM_SetVset>:
 80013c4:	b570      	push	{r4, r5, r6, lr}
 80013c6:	0004      	movs	r4, r0
 80013c8:	4e0a      	ldr	r6, [pc, #40]	@ (80013f4 <ChargerSM_SetVset+0x30>)
 80013ca:	6030      	str	r0, [r6, #0]
 80013cc:	0085      	lsls	r5, r0, #2
 80013ce:	1828      	adds	r0, r5, r0
 80013d0:	0080      	lsls	r0, r0, #2
 80013d2:	2164      	movs	r1, #100	@ 0x64
 80013d4:	f7fe fe74 	bl	80000c0 <__udivsi3>
 80013d8:	6070      	str	r0, [r6, #4]
 80013da:	1928      	adds	r0, r5, r4
 80013dc:	00c0      	lsls	r0, r0, #3
 80013de:	2164      	movs	r1, #100	@ 0x64
 80013e0:	f7fe fe6e 	bl	80000c0 <__udivsi3>
 80013e4:	60b0      	str	r0, [r6, #8]
 80013e6:	01a0      	lsls	r0, r4, #6
 80013e8:	1900      	adds	r0, r0, r4
 80013ea:	2164      	movs	r1, #100	@ 0x64
 80013ec:	f7fe fe68 	bl	80000c0 <__udivsi3>
 80013f0:	60f0      	str	r0, [r6, #12]
 80013f2:	bd70      	pop	{r4, r5, r6, pc}
 80013f4:	200000c0 	.word	0x200000c0

080013f8 <ChargerSM_SetCset>:
 80013f8:	b510      	push	{r4, lr}
 80013fa:	4c05      	ldr	r4, [pc, #20]	@ (8001410 <ChargerSM_SetCset+0x18>)
 80013fc:	8220      	strh	r0, [r4, #16]
 80013fe:	0083      	lsls	r3, r0, #2
 8001400:	1818      	adds	r0, r3, r0
 8001402:	00c0      	lsls	r0, r0, #3
 8001404:	2164      	movs	r1, #100	@ 0x64
 8001406:	f7fe fee5 	bl	80001d4 <__divsi3>
 800140a:	8260      	strh	r0, [r4, #18]
 800140c:	bd10      	pop	{r4, pc}
 800140e:	46c0      	nop			@ (mov r8, r8)
 8001410:	200000c0 	.word	0x200000c0

08001414 <ChargerSM_ACOnEvent>:
 8001414:	4b06      	ldr	r3, [pc, #24]	@ (8001430 <ChargerSM_ACOnEvent+0x1c>)
 8001416:	781b      	ldrb	r3, [r3, #0]
 8001418:	2b00      	cmp	r3, #0
 800141a:	d008      	beq.n	800142e <ChargerSM_ACOnEvent+0x1a>
 800141c:	4b04      	ldr	r3, [pc, #16]	@ (8001430 <ChargerSM_ACOnEvent+0x1c>)
 800141e:	2200      	movs	r2, #0
 8001420:	701a      	strb	r2, [r3, #0]
 8001422:	705a      	strb	r2, [r3, #1]
 8001424:	615a      	str	r2, [r3, #20]
 8001426:	2132      	movs	r1, #50	@ 0x32
 8001428:	545a      	strb	r2, [r3, r1]
 800142a:	3902      	subs	r1, #2
 800142c:	545a      	strb	r2, [r3, r1]
 800142e:	4770      	bx	lr
 8001430:	2000008c 	.word	0x2000008c

08001434 <ChargerSM_ACOffEvent>:
 8001434:	4b02      	ldr	r3, [pc, #8]	@ (8001440 <ChargerSM_ACOffEvent+0xc>)
 8001436:	2200      	movs	r2, #0
 8001438:	73da      	strb	r2, [r3, #15]
 800143a:	741a      	strb	r2, [r3, #16]
 800143c:	4770      	bx	lr
 800143e:	46c0      	nop			@ (mov r8, r8)
 8001440:	2000008c 	.word	0x2000008c

08001444 <ChargerSM_GetState>:
 8001444:	4b01      	ldr	r3, [pc, #4]	@ (800144c <ChargerSM_GetState+0x8>)
 8001446:	7818      	ldrb	r0, [r3, #0]
 8001448:	4770      	bx	lr
 800144a:	46c0      	nop			@ (mov r8, r8)
 800144c:	2000008c 	.word	0x2000008c

08001450 <ChargerSM_GetFault>:
 8001450:	4b01      	ldr	r3, [pc, #4]	@ (8001458 <ChargerSM_GetFault+0x8>)
 8001452:	2230      	movs	r2, #48	@ 0x30
 8001454:	5c98      	ldrb	r0, [r3, r2]
 8001456:	4770      	bx	lr
 8001458:	2000008c 	.word	0x2000008c

0800145c <ChargerSM_IsFanEnabled>:
 800145c:	4b01      	ldr	r3, [pc, #4]	@ (8001464 <ChargerSM_IsFanEnabled+0x8>)
 800145e:	7c18      	ldrb	r0, [r3, #16]
 8001460:	4770      	bx	lr
 8001462:	46c0      	nop			@ (mov r8, r8)
 8001464:	2000008c 	.word	0x2000008c

08001468 <ChargerSM_IsCharging>:
 8001468:	4b09      	ldr	r3, [pc, #36]	@ (8001490 <ChargerSM_IsCharging+0x28>)
 800146a:	2231      	movs	r2, #49	@ 0x31
 800146c:	5c9b      	ldrb	r3, [r3, r2]
 800146e:	2b00      	cmp	r3, #0
 8001470:	d009      	beq.n	8001486 <ChargerSM_IsCharging+0x1e>
 8001472:	4b07      	ldr	r3, [pc, #28]	@ (8001490 <ChargerSM_IsCharging+0x28>)
 8001474:	781b      	ldrb	r3, [r3, #0]
 8001476:	2b09      	cmp	r3, #9
 8001478:	d007      	beq.n	800148a <ChargerSM_IsCharging+0x22>
 800147a:	2b0a      	cmp	r3, #10
 800147c:	d001      	beq.n	8001482 <ChargerSM_IsCharging+0x1a>
 800147e:	2001      	movs	r0, #1
 8001480:	e002      	b.n	8001488 <ChargerSM_IsCharging+0x20>
 8001482:	2000      	movs	r0, #0
 8001484:	e000      	b.n	8001488 <ChargerSM_IsCharging+0x20>
 8001486:	2000      	movs	r0, #0
 8001488:	4770      	bx	lr
 800148a:	2000      	movs	r0, #0
 800148c:	e7fc      	b.n	8001488 <ChargerSM_IsCharging+0x20>
 800148e:	46c0      	nop			@ (mov r8, r8)
 8001490:	2000008c 	.word	0x2000008c

08001494 <ChargerSM_IsPWMEnabled>:
 8001494:	4b01      	ldr	r3, [pc, #4]	@ (800149c <ChargerSM_IsPWMEnabled+0x8>)
 8001496:	7bd8      	ldrb	r0, [r3, #15]
 8001498:	4770      	bx	lr
 800149a:	46c0      	nop			@ (mov r8, r8)
 800149c:	2000008c 	.word	0x2000008c

080014a0 <ClassifyBattery>:
 80014a0:	4b09      	ldr	r3, [pc, #36]	@ (80014c8 <ClassifyBattery+0x28>)
 80014a2:	68db      	ldr	r3, [r3, #12]
 80014a4:	4283      	cmp	r3, r0
 80014a6:	d909      	bls.n	80014bc <ClassifyBattery+0x1c>
 80014a8:	4b07      	ldr	r3, [pc, #28]	@ (80014c8 <ClassifyBattery+0x28>)
 80014aa:	689b      	ldr	r3, [r3, #8]
 80014ac:	4283      	cmp	r3, r0
 80014ae:	d907      	bls.n	80014c0 <ClassifyBattery+0x20>
 80014b0:	4b05      	ldr	r3, [pc, #20]	@ (80014c8 <ClassifyBattery+0x28>)
 80014b2:	685b      	ldr	r3, [r3, #4]
 80014b4:	4283      	cmp	r3, r0
 80014b6:	d805      	bhi.n	80014c4 <ClassifyBattery+0x24>
 80014b8:	2001      	movs	r0, #1
 80014ba:	4770      	bx	lr
 80014bc:	2003      	movs	r0, #3
 80014be:	e7fc      	b.n	80014ba <ClassifyBattery+0x1a>
 80014c0:	2002      	movs	r0, #2
 80014c2:	e7fa      	b.n	80014ba <ClassifyBattery+0x1a>
 80014c4:	2000      	movs	r0, #0
 80014c6:	e7f8      	b.n	80014ba <ClassifyBattery+0x1a>
 80014c8:	200000f8 	.word	0x200000f8

080014cc <Battery_Init>:
 80014cc:	b510      	push	{r4, lr}
 80014ce:	1e01      	subs	r1, r0, #0
 80014d0:	d013      	beq.n	80014fa <Battery_Init+0x2e>
 80014d2:	4c0a      	ldr	r4, [pc, #40]	@ (80014fc <Battery_Init+0x30>)
 80014d4:	2214      	movs	r2, #20
 80014d6:	0020      	movs	r0, r4
 80014d8:	f000 f990 	bl	80017fc <memcpy>
 80014dc:	4b08      	ldr	r3, [pc, #32]	@ (8001500 <Battery_Init+0x34>)
 80014de:	2200      	movs	r2, #0
 80014e0:	701a      	strb	r2, [r3, #0]
 80014e2:	705a      	strb	r2, [r3, #1]
 80014e4:	709a      	strb	r2, [r3, #2]
 80014e6:	605a      	str	r2, [r3, #4]
 80014e8:	609a      	str	r2, [r3, #8]
 80014ea:	731a      	strb	r2, [r3, #12]
 80014ec:	611a      	str	r2, [r3, #16]
 80014ee:	7c63      	ldrb	r3, [r4, #17]
 80014f0:	2b00      	cmp	r3, #0
 80014f2:	d102      	bne.n	80014fa <Battery_Init+0x2e>
 80014f4:	4b01      	ldr	r3, [pc, #4]	@ (80014fc <Battery_Init+0x30>)
 80014f6:	3205      	adds	r2, #5
 80014f8:	745a      	strb	r2, [r3, #17]
 80014fa:	bd10      	pop	{r4, pc}
 80014fc:	200000f8 	.word	0x200000f8
 8001500:	200000e4 	.word	0x200000e4

08001504 <Battery_Update>:
 8001504:	b510      	push	{r4, lr}
 8001506:	4c17      	ldr	r4, [pc, #92]	@ (8001564 <Battery_Update+0x60>)
 8001508:	6060      	str	r0, [r4, #4]
 800150a:	f7ff ffc9 	bl	80014a0 <ClassifyBattery>
 800150e:	7821      	ldrb	r1, [r4, #0]
 8001510:	4281      	cmp	r1, r0
 8001512:	d012      	beq.n	800153a <Battery_Update+0x36>
 8001514:	4a14      	ldr	r2, [pc, #80]	@ (8001568 <Battery_Update+0x64>)
 8001516:	7c13      	ldrb	r3, [r2, #16]
 8001518:	3301      	adds	r3, #1
 800151a:	b2db      	uxtb	r3, r3
 800151c:	7413      	strb	r3, [r2, #16]
 800151e:	7c52      	ldrb	r2, [r2, #17]
 8001520:	4293      	cmp	r3, r2
 8001522:	d30d      	bcc.n	8001540 <Battery_Update+0x3c>
 8001524:	7061      	strb	r1, [r4, #1]
 8001526:	7020      	strb	r0, [r4, #0]
 8001528:	2201      	movs	r2, #1
 800152a:	70a2      	strb	r2, [r4, #2]
 800152c:	2200      	movs	r2, #0
 800152e:	60a2      	str	r2, [r4, #8]
 8001530:	7322      	strb	r2, [r4, #12]
 8001532:	6122      	str	r2, [r4, #16]
 8001534:	4b0c      	ldr	r3, [pc, #48]	@ (8001568 <Battery_Update+0x64>)
 8001536:	741a      	strb	r2, [r3, #16]
 8001538:	e002      	b.n	8001540 <Battery_Update+0x3c>
 800153a:	4b0b      	ldr	r3, [pc, #44]	@ (8001568 <Battery_Update+0x64>)
 800153c:	2200      	movs	r2, #0
 800153e:	741a      	strb	r2, [r3, #16]
 8001540:	4a08      	ldr	r2, [pc, #32]	@ (8001564 <Battery_Update+0x60>)
 8001542:	6893      	ldr	r3, [r2, #8]
 8001544:	3301      	adds	r3, #1
 8001546:	6093      	str	r3, [r2, #8]
 8001548:	2296      	movs	r2, #150	@ 0x96
 800154a:	0092      	lsls	r2, r2, #2
 800154c:	4293      	cmp	r3, r2
 800154e:	d308      	bcc.n	8001562 <Battery_Update+0x5e>
 8001550:	4b04      	ldr	r3, [pc, #16]	@ (8001564 <Battery_Update+0x60>)
 8001552:	7b1b      	ldrb	r3, [r3, #12]
 8001554:	2b00      	cmp	r3, #0
 8001556:	d104      	bne.n	8001562 <Battery_Update+0x5e>
 8001558:	4b02      	ldr	r3, [pc, #8]	@ (8001564 <Battery_Update+0x60>)
 800155a:	2201      	movs	r2, #1
 800155c:	731a      	strb	r2, [r3, #12]
 800155e:	2200      	movs	r2, #0
 8001560:	611a      	str	r2, [r3, #16]
 8001562:	bd10      	pop	{r4, pc}
 8001564:	200000e4 	.word	0x200000e4
 8001568:	200000f8 	.word	0x200000f8

0800156c <Battery_SetVset>:
 800156c:	b570      	push	{r4, r5, r6, lr}
 800156e:	0004      	movs	r4, r0
 8001570:	4e0d      	ldr	r6, [pc, #52]	@ (80015a8 <Battery_SetVset+0x3c>)
 8001572:	6030      	str	r0, [r6, #0]
 8001574:	0085      	lsls	r5, r0, #2
 8001576:	1828      	adds	r0, r5, r0
 8001578:	0080      	lsls	r0, r0, #2
 800157a:	2164      	movs	r1, #100	@ 0x64
 800157c:	f7fe fda0 	bl	80000c0 <__udivsi3>
 8001580:	6070      	str	r0, [r6, #4]
 8001582:	1928      	adds	r0, r5, r4
 8001584:	00c0      	lsls	r0, r0, #3
 8001586:	2164      	movs	r1, #100	@ 0x64
 8001588:	f7fe fd9a 	bl	80000c0 <__udivsi3>
 800158c:	60b0      	str	r0, [r6, #8]
 800158e:	01a0      	lsls	r0, r4, #6
 8001590:	1900      	adds	r0, r0, r4
 8001592:	2164      	movs	r1, #100	@ 0x64
 8001594:	f7fe fd94 	bl	80000c0 <__udivsi3>
 8001598:	60f0      	str	r0, [r6, #12]
 800159a:	4b04      	ldr	r3, [pc, #16]	@ (80015ac <Battery_SetVset+0x40>)
 800159c:	2200      	movs	r2, #0
 800159e:	731a      	strb	r2, [r3, #12]
 80015a0:	611a      	str	r2, [r3, #16]
 80015a2:	609a      	str	r2, [r3, #8]
 80015a4:	bd70      	pop	{r4, r5, r6, pc}
 80015a6:	46c0      	nop			@ (mov r8, r8)
 80015a8:	200000f8 	.word	0x200000f8
 80015ac:	200000e4 	.word	0x200000e4

080015b0 <InterpolateSOC>:
 80015b0:	b570      	push	{r4, r5, r6, lr}
 80015b2:	0005      	movs	r5, r0
 80015b4:	000c      	movs	r4, r1
 80015b6:	a904      	add	r1, sp, #16
 80015b8:	880e      	ldrh	r6, [r1, #0]
 80015ba:	4286      	cmp	r6, r0
 80015bc:	d90e      	bls.n	80015dc <InterpolateSOC+0x2c>
 80015be:	4296      	cmp	r6, r2
 80015c0:	d20e      	bcs.n	80015e0 <InterpolateSOC+0x30>
 80015c2:	1a12      	subs	r2, r2, r0
 80015c4:	b291      	uxth	r1, r2
 80015c6:	1b1b      	subs	r3, r3, r4
 80015c8:	b298      	uxth	r0, r3
 80015ca:	1b76      	subs	r6, r6, r5
 80015cc:	b2b6      	uxth	r6, r6
 80015ce:	4370      	muls	r0, r6
 80015d0:	f7fe fe00 	bl	80001d4 <__divsi3>
 80015d4:	b280      	uxth	r0, r0
 80015d6:	1820      	adds	r0, r4, r0
 80015d8:	b2c0      	uxtb	r0, r0
 80015da:	bd70      	pop	{r4, r5, r6, pc}
 80015dc:	0020      	movs	r0, r4
 80015de:	e7fc      	b.n	80015da <InterpolateSOC+0x2a>
 80015e0:	0018      	movs	r0, r3
 80015e2:	e7fa      	b.n	80015da <InterpolateSOC+0x2a>

080015e4 <CalculateRawSOC>:
 80015e4:	b570      	push	{r4, r5, r6, lr}
 80015e6:	b082      	sub	sp, #8
 80015e8:	0143      	lsls	r3, r0, #5
 80015ea:	1a1b      	subs	r3, r3, r0
 80015ec:	009b      	lsls	r3, r3, #2
 80015ee:	1818      	adds	r0, r3, r0
 80015f0:	00c0      	lsls	r0, r0, #3
 80015f2:	f7fe fd65 	bl	80000c0 <__udivsi3>
 80015f6:	0005      	movs	r5, r0
 80015f8:	4b12      	ldr	r3, [pc, #72]	@ (8001644 <CalculateRawSOC+0x60>)
 80015fa:	4298      	cmp	r0, r3
 80015fc:	d91c      	bls.n	8001638 <CalculateRawSOC+0x54>
 80015fe:	335f      	adds	r3, #95	@ 0x5f
 8001600:	33ff      	adds	r3, #255	@ 0xff
 8001602:	4298      	cmp	r0, r3
 8001604:	d21b      	bcs.n	800163e <CalculateRawSOC+0x5a>
 8001606:	2200      	movs	r2, #0
 8001608:	2a13      	cmp	r2, #19
 800160a:	dc13      	bgt.n	8001634 <CalculateRawSOC+0x50>
 800160c:	4b0e      	ldr	r3, [pc, #56]	@ (8001648 <CalculateRawSOC+0x64>)
 800160e:	0091      	lsls	r1, r2, #2
 8001610:	5ac8      	ldrh	r0, [r1, r3]
 8001612:	3201      	adds	r2, #1
 8001614:	0094      	lsls	r4, r2, #2
 8001616:	5ae6      	ldrh	r6, [r4, r3]
 8001618:	1859      	adds	r1, r3, r1
 800161a:	7889      	ldrb	r1, [r1, #2]
 800161c:	191b      	adds	r3, r3, r4
 800161e:	789b      	ldrb	r3, [r3, #2]
 8001620:	42a8      	cmp	r0, r5
 8001622:	d8f1      	bhi.n	8001608 <CalculateRawSOC+0x24>
 8001624:	42ae      	cmp	r6, r5
 8001626:	d3ef      	bcc.n	8001608 <CalculateRawSOC+0x24>
 8001628:	b2ad      	uxth	r5, r5
 800162a:	9500      	str	r5, [sp, #0]
 800162c:	0032      	movs	r2, r6
 800162e:	f7ff ffbf 	bl	80015b0 <InterpolateSOC>
 8001632:	e002      	b.n	800163a <CalculateRawSOC+0x56>
 8001634:	2000      	movs	r0, #0
 8001636:	e000      	b.n	800163a <CalculateRawSOC+0x56>
 8001638:	2000      	movs	r0, #0
 800163a:	b002      	add	sp, #8
 800163c:	bd70      	pop	{r4, r5, r6, pc}
 800163e:	2064      	movs	r0, #100	@ 0x64
 8001640:	e7fb      	b.n	800163a <CalculateRawSOC+0x56>
 8001642:	46c0      	nop			@ (mov r8, r8)
 8001644:	0000028a 	.word	0x0000028a
 8001648:	08001908 	.word	0x08001908

0800164c <SOC_Init>:
 800164c:	b510      	push	{r4, lr}
 800164e:	1e01      	subs	r1, r0, #0
 8001650:	d016      	beq.n	8001680 <SOC_Init+0x34>
 8001652:	4c0c      	ldr	r4, [pc, #48]	@ (8001684 <SOC_Init+0x38>)
 8001654:	2208      	movs	r2, #8
 8001656:	0020      	movs	r0, r4
 8001658:	f000 f8d0 	bl	80017fc <memcpy>
 800165c:	7923      	ldrb	r3, [r4, #4]
 800165e:	2b00      	cmp	r3, #0
 8001660:	d102      	bne.n	8001668 <SOC_Init+0x1c>
 8001662:	4b08      	ldr	r3, [pc, #32]	@ (8001684 <SOC_Init+0x38>)
 8001664:	2202      	movs	r2, #2
 8001666:	711a      	strb	r2, [r3, #4]
 8001668:	4b07      	ldr	r3, [pc, #28]	@ (8001688 <SOC_Init+0x3c>)
 800166a:	2100      	movs	r1, #0
 800166c:	7019      	strb	r1, [r3, #0]
 800166e:	2200      	movs	r2, #0
 8001670:	8059      	strh	r1, [r3, #2]
 8001672:	8099      	strh	r1, [r3, #4]
 8001674:	719a      	strb	r2, [r3, #6]
 8001676:	8119      	strh	r1, [r3, #8]
 8001678:	729a      	strb	r2, [r3, #10]
 800167a:	72da      	strb	r2, [r3, #11]
 800167c:	731a      	strb	r2, [r3, #12]
 800167e:	735a      	strb	r2, [r3, #13]
 8001680:	bd10      	pop	{r4, pc}
 8001682:	46c0      	nop			@ (mov r8, r8)
 8001684:	2000011c 	.word	0x2000011c
 8001688:	2000010c 	.word	0x2000010c

0800168c <SOC_Update>:
 800168c:	b510      	push	{r4, lr}
 800168e:	4b17      	ldr	r3, [pc, #92]	@ (80016ec <SOC_Update+0x60>)
 8001690:	6819      	ldr	r1, [r3, #0]
 8001692:	f7ff ffa7 	bl	80015e4 <CalculateRawSOC>
 8001696:	4a16      	ldr	r2, [pc, #88]	@ (80016f0 <SOC_Update+0x64>)
 8001698:	7b12      	ldrb	r2, [r2, #12]
 800169a:	4282      	cmp	r2, r0
 800169c:	d207      	bcs.n	80016ae <SOC_Update+0x22>
 800169e:	4914      	ldr	r1, [pc, #80]	@ (80016f0 <SOC_Update+0x64>)
 80016a0:	7b49      	ldrb	r1, [r1, #13]
 80016a2:	4281      	cmp	r1, r0
 80016a4:	d004      	beq.n	80016b0 <SOC_Update+0x24>
 80016a6:	4b12      	ldr	r3, [pc, #72]	@ (80016f0 <SOC_Update+0x64>)
 80016a8:	7358      	strb	r0, [r3, #13]
 80016aa:	2200      	movs	r2, #0
 80016ac:	811a      	strh	r2, [r3, #8]
 80016ae:	bd10      	pop	{r4, pc}
 80016b0:	490f      	ldr	r1, [pc, #60]	@ (80016f0 <SOC_Update+0x64>)
 80016b2:	890b      	ldrh	r3, [r1, #8]
 80016b4:	3301      	adds	r3, #1
 80016b6:	b29b      	uxth	r3, r3
 80016b8:	810b      	strh	r3, [r1, #8]
 80016ba:	2196      	movs	r1, #150	@ 0x96
 80016bc:	0089      	lsls	r1, r1, #2
 80016be:	428b      	cmp	r3, r1
 80016c0:	d3f5      	bcc.n	80016ae <SOC_Update+0x22>
 80016c2:	1a83      	subs	r3, r0, r2
 80016c4:	b2db      	uxtb	r3, r3
 80016c6:	2b05      	cmp	r3, #5
 80016c8:	d90d      	bls.n	80016e6 <SOC_Update+0x5a>
 80016ca:	4b09      	ldr	r3, [pc, #36]	@ (80016f0 <SOC_Update+0x64>)
 80016cc:	3205      	adds	r2, #5
 80016ce:	731a      	strb	r2, [r3, #12]
 80016d0:	4b07      	ldr	r3, [pc, #28]	@ (80016f0 <SOC_Update+0x64>)
 80016d2:	7b1a      	ldrb	r2, [r3, #12]
 80016d4:	781b      	ldrb	r3, [r3, #0]
 80016d6:	429a      	cmp	r2, r3
 80016d8:	d901      	bls.n	80016de <SOC_Update+0x52>
 80016da:	4b05      	ldr	r3, [pc, #20]	@ (80016f0 <SOC_Update+0x64>)
 80016dc:	701a      	strb	r2, [r3, #0]
 80016de:	4b04      	ldr	r3, [pc, #16]	@ (80016f0 <SOC_Update+0x64>)
 80016e0:	2200      	movs	r2, #0
 80016e2:	811a      	strh	r2, [r3, #8]
 80016e4:	e7e3      	b.n	80016ae <SOC_Update+0x22>
 80016e6:	4b02      	ldr	r3, [pc, #8]	@ (80016f0 <SOC_Update+0x64>)
 80016e8:	7318      	strb	r0, [r3, #12]
 80016ea:	e7f1      	b.n	80016d0 <SOC_Update+0x44>
 80016ec:	2000011c 	.word	0x2000011c
 80016f0:	2000010c 	.word	0x2000010c

080016f4 <SOC_SetVset>:
 80016f4:	4b05      	ldr	r3, [pc, #20]	@ (800170c <SOC_SetVset+0x18>)
 80016f6:	6018      	str	r0, [r3, #0]
 80016f8:	4b05      	ldr	r3, [pc, #20]	@ (8001710 <SOC_SetVset+0x1c>)
 80016fa:	2200      	movs	r2, #0
 80016fc:	719a      	strb	r2, [r3, #6]
 80016fe:	811a      	strh	r2, [r3, #8]
 8001700:	3201      	adds	r2, #1
 8001702:	72da      	strb	r2, [r3, #11]
 8001704:	2200      	movs	r2, #0
 8001706:	731a      	strb	r2, [r3, #12]
 8001708:	735a      	strb	r2, [r3, #13]
 800170a:	4770      	bx	lr
 800170c:	2000011c 	.word	0x2000011c
 8001710:	2000010c 	.word	0x2000010c

08001714 <SOC_GetDisplaySOC>:
 8001714:	4b01      	ldr	r3, [pc, #4]	@ (800171c <SOC_GetDisplaySOC+0x8>)
 8001716:	7818      	ldrb	r0, [r3, #0]
 8001718:	4770      	bx	lr
 800171a:	46c0      	nop			@ (mov r8, r8)
 800171c:	2000010c 	.word	0x2000010c

08001720 <SOC_IsQualified>:
 8001720:	4b01      	ldr	r3, [pc, #4]	@ (8001728 <SOC_IsQualified+0x8>)
 8001722:	7998      	ldrb	r0, [r3, #6]
 8001724:	4770      	bx	lr
 8001726:	46c0      	nop			@ (mov r8, r8)
 8001728:	2000010c 	.word	0x2000010c

0800172c <HAL_IncTick>:
 800172c:	4a03      	ldr	r2, [pc, #12]	@ (800173c <HAL_IncTick+0x10>)
 800172e:	6813      	ldr	r3, [r2, #0]
 8001730:	4903      	ldr	r1, [pc, #12]	@ (8001740 <HAL_IncTick+0x14>)
 8001732:	6809      	ldr	r1, [r1, #0]
 8001734:	185b      	adds	r3, r3, r1
 8001736:	6013      	str	r3, [r2, #0]
 8001738:	4770      	bx	lr
 800173a:	46c0      	nop			@ (mov r8, r8)
 800173c:	20000124 	.word	0x20000124
 8001740:	20000004 	.word	0x20000004

08001744 <HAL_GPIO_WritePin>:
 8001744:	2a00      	cmp	r2, #0
 8001746:	d001      	beq.n	800174c <HAL_GPIO_WritePin+0x8>
 8001748:	6181      	str	r1, [r0, #24]
 800174a:	4770      	bx	lr
 800174c:	6281      	str	r1, [r0, #40]	@ 0x28
 800174e:	e7fc      	b.n	800174a <HAL_GPIO_WritePin+0x6>

08001750 <Reset_Handler>:
 8001750:	480d      	ldr	r0, [pc, #52]	@ (8001788 <LoopForever+0x2>)
 8001752:	4685      	mov	sp, r0
 8001754:	f7ff f886 	bl	8000864 <SystemInit>
 8001758:	480c      	ldr	r0, [pc, #48]	@ (800178c <LoopForever+0x6>)
 800175a:	490d      	ldr	r1, [pc, #52]	@ (8001790 <LoopForever+0xa>)
 800175c:	4a0d      	ldr	r2, [pc, #52]	@ (8001794 <LoopForever+0xe>)
 800175e:	2300      	movs	r3, #0
 8001760:	e002      	b.n	8001768 <LoopCopyDataInit>

08001762 <CopyDataInit>:
 8001762:	58d4      	ldr	r4, [r2, r3]
 8001764:	50c4      	str	r4, [r0, r3]
 8001766:	3304      	adds	r3, #4

08001768 <LoopCopyDataInit>:
 8001768:	18c4      	adds	r4, r0, r3
 800176a:	428c      	cmp	r4, r1
 800176c:	d3f9      	bcc.n	8001762 <CopyDataInit>
 800176e:	4a0a      	ldr	r2, [pc, #40]	@ (8001798 <LoopForever+0x12>)
 8001770:	4c0a      	ldr	r4, [pc, #40]	@ (800179c <LoopForever+0x16>)
 8001772:	2300      	movs	r3, #0
 8001774:	e001      	b.n	800177a <LoopFillZerobss>

08001776 <FillZerobss>:
 8001776:	6013      	str	r3, [r2, #0]
 8001778:	3204      	adds	r2, #4

0800177a <LoopFillZerobss>:
 800177a:	42a2      	cmp	r2, r4
 800177c:	d3fb      	bcc.n	8001776 <FillZerobss>
 800177e:	f000 f819 	bl	80017b4 <__libc_init_array>
 8001782:	f7fe ffd3 	bl	800072c <main>

08001786 <LoopForever>:
 8001786:	e7fe      	b.n	8001786 <LoopForever>
 8001788:	20000c00 	.word	0x20000c00
 800178c:	20000000 	.word	0x20000000
 8001790:	20000008 	.word	0x20000008
 8001794:	08001964 	.word	0x08001964
 8001798:	20000008 	.word	0x20000008
 800179c:	20000128 	.word	0x20000128

080017a0 <ADC_COMP_IRQHandler>:
 80017a0:	e7fe      	b.n	80017a0 <ADC_COMP_IRQHandler>

080017a2 <memset>:
 80017a2:	0003      	movs	r3, r0
 80017a4:	1882      	adds	r2, r0, r2
 80017a6:	4293      	cmp	r3, r2
 80017a8:	d100      	bne.n	80017ac <memset+0xa>
 80017aa:	4770      	bx	lr
 80017ac:	7019      	strb	r1, [r3, #0]
 80017ae:	3301      	adds	r3, #1
 80017b0:	e7f9      	b.n	80017a6 <memset+0x4>
	...

080017b4 <__libc_init_array>:
 80017b4:	b570      	push	{r4, r5, r6, lr}
 80017b6:	2600      	movs	r6, #0
 80017b8:	4c0c      	ldr	r4, [pc, #48]	@ (80017ec <__libc_init_array+0x38>)
 80017ba:	4d0d      	ldr	r5, [pc, #52]	@ (80017f0 <__libc_init_array+0x3c>)
 80017bc:	1b64      	subs	r4, r4, r5
 80017be:	10a4      	asrs	r4, r4, #2
 80017c0:	42a6      	cmp	r6, r4
 80017c2:	d109      	bne.n	80017d8 <__libc_init_array+0x24>
 80017c4:	2600      	movs	r6, #0
 80017c6:	f000 f823 	bl	8001810 <_init>
 80017ca:	4c0a      	ldr	r4, [pc, #40]	@ (80017f4 <__libc_init_array+0x40>)
 80017cc:	4d0a      	ldr	r5, [pc, #40]	@ (80017f8 <__libc_init_array+0x44>)
 80017ce:	1b64      	subs	r4, r4, r5
 80017d0:	10a4      	asrs	r4, r4, #2
 80017d2:	42a6      	cmp	r6, r4
 80017d4:	d105      	bne.n	80017e2 <__libc_init_array+0x2e>
 80017d6:	bd70      	pop	{r4, r5, r6, pc}
 80017d8:	00b3      	lsls	r3, r6, #2
 80017da:	58eb      	ldr	r3, [r5, r3]
 80017dc:	4798      	blx	r3
 80017de:	3601      	adds	r6, #1
 80017e0:	e7ee      	b.n	80017c0 <__libc_init_array+0xc>
 80017e2:	00b3      	lsls	r3, r6, #2
 80017e4:	58eb      	ldr	r3, [r5, r3]
 80017e6:	4798      	blx	r3
 80017e8:	3601      	adds	r6, #1
 80017ea:	e7f2      	b.n	80017d2 <__libc_init_array+0x1e>
 80017ec:	0800195c 	.word	0x0800195c
 80017f0:	0800195c 	.word	0x0800195c
 80017f4:	08001960 	.word	0x08001960
 80017f8:	0800195c 	.word	0x0800195c

080017fc <memcpy>:
 80017fc:	2300      	movs	r3, #0
 80017fe:	b510      	push	{r4, lr}
 8001800:	429a      	cmp	r2, r3
 8001802:	d100      	bne.n	8001806 <memcpy+0xa>
 8001804:	bd10      	pop	{r4, pc}
 8001806:	5ccc      	ldrb	r4, [r1, r3]
 8001808:	54c4      	strb	r4, [r0, r3]
 800180a:	3301      	adds	r3, #1
 800180c:	e7f8      	b.n	8001800 <memcpy+0x4>
	...

08001810 <_init>:
 8001810:	b5f8      	push	{r3, r4, r5, r6, r7, lr}
 8001812:	46c0      	nop			@ (mov r8, r8)
 8001814:	bcf8      	pop	{r3, r4, r5, r6, r7}
 8001816:	bc08      	pop	{r3}
 8001818:	469e      	mov	lr, r3
 800181a:	4770      	bx	lr

0800181c <_fini>:
 800181c:	b5f8      	push	{r3, r4, r5, r6, r7, lr}
 800181e:	46c0      	nop			@ (mov r8, r8)
 8001820:	bcf8      	pop	{r3, r4, r5, r6, r7}
 8001822:	bc08      	pop	{r3}
 8001824:	469e      	mov	lr, r3
 8001826:	4770      	bx	lr
