ARM GAS  C:\Users\Gautam\AppData\Local\Temp\cc6Hfolp.s 			page 1


   1              		.cpu cortex-m0plus
   2              		.arch armv6s-m
   3              		.fpu softvfp
   4              		.eabi_attribute 20, 1
   5              		.eabi_attribute 21, 1
   6              		.eabi_attribute 23, 3
   7              		.eabi_attribute 24, 1
   8              		.eabi_attribute 25, 1
   9              		.eabi_attribute 26, 1
  10              		.eabi_attribute 30, 1
  11              		.eabi_attribute 34, 0
  12              		.eabi_attribute 18, 4
  13              		.file	"py32f002b_hal_gpio.c"
  14              		.text
  15              	.Ltext0:
  16              		.cfi_sections	.debug_frame
  17              		.file 1 "../../../PY32F002B_Firmware_V1.2.1/PY32F002B_Firmware_V1.2.1/Drivers/PY32F002B_HAL_Driver
  18              		.section	.text.HAL_GPIO_Init,"ax",%progbits
  19              		.align	1
  20              		.global	HAL_GPIO_Init
  21              		.syntax unified
  22              		.code	16
  23              		.thumb_func
  25              	HAL_GPIO_Init:
  26              	.LVL0:
  27              	.LFB37:
   1:../../../PY32F002B_Firmware_V1.2.1/PY32F002B_Firmware_V1.2.1/Drivers/PY32F002B_HAL_Driver/Src/py32f002b_hal_gpio.c **** /**
   2:../../../PY32F002B_Firmware_V1.2.1/PY32F002B_Firmware_V1.2.1/Drivers/PY32F002B_HAL_Driver/Src/py32f002b_hal_gpio.c ****   ******************************************************************************
   3:../../../PY32F002B_Firmware_V1.2.1/PY32F002B_Firmware_V1.2.1/Drivers/PY32F002B_HAL_Driver/Src/py32f002b_hal_gpio.c ****   * @file    py32f002b_hal_gpio.c
   4:../../../PY32F002B_Firmware_V1.2.1/PY32F002B_Firmware_V1.2.1/Drivers/PY32F002B_HAL_Driver/Src/py32f002b_hal_gpio.c ****   * @author  MCU Application Team
   5:../../../PY32F002B_Firmware_V1.2.1/PY32F002B_Firmware_V1.2.1/Drivers/PY32F002B_HAL_Driver/Src/py32f002b_hal_gpio.c ****   * @brief   GPIO HAL module driver.
   6:../../../PY32F002B_Firmware_V1.2.1/PY32F002B_Firmware_V1.2.1/Drivers/PY32F002B_HAL_Driver/Src/py32f002b_hal_gpio.c ****   *          This file provides firmware functions to manage the following
   7:../../../PY32F002B_Firmware_V1.2.1/PY32F002B_Firmware_V1.2.1/Drivers/PY32F002B_HAL_Driver/Src/py32f002b_hal_gpio.c ****   *          functionalities of the General Purpose Input/Output (GPIO) peripheral:
   8:../../../PY32F002B_Firmware_V1.2.1/PY32F002B_Firmware_V1.2.1/Drivers/PY32F002B_HAL_Driver/Src/py32f002b_hal_gpio.c ****   *           + Initialization and de-initialization functions
   9:../../../PY32F002B_Firmware_V1.2.1/PY32F002B_Firmware_V1.2.1/Drivers/PY32F002B_HAL_Driver/Src/py32f002b_hal_gpio.c ****   *           + IO operation functions
  10:../../../PY32F002B_Firmware_V1.2.1/PY32F002B_Firmware_V1.2.1/Drivers/PY32F002B_HAL_Driver/Src/py32f002b_hal_gpio.c ****   *
  11:../../../PY32F002B_Firmware_V1.2.1/PY32F002B_Firmware_V1.2.1/Drivers/PY32F002B_HAL_Driver/Src/py32f002b_hal_gpio.c ****   @verbatim
  12:../../../PY32F002B_Firmware_V1.2.1/PY32F002B_Firmware_V1.2.1/Drivers/PY32F002B_HAL_Driver/Src/py32f002b_hal_gpio.c ****   ==============================================================================
  13:../../../PY32F002B_Firmware_V1.2.1/PY32F002B_Firmware_V1.2.1/Drivers/PY32F002B_HAL_Driver/Src/py32f002b_hal_gpio.c ****                     ##### GPIO Peripheral features #####
  14:../../../PY32F002B_Firmware_V1.2.1/PY32F002B_Firmware_V1.2.1/Drivers/PY32F002B_HAL_Driver/Src/py32f002b_hal_gpio.c ****   ==============================================================================
  15:../../../PY32F002B_Firmware_V1.2.1/PY32F002B_Firmware_V1.2.1/Drivers/PY32F002B_HAL_Driver/Src/py32f002b_hal_gpio.c ****   [..]
  16:../../../PY32F002B_Firmware_V1.2.1/PY32F002B_Firmware_V1.2.1/Drivers/PY32F002B_HAL_Driver/Src/py32f002b_hal_gpio.c ****     (+) Each port bit of the general-purpose I/O (GPIO) ports can be individually
  17:../../../PY32F002B_Firmware_V1.2.1/PY32F002B_Firmware_V1.2.1/Drivers/PY32F002B_HAL_Driver/Src/py32f002b_hal_gpio.c ****         configured by software in several modes:
  18:../../../PY32F002B_Firmware_V1.2.1/PY32F002B_Firmware_V1.2.1/Drivers/PY32F002B_HAL_Driver/Src/py32f002b_hal_gpio.c ****         (++) Input mode
  19:../../../PY32F002B_Firmware_V1.2.1/PY32F002B_Firmware_V1.2.1/Drivers/PY32F002B_HAL_Driver/Src/py32f002b_hal_gpio.c ****         (++) Analog mode
  20:../../../PY32F002B_Firmware_V1.2.1/PY32F002B_Firmware_V1.2.1/Drivers/PY32F002B_HAL_Driver/Src/py32f002b_hal_gpio.c ****         (++) Output mode
  21:../../../PY32F002B_Firmware_V1.2.1/PY32F002B_Firmware_V1.2.1/Drivers/PY32F002B_HAL_Driver/Src/py32f002b_hal_gpio.c ****         (++) Alternate function mode
  22:../../../PY32F002B_Firmware_V1.2.1/PY32F002B_Firmware_V1.2.1/Drivers/PY32F002B_HAL_Driver/Src/py32f002b_hal_gpio.c ****         (++) External interrupt/event lines
  23:../../../PY32F002B_Firmware_V1.2.1/PY32F002B_Firmware_V1.2.1/Drivers/PY32F002B_HAL_Driver/Src/py32f002b_hal_gpio.c **** 
  24:../../../PY32F002B_Firmware_V1.2.1/PY32F002B_Firmware_V1.2.1/Drivers/PY32F002B_HAL_Driver/Src/py32f002b_hal_gpio.c ****     (+) During and just after reset, the alternate functions and external interrupt
  25:../../../PY32F002B_Firmware_V1.2.1/PY32F002B_Firmware_V1.2.1/Drivers/PY32F002B_HAL_Driver/Src/py32f002b_hal_gpio.c ****         lines are not active and the I/O ports are configured in input floating mode.
  26:../../../PY32F002B_Firmware_V1.2.1/PY32F002B_Firmware_V1.2.1/Drivers/PY32F002B_HAL_Driver/Src/py32f002b_hal_gpio.c **** 
  27:../../../PY32F002B_Firmware_V1.2.1/PY32F002B_Firmware_V1.2.1/Drivers/PY32F002B_HAL_Driver/Src/py32f002b_hal_gpio.c ****     (+) All GPIO pins have weak internal pull-up and pull-down resistors, which can be
  28:../../../PY32F002B_Firmware_V1.2.1/PY32F002B_Firmware_V1.2.1/Drivers/PY32F002B_HAL_Driver/Src/py32f002b_hal_gpio.c ****         activated or not.
  29:../../../PY32F002B_Firmware_V1.2.1/PY32F002B_Firmware_V1.2.1/Drivers/PY32F002B_HAL_Driver/Src/py32f002b_hal_gpio.c **** 
  30:../../../PY32F002B_Firmware_V1.2.1/PY32F002B_Firmware_V1.2.1/Drivers/PY32F002B_HAL_Driver/Src/py32f002b_hal_gpio.c ****     (+) In Output or Alternate mode, each IO can be configured on open-drain or push-pull
  31:../../../PY32F002B_Firmware_V1.2.1/PY32F002B_Firmware_V1.2.1/Drivers/PY32F002B_HAL_Driver/Src/py32f002b_hal_gpio.c ****         type and the IO speed can be selected depending on the VDD value.
ARM GAS  C:\Users\Gautam\AppData\Local\Temp\cc6Hfolp.s 			page 2


  32:../../../PY32F002B_Firmware_V1.2.1/PY32F002B_Firmware_V1.2.1/Drivers/PY32F002B_HAL_Driver/Src/py32f002b_hal_gpio.c **** 
  33:../../../PY32F002B_Firmware_V1.2.1/PY32F002B_Firmware_V1.2.1/Drivers/PY32F002B_HAL_Driver/Src/py32f002b_hal_gpio.c ****     (+) The microcontroller IO pins are connected to onboard peripherals/modules through a
  34:../../../PY32F002B_Firmware_V1.2.1/PY32F002B_Firmware_V1.2.1/Drivers/PY32F002B_HAL_Driver/Src/py32f002b_hal_gpio.c ****         multiplexer that allows only one peripheral alternate function (AF) connected
  35:../../../PY32F002B_Firmware_V1.2.1/PY32F002B_Firmware_V1.2.1/Drivers/PY32F002B_HAL_Driver/Src/py32f002b_hal_gpio.c ****        to an IO pin at a time. In this way, there can be no conflict between peripherals
  36:../../../PY32F002B_Firmware_V1.2.1/PY32F002B_Firmware_V1.2.1/Drivers/PY32F002B_HAL_Driver/Src/py32f002b_hal_gpio.c ****        sharing the same IO pin.
  37:../../../PY32F002B_Firmware_V1.2.1/PY32F002B_Firmware_V1.2.1/Drivers/PY32F002B_HAL_Driver/Src/py32f002b_hal_gpio.c **** 
  38:../../../PY32F002B_Firmware_V1.2.1/PY32F002B_Firmware_V1.2.1/Drivers/PY32F002B_HAL_Driver/Src/py32f002b_hal_gpio.c ****     (+) All ports have external interrupt/event capability. To use external interrupt
  39:../../../PY32F002B_Firmware_V1.2.1/PY32F002B_Firmware_V1.2.1/Drivers/PY32F002B_HAL_Driver/Src/py32f002b_hal_gpio.c ****         lines, the port must be configured in input mode. All available GPIO pins are
  40:../../../PY32F002B_Firmware_V1.2.1/PY32F002B_Firmware_V1.2.1/Drivers/PY32F002B_HAL_Driver/Src/py32f002b_hal_gpio.c ****         connected to the 16 external interrupt/event lines from EXTI0 to EXTI15.
  41:../../../PY32F002B_Firmware_V1.2.1/PY32F002B_Firmware_V1.2.1/Drivers/PY32F002B_HAL_Driver/Src/py32f002b_hal_gpio.c **** 
  42:../../../PY32F002B_Firmware_V1.2.1/PY32F002B_Firmware_V1.2.1/Drivers/PY32F002B_HAL_Driver/Src/py32f002b_hal_gpio.c ****     (+) The external interrupt/event controller consists of up to 28 edge detectors
  43:../../../PY32F002B_Firmware_V1.2.1/PY32F002B_Firmware_V1.2.1/Drivers/PY32F002B_HAL_Driver/Src/py32f002b_hal_gpio.c ****         (16 lines are connected to GPIO) for generating event/interrupt requests (each
  44:../../../PY32F002B_Firmware_V1.2.1/PY32F002B_Firmware_V1.2.1/Drivers/PY32F002B_HAL_Driver/Src/py32f002b_hal_gpio.c ****         input line can be independently configured to select the type (interrupt or event)
  45:../../../PY32F002B_Firmware_V1.2.1/PY32F002B_Firmware_V1.2.1/Drivers/PY32F002B_HAL_Driver/Src/py32f002b_hal_gpio.c ****         and the corresponding trigger event (rising or falling or both). Each line can
  46:../../../PY32F002B_Firmware_V1.2.1/PY32F002B_Firmware_V1.2.1/Drivers/PY32F002B_HAL_Driver/Src/py32f002b_hal_gpio.c ****         also be masked independently.
  47:../../../PY32F002B_Firmware_V1.2.1/PY32F002B_Firmware_V1.2.1/Drivers/PY32F002B_HAL_Driver/Src/py32f002b_hal_gpio.c **** 
  48:../../../PY32F002B_Firmware_V1.2.1/PY32F002B_Firmware_V1.2.1/Drivers/PY32F002B_HAL_Driver/Src/py32f002b_hal_gpio.c ****                      ##### How to use this driver #####
  49:../../../PY32F002B_Firmware_V1.2.1/PY32F002B_Firmware_V1.2.1/Drivers/PY32F002B_HAL_Driver/Src/py32f002b_hal_gpio.c ****   ==============================================================================
  50:../../../PY32F002B_Firmware_V1.2.1/PY32F002B_Firmware_V1.2.1/Drivers/PY32F002B_HAL_Driver/Src/py32f002b_hal_gpio.c ****   [..]
  51:../../../PY32F002B_Firmware_V1.2.1/PY32F002B_Firmware_V1.2.1/Drivers/PY32F002B_HAL_Driver/Src/py32f002b_hal_gpio.c ****     (#) Enable the GPIO AHB clock using the following function: __HAL_RCC_GPIOx_CLK_ENABLE().
  52:../../../PY32F002B_Firmware_V1.2.1/PY32F002B_Firmware_V1.2.1/Drivers/PY32F002B_HAL_Driver/Src/py32f002b_hal_gpio.c **** 
  53:../../../PY32F002B_Firmware_V1.2.1/PY32F002B_Firmware_V1.2.1/Drivers/PY32F002B_HAL_Driver/Src/py32f002b_hal_gpio.c ****     (#) Configure the GPIO pin(s) using HAL_GPIO_Init().
  54:../../../PY32F002B_Firmware_V1.2.1/PY32F002B_Firmware_V1.2.1/Drivers/PY32F002B_HAL_Driver/Src/py32f002b_hal_gpio.c ****         (++) Configure the IO mode using "Mode" member from GPIO_InitTypeDef structure
  55:../../../PY32F002B_Firmware_V1.2.1/PY32F002B_Firmware_V1.2.1/Drivers/PY32F002B_HAL_Driver/Src/py32f002b_hal_gpio.c ****         (++) Activate Pull-up, Pull-down resistor using "Pull" member from GPIO_InitTypeDef
  56:../../../PY32F002B_Firmware_V1.2.1/PY32F002B_Firmware_V1.2.1/Drivers/PY32F002B_HAL_Driver/Src/py32f002b_hal_gpio.c ****              structure.
  57:../../../PY32F002B_Firmware_V1.2.1/PY32F002B_Firmware_V1.2.1/Drivers/PY32F002B_HAL_Driver/Src/py32f002b_hal_gpio.c ****         (++) In case of Output or alternate function mode selection: the speed is
  58:../../../PY32F002B_Firmware_V1.2.1/PY32F002B_Firmware_V1.2.1/Drivers/PY32F002B_HAL_Driver/Src/py32f002b_hal_gpio.c ****              configured through "Speed" member from GPIO_InitTypeDef structure.
  59:../../../PY32F002B_Firmware_V1.2.1/PY32F002B_Firmware_V1.2.1/Drivers/PY32F002B_HAL_Driver/Src/py32f002b_hal_gpio.c ****         (++) In alternate mode is selection, the alternate function connected to the IO
  60:../../../PY32F002B_Firmware_V1.2.1/PY32F002B_Firmware_V1.2.1/Drivers/PY32F002B_HAL_Driver/Src/py32f002b_hal_gpio.c ****              is configured through "Alternate" member from GPIO_InitTypeDef structure.
  61:../../../PY32F002B_Firmware_V1.2.1/PY32F002B_Firmware_V1.2.1/Drivers/PY32F002B_HAL_Driver/Src/py32f002b_hal_gpio.c ****         (++) Analog mode is required when a pin is to be used as ADC channel
  62:../../../PY32F002B_Firmware_V1.2.1/PY32F002B_Firmware_V1.2.1/Drivers/PY32F002B_HAL_Driver/Src/py32f002b_hal_gpio.c ****              or DAC output.
  63:../../../PY32F002B_Firmware_V1.2.1/PY32F002B_Firmware_V1.2.1/Drivers/PY32F002B_HAL_Driver/Src/py32f002b_hal_gpio.c ****         (++) In case of external interrupt/event selection the "Mode" member from
  64:../../../PY32F002B_Firmware_V1.2.1/PY32F002B_Firmware_V1.2.1/Drivers/PY32F002B_HAL_Driver/Src/py32f002b_hal_gpio.c ****              GPIO_InitTypeDef structure select the type (interrupt or event) and
  65:../../../PY32F002B_Firmware_V1.2.1/PY32F002B_Firmware_V1.2.1/Drivers/PY32F002B_HAL_Driver/Src/py32f002b_hal_gpio.c ****              the corresponding trigger event (rising or falling or both).
  66:../../../PY32F002B_Firmware_V1.2.1/PY32F002B_Firmware_V1.2.1/Drivers/PY32F002B_HAL_Driver/Src/py32f002b_hal_gpio.c **** 
  67:../../../PY32F002B_Firmware_V1.2.1/PY32F002B_Firmware_V1.2.1/Drivers/PY32F002B_HAL_Driver/Src/py32f002b_hal_gpio.c ****     (#) In case of external interrupt/event mode selection, configure NVIC IRQ priority
  68:../../../PY32F002B_Firmware_V1.2.1/PY32F002B_Firmware_V1.2.1/Drivers/PY32F002B_HAL_Driver/Src/py32f002b_hal_gpio.c ****         mapped to the EXTI line using HAL_NVIC_SetPriority() and enable it using
  69:../../../PY32F002B_Firmware_V1.2.1/PY32F002B_Firmware_V1.2.1/Drivers/PY32F002B_HAL_Driver/Src/py32f002b_hal_gpio.c ****         HAL_NVIC_EnableIRQ().
  70:../../../PY32F002B_Firmware_V1.2.1/PY32F002B_Firmware_V1.2.1/Drivers/PY32F002B_HAL_Driver/Src/py32f002b_hal_gpio.c **** 
  71:../../../PY32F002B_Firmware_V1.2.1/PY32F002B_Firmware_V1.2.1/Drivers/PY32F002B_HAL_Driver/Src/py32f002b_hal_gpio.c ****     (#) To get the level of a pin configured in input mode use HAL_GPIO_ReadPin().
  72:../../../PY32F002B_Firmware_V1.2.1/PY32F002B_Firmware_V1.2.1/Drivers/PY32F002B_HAL_Driver/Src/py32f002b_hal_gpio.c **** 
  73:../../../PY32F002B_Firmware_V1.2.1/PY32F002B_Firmware_V1.2.1/Drivers/PY32F002B_HAL_Driver/Src/py32f002b_hal_gpio.c ****     (#) To set/reset the level of a pin configured in output mode use
  74:../../../PY32F002B_Firmware_V1.2.1/PY32F002B_Firmware_V1.2.1/Drivers/PY32F002B_HAL_Driver/Src/py32f002b_hal_gpio.c ****         HAL_GPIO_WritePin()/HAL_GPIO_TogglePin().
  75:../../../PY32F002B_Firmware_V1.2.1/PY32F002B_Firmware_V1.2.1/Drivers/PY32F002B_HAL_Driver/Src/py32f002b_hal_gpio.c **** 
  76:../../../PY32F002B_Firmware_V1.2.1/PY32F002B_Firmware_V1.2.1/Drivers/PY32F002B_HAL_Driver/Src/py32f002b_hal_gpio.c ****     (#) To lock pin configuration until next reset use HAL_GPIO_LockPin().
  77:../../../PY32F002B_Firmware_V1.2.1/PY32F002B_Firmware_V1.2.1/Drivers/PY32F002B_HAL_Driver/Src/py32f002b_hal_gpio.c **** 
  78:../../../PY32F002B_Firmware_V1.2.1/PY32F002B_Firmware_V1.2.1/Drivers/PY32F002B_HAL_Driver/Src/py32f002b_hal_gpio.c ****     (#) During and just after reset, the alternate functions are not
  79:../../../PY32F002B_Firmware_V1.2.1/PY32F002B_Firmware_V1.2.1/Drivers/PY32F002B_HAL_Driver/Src/py32f002b_hal_gpio.c ****         active and the GPIO pins are configured in input floating mode (except JTAG
  80:../../../PY32F002B_Firmware_V1.2.1/PY32F002B_Firmware_V1.2.1/Drivers/PY32F002B_HAL_Driver/Src/py32f002b_hal_gpio.c ****         pins).
  81:../../../PY32F002B_Firmware_V1.2.1/PY32F002B_Firmware_V1.2.1/Drivers/PY32F002B_HAL_Driver/Src/py32f002b_hal_gpio.c **** 
  82:../../../PY32F002B_Firmware_V1.2.1/PY32F002B_Firmware_V1.2.1/Drivers/PY32F002B_HAL_Driver/Src/py32f002b_hal_gpio.c ****     (#) The LSE oscillator pins OSC32_IN and OSC32_OUT can be used as general purpose
  83:../../../PY32F002B_Firmware_V1.2.1/PY32F002B_Firmware_V1.2.1/Drivers/PY32F002B_HAL_Driver/Src/py32f002b_hal_gpio.c ****         when the LSE oscillator is off. The LSE has priority over the GPIO function.
  84:../../../PY32F002B_Firmware_V1.2.1/PY32F002B_Firmware_V1.2.1/Drivers/PY32F002B_HAL_Driver/Src/py32f002b_hal_gpio.c **** 
  85:../../../PY32F002B_Firmware_V1.2.1/PY32F002B_Firmware_V1.2.1/Drivers/PY32F002B_HAL_Driver/Src/py32f002b_hal_gpio.c ****     (#) The HSE oscillator pins OSC_IN/OSC_OUT can be used as
  86:../../../PY32F002B_Firmware_V1.2.1/PY32F002B_Firmware_V1.2.1/Drivers/PY32F002B_HAL_Driver/Src/py32f002b_hal_gpio.c ****         general purpose PF0 and PF1, respectively, when the HSE oscillator is off.
  87:../../../PY32F002B_Firmware_V1.2.1/PY32F002B_Firmware_V1.2.1/Drivers/PY32F002B_HAL_Driver/Src/py32f002b_hal_gpio.c ****         The HSE has priority over the GPIO function.
  88:../../../PY32F002B_Firmware_V1.2.1/PY32F002B_Firmware_V1.2.1/Drivers/PY32F002B_HAL_Driver/Src/py32f002b_hal_gpio.c **** 
ARM GAS  C:\Users\Gautam\AppData\Local\Temp\cc6Hfolp.s 			page 3


  89:../../../PY32F002B_Firmware_V1.2.1/PY32F002B_Firmware_V1.2.1/Drivers/PY32F002B_HAL_Driver/Src/py32f002b_hal_gpio.c ****   @endverbatim
  90:../../../PY32F002B_Firmware_V1.2.1/PY32F002B_Firmware_V1.2.1/Drivers/PY32F002B_HAL_Driver/Src/py32f002b_hal_gpio.c ****   ******************************************************************************
  91:../../../PY32F002B_Firmware_V1.2.1/PY32F002B_Firmware_V1.2.1/Drivers/PY32F002B_HAL_Driver/Src/py32f002b_hal_gpio.c **** 
  92:../../../PY32F002B_Firmware_V1.2.1/PY32F002B_Firmware_V1.2.1/Drivers/PY32F002B_HAL_Driver/Src/py32f002b_hal_gpio.c ****   *
  93:../../../PY32F002B_Firmware_V1.2.1/PY32F002B_Firmware_V1.2.1/Drivers/PY32F002B_HAL_Driver/Src/py32f002b_hal_gpio.c ****   ******************************************************************************
  94:../../../PY32F002B_Firmware_V1.2.1/PY32F002B_Firmware_V1.2.1/Drivers/PY32F002B_HAL_Driver/Src/py32f002b_hal_gpio.c ****   * @attention
  95:../../../PY32F002B_Firmware_V1.2.1/PY32F002B_Firmware_V1.2.1/Drivers/PY32F002B_HAL_Driver/Src/py32f002b_hal_gpio.c ****   *
  96:../../../PY32F002B_Firmware_V1.2.1/PY32F002B_Firmware_V1.2.1/Drivers/PY32F002B_HAL_Driver/Src/py32f002b_hal_gpio.c ****   * <h2><center>&copy; Copyright (c) 2023 Puya Semiconductor Co.
  97:../../../PY32F002B_Firmware_V1.2.1/PY32F002B_Firmware_V1.2.1/Drivers/PY32F002B_HAL_Driver/Src/py32f002b_hal_gpio.c ****   * All rights reserved.</center></h2>
  98:../../../PY32F002B_Firmware_V1.2.1/PY32F002B_Firmware_V1.2.1/Drivers/PY32F002B_HAL_Driver/Src/py32f002b_hal_gpio.c ****   *
  99:../../../PY32F002B_Firmware_V1.2.1/PY32F002B_Firmware_V1.2.1/Drivers/PY32F002B_HAL_Driver/Src/py32f002b_hal_gpio.c ****   * This software component is licensed by Puya under BSD 3-Clause license,
 100:../../../PY32F002B_Firmware_V1.2.1/PY32F002B_Firmware_V1.2.1/Drivers/PY32F002B_HAL_Driver/Src/py32f002b_hal_gpio.c ****   * the "License"; You may not use this file except in compliance with the
 101:../../../PY32F002B_Firmware_V1.2.1/PY32F002B_Firmware_V1.2.1/Drivers/PY32F002B_HAL_Driver/Src/py32f002b_hal_gpio.c ****   * License. You may obtain a copy of the License at:
 102:../../../PY32F002B_Firmware_V1.2.1/PY32F002B_Firmware_V1.2.1/Drivers/PY32F002B_HAL_Driver/Src/py32f002b_hal_gpio.c ****   *                        opensource.org/licenses/BSD-3-Clause
 103:../../../PY32F002B_Firmware_V1.2.1/PY32F002B_Firmware_V1.2.1/Drivers/PY32F002B_HAL_Driver/Src/py32f002b_hal_gpio.c ****   *
 104:../../../PY32F002B_Firmware_V1.2.1/PY32F002B_Firmware_V1.2.1/Drivers/PY32F002B_HAL_Driver/Src/py32f002b_hal_gpio.c ****   ******************************************************************************
 105:../../../PY32F002B_Firmware_V1.2.1/PY32F002B_Firmware_V1.2.1/Drivers/PY32F002B_HAL_Driver/Src/py32f002b_hal_gpio.c ****   * @attention
 106:../../../PY32F002B_Firmware_V1.2.1/PY32F002B_Firmware_V1.2.1/Drivers/PY32F002B_HAL_Driver/Src/py32f002b_hal_gpio.c ****   *
 107:../../../PY32F002B_Firmware_V1.2.1/PY32F002B_Firmware_V1.2.1/Drivers/PY32F002B_HAL_Driver/Src/py32f002b_hal_gpio.c ****   * <h2><center>&copy; Copyright (c) 2016 STMicroelectronics.
 108:../../../PY32F002B_Firmware_V1.2.1/PY32F002B_Firmware_V1.2.1/Drivers/PY32F002B_HAL_Driver/Src/py32f002b_hal_gpio.c ****   * All rights reserved.</center></h2>
 109:../../../PY32F002B_Firmware_V1.2.1/PY32F002B_Firmware_V1.2.1/Drivers/PY32F002B_HAL_Driver/Src/py32f002b_hal_gpio.c ****   *
 110:../../../PY32F002B_Firmware_V1.2.1/PY32F002B_Firmware_V1.2.1/Drivers/PY32F002B_HAL_Driver/Src/py32f002b_hal_gpio.c ****   * This software component is licensed by ST under BSD 3-Clause license,
 111:../../../PY32F002B_Firmware_V1.2.1/PY32F002B_Firmware_V1.2.1/Drivers/PY32F002B_HAL_Driver/Src/py32f002b_hal_gpio.c ****   * the "License"; You may not use this file except in compliance with the
 112:../../../PY32F002B_Firmware_V1.2.1/PY32F002B_Firmware_V1.2.1/Drivers/PY32F002B_HAL_Driver/Src/py32f002b_hal_gpio.c ****   * License. You may obtain a copy of the License at:
 113:../../../PY32F002B_Firmware_V1.2.1/PY32F002B_Firmware_V1.2.1/Drivers/PY32F002B_HAL_Driver/Src/py32f002b_hal_gpio.c ****   *                        opensource.org/licenses/BSD-3-Clause
 114:../../../PY32F002B_Firmware_V1.2.1/PY32F002B_Firmware_V1.2.1/Drivers/PY32F002B_HAL_Driver/Src/py32f002b_hal_gpio.c ****   *
 115:../../../PY32F002B_Firmware_V1.2.1/PY32F002B_Firmware_V1.2.1/Drivers/PY32F002B_HAL_Driver/Src/py32f002b_hal_gpio.c ****   ******************************************************************************
 116:../../../PY32F002B_Firmware_V1.2.1/PY32F002B_Firmware_V1.2.1/Drivers/PY32F002B_HAL_Driver/Src/py32f002b_hal_gpio.c ****   */
 117:../../../PY32F002B_Firmware_V1.2.1/PY32F002B_Firmware_V1.2.1/Drivers/PY32F002B_HAL_Driver/Src/py32f002b_hal_gpio.c **** 
 118:../../../PY32F002B_Firmware_V1.2.1/PY32F002B_Firmware_V1.2.1/Drivers/PY32F002B_HAL_Driver/Src/py32f002b_hal_gpio.c **** /* Includes ------------------------------------------------------------------*/
 119:../../../PY32F002B_Firmware_V1.2.1/PY32F002B_Firmware_V1.2.1/Drivers/PY32F002B_HAL_Driver/Src/py32f002b_hal_gpio.c **** #include "py32f0xx_hal.h"
 120:../../../PY32F002B_Firmware_V1.2.1/PY32F002B_Firmware_V1.2.1/Drivers/PY32F002B_HAL_Driver/Src/py32f002b_hal_gpio.c **** 
 121:../../../PY32F002B_Firmware_V1.2.1/PY32F002B_Firmware_V1.2.1/Drivers/PY32F002B_HAL_Driver/Src/py32f002b_hal_gpio.c **** /** @addtogroup PY32F002B_HAL_Driver
 122:../../../PY32F002B_Firmware_V1.2.1/PY32F002B_Firmware_V1.2.1/Drivers/PY32F002B_HAL_Driver/Src/py32f002b_hal_gpio.c ****   * @{
 123:../../../PY32F002B_Firmware_V1.2.1/PY32F002B_Firmware_V1.2.1/Drivers/PY32F002B_HAL_Driver/Src/py32f002b_hal_gpio.c ****   */
 124:../../../PY32F002B_Firmware_V1.2.1/PY32F002B_Firmware_V1.2.1/Drivers/PY32F002B_HAL_Driver/Src/py32f002b_hal_gpio.c **** 
 125:../../../PY32F002B_Firmware_V1.2.1/PY32F002B_Firmware_V1.2.1/Drivers/PY32F002B_HAL_Driver/Src/py32f002b_hal_gpio.c **** /** @addtogroup GPIO
 126:../../../PY32F002B_Firmware_V1.2.1/PY32F002B_Firmware_V1.2.1/Drivers/PY32F002B_HAL_Driver/Src/py32f002b_hal_gpio.c ****   * @{
 127:../../../PY32F002B_Firmware_V1.2.1/PY32F002B_Firmware_V1.2.1/Drivers/PY32F002B_HAL_Driver/Src/py32f002b_hal_gpio.c ****   */
 128:../../../PY32F002B_Firmware_V1.2.1/PY32F002B_Firmware_V1.2.1/Drivers/PY32F002B_HAL_Driver/Src/py32f002b_hal_gpio.c **** /** MISRA C:2012 deviation rule has been granted for following rules:
 129:../../../PY32F002B_Firmware_V1.2.1/PY32F002B_Firmware_V1.2.1/Drivers/PY32F002B_HAL_Driver/Src/py32f002b_hal_gpio.c ****   * Rule-12.2 - Medium: RHS argument is in interval [0,INF] which is out of
 130:../../../PY32F002B_Firmware_V1.2.1/PY32F002B_Firmware_V1.2.1/Drivers/PY32F002B_HAL_Driver/Src/py32f002b_hal_gpio.c ****   * range of the shift operator in following API :
 131:../../../PY32F002B_Firmware_V1.2.1/PY32F002B_Firmware_V1.2.1/Drivers/PY32F002B_HAL_Driver/Src/py32f002b_hal_gpio.c ****   * HAL_GPIO_Init
 132:../../../PY32F002B_Firmware_V1.2.1/PY32F002B_Firmware_V1.2.1/Drivers/PY32F002B_HAL_Driver/Src/py32f002b_hal_gpio.c ****   * HAL_GPIO_DeInit
 133:../../../PY32F002B_Firmware_V1.2.1/PY32F002B_Firmware_V1.2.1/Drivers/PY32F002B_HAL_Driver/Src/py32f002b_hal_gpio.c ****   */
 134:../../../PY32F002B_Firmware_V1.2.1/PY32F002B_Firmware_V1.2.1/Drivers/PY32F002B_HAL_Driver/Src/py32f002b_hal_gpio.c **** 
 135:../../../PY32F002B_Firmware_V1.2.1/PY32F002B_Firmware_V1.2.1/Drivers/PY32F002B_HAL_Driver/Src/py32f002b_hal_gpio.c **** #ifdef HAL_GPIO_MODULE_ENABLED
 136:../../../PY32F002B_Firmware_V1.2.1/PY32F002B_Firmware_V1.2.1/Drivers/PY32F002B_HAL_Driver/Src/py32f002b_hal_gpio.c **** 
 137:../../../PY32F002B_Firmware_V1.2.1/PY32F002B_Firmware_V1.2.1/Drivers/PY32F002B_HAL_Driver/Src/py32f002b_hal_gpio.c **** /* Private typedef -----------------------------------------------------------*/
 138:../../../PY32F002B_Firmware_V1.2.1/PY32F002B_Firmware_V1.2.1/Drivers/PY32F002B_HAL_Driver/Src/py32f002b_hal_gpio.c **** /* Private defines ------------------------------------------------------------*/
 139:../../../PY32F002B_Firmware_V1.2.1/PY32F002B_Firmware_V1.2.1/Drivers/PY32F002B_HAL_Driver/Src/py32f002b_hal_gpio.c **** /** @defgroup GPIO_Private_Constants GPIO Private Constants
 140:../../../PY32F002B_Firmware_V1.2.1/PY32F002B_Firmware_V1.2.1/Drivers/PY32F002B_HAL_Driver/Src/py32f002b_hal_gpio.c ****   * @{
 141:../../../PY32F002B_Firmware_V1.2.1/PY32F002B_Firmware_V1.2.1/Drivers/PY32F002B_HAL_Driver/Src/py32f002b_hal_gpio.c ****   */
 142:../../../PY32F002B_Firmware_V1.2.1/PY32F002B_Firmware_V1.2.1/Drivers/PY32F002B_HAL_Driver/Src/py32f002b_hal_gpio.c **** #define GPIO_MODE             (0x00000003u)
 143:../../../PY32F002B_Firmware_V1.2.1/PY32F002B_Firmware_V1.2.1/Drivers/PY32F002B_HAL_Driver/Src/py32f002b_hal_gpio.c **** #define EXTI_MODE             (0x10000000u)
 144:../../../PY32F002B_Firmware_V1.2.1/PY32F002B_Firmware_V1.2.1/Drivers/PY32F002B_HAL_Driver/Src/py32f002b_hal_gpio.c **** #define GPIO_MODE_IT          (0x00010000u)
 145:../../../PY32F002B_Firmware_V1.2.1/PY32F002B_Firmware_V1.2.1/Drivers/PY32F002B_HAL_Driver/Src/py32f002b_hal_gpio.c **** #define GPIO_MODE_EVT         (0x00020000u)
ARM GAS  C:\Users\Gautam\AppData\Local\Temp\cc6Hfolp.s 			page 4


 146:../../../PY32F002B_Firmware_V1.2.1/PY32F002B_Firmware_V1.2.1/Drivers/PY32F002B_HAL_Driver/Src/py32f002b_hal_gpio.c **** #define RISING_EDGE           (0x00100000u)
 147:../../../PY32F002B_Firmware_V1.2.1/PY32F002B_Firmware_V1.2.1/Drivers/PY32F002B_HAL_Driver/Src/py32f002b_hal_gpio.c **** #define FALLING_EDGE          (0x00200000u)
 148:../../../PY32F002B_Firmware_V1.2.1/PY32F002B_Firmware_V1.2.1/Drivers/PY32F002B_HAL_Driver/Src/py32f002b_hal_gpio.c **** #define GPIO_OUTPUT_TYPE      (0x00000010u)
 149:../../../PY32F002B_Firmware_V1.2.1/PY32F002B_Firmware_V1.2.1/Drivers/PY32F002B_HAL_Driver/Src/py32f002b_hal_gpio.c **** 
 150:../../../PY32F002B_Firmware_V1.2.1/PY32F002B_Firmware_V1.2.1/Drivers/PY32F002B_HAL_Driver/Src/py32f002b_hal_gpio.c **** #define GPIO_NUMBER           (16u)
 151:../../../PY32F002B_Firmware_V1.2.1/PY32F002B_Firmware_V1.2.1/Drivers/PY32F002B_HAL_Driver/Src/py32f002b_hal_gpio.c **** /**
 152:../../../PY32F002B_Firmware_V1.2.1/PY32F002B_Firmware_V1.2.1/Drivers/PY32F002B_HAL_Driver/Src/py32f002b_hal_gpio.c ****   * @}
 153:../../../PY32F002B_Firmware_V1.2.1/PY32F002B_Firmware_V1.2.1/Drivers/PY32F002B_HAL_Driver/Src/py32f002b_hal_gpio.c ****   */
 154:../../../PY32F002B_Firmware_V1.2.1/PY32F002B_Firmware_V1.2.1/Drivers/PY32F002B_HAL_Driver/Src/py32f002b_hal_gpio.c **** 
 155:../../../PY32F002B_Firmware_V1.2.1/PY32F002B_Firmware_V1.2.1/Drivers/PY32F002B_HAL_Driver/Src/py32f002b_hal_gpio.c **** #define __GPIO_LOCK_KEY_Msk   (0x00010000U)
 156:../../../PY32F002B_Firmware_V1.2.1/PY32F002B_Firmware_V1.2.1/Drivers/PY32F002B_HAL_Driver/Src/py32f002b_hal_gpio.c **** /* Private macros ------------------------------------------------------------*/
 157:../../../PY32F002B_Firmware_V1.2.1/PY32F002B_Firmware_V1.2.1/Drivers/PY32F002B_HAL_Driver/Src/py32f002b_hal_gpio.c **** /* Private variables ---------------------------------------------------------*/
 158:../../../PY32F002B_Firmware_V1.2.1/PY32F002B_Firmware_V1.2.1/Drivers/PY32F002B_HAL_Driver/Src/py32f002b_hal_gpio.c **** /* Private function prototypes -----------------------------------------------*/
 159:../../../PY32F002B_Firmware_V1.2.1/PY32F002B_Firmware_V1.2.1/Drivers/PY32F002B_HAL_Driver/Src/py32f002b_hal_gpio.c **** /* Exported functions --------------------------------------------------------*/
 160:../../../PY32F002B_Firmware_V1.2.1/PY32F002B_Firmware_V1.2.1/Drivers/PY32F002B_HAL_Driver/Src/py32f002b_hal_gpio.c **** 
 161:../../../PY32F002B_Firmware_V1.2.1/PY32F002B_Firmware_V1.2.1/Drivers/PY32F002B_HAL_Driver/Src/py32f002b_hal_gpio.c **** /** @addtogroup GPIO_Exported_Functions
 162:../../../PY32F002B_Firmware_V1.2.1/PY32F002B_Firmware_V1.2.1/Drivers/PY32F002B_HAL_Driver/Src/py32f002b_hal_gpio.c ****   * @{
 163:../../../PY32F002B_Firmware_V1.2.1/PY32F002B_Firmware_V1.2.1/Drivers/PY32F002B_HAL_Driver/Src/py32f002b_hal_gpio.c ****   */
 164:../../../PY32F002B_Firmware_V1.2.1/PY32F002B_Firmware_V1.2.1/Drivers/PY32F002B_HAL_Driver/Src/py32f002b_hal_gpio.c **** 
 165:../../../PY32F002B_Firmware_V1.2.1/PY32F002B_Firmware_V1.2.1/Drivers/PY32F002B_HAL_Driver/Src/py32f002b_hal_gpio.c **** /** @addtogroup GPIO_Exported_Functions_Group1
 166:../../../PY32F002B_Firmware_V1.2.1/PY32F002B_Firmware_V1.2.1/Drivers/PY32F002B_HAL_Driver/Src/py32f002b_hal_gpio.c ****  *  @brief    Initialization and Configuration functions
 167:../../../PY32F002B_Firmware_V1.2.1/PY32F002B_Firmware_V1.2.1/Drivers/PY32F002B_HAL_Driver/Src/py32f002b_hal_gpio.c ****  *
 168:../../../PY32F002B_Firmware_V1.2.1/PY32F002B_Firmware_V1.2.1/Drivers/PY32F002B_HAL_Driver/Src/py32f002b_hal_gpio.c **** @verbatim
 169:../../../PY32F002B_Firmware_V1.2.1/PY32F002B_Firmware_V1.2.1/Drivers/PY32F002B_HAL_Driver/Src/py32f002b_hal_gpio.c ****  ===============================================================================
 170:../../../PY32F002B_Firmware_V1.2.1/PY32F002B_Firmware_V1.2.1/Drivers/PY32F002B_HAL_Driver/Src/py32f002b_hal_gpio.c ****               ##### Initialization and de-initialization functions #####
 171:../../../PY32F002B_Firmware_V1.2.1/PY32F002B_Firmware_V1.2.1/Drivers/PY32F002B_HAL_Driver/Src/py32f002b_hal_gpio.c ****  ===============================================================================
 172:../../../PY32F002B_Firmware_V1.2.1/PY32F002B_Firmware_V1.2.1/Drivers/PY32F002B_HAL_Driver/Src/py32f002b_hal_gpio.c **** 
 173:../../../PY32F002B_Firmware_V1.2.1/PY32F002B_Firmware_V1.2.1/Drivers/PY32F002B_HAL_Driver/Src/py32f002b_hal_gpio.c **** @endverbatim
 174:../../../PY32F002B_Firmware_V1.2.1/PY32F002B_Firmware_V1.2.1/Drivers/PY32F002B_HAL_Driver/Src/py32f002b_hal_gpio.c ****   * @{
 175:../../../PY32F002B_Firmware_V1.2.1/PY32F002B_Firmware_V1.2.1/Drivers/PY32F002B_HAL_Driver/Src/py32f002b_hal_gpio.c ****   */
 176:../../../PY32F002B_Firmware_V1.2.1/PY32F002B_Firmware_V1.2.1/Drivers/PY32F002B_HAL_Driver/Src/py32f002b_hal_gpio.c **** 
 177:../../../PY32F002B_Firmware_V1.2.1/PY32F002B_Firmware_V1.2.1/Drivers/PY32F002B_HAL_Driver/Src/py32f002b_hal_gpio.c **** /**
 178:../../../PY32F002B_Firmware_V1.2.1/PY32F002B_Firmware_V1.2.1/Drivers/PY32F002B_HAL_Driver/Src/py32f002b_hal_gpio.c ****   * @brief  Initialize the GPIOx peripheral according to the specified parameters in the GPIO_Init.
 179:../../../PY32F002B_Firmware_V1.2.1/PY32F002B_Firmware_V1.2.1/Drivers/PY32F002B_HAL_Driver/Src/py32f002b_hal_gpio.c ****   * @param  GPIOx where x can be (A..C) to select the GPIO peripheral for PY32F002B family
 180:../../../PY32F002B_Firmware_V1.2.1/PY32F002B_Firmware_V1.2.1/Drivers/PY32F002B_HAL_Driver/Src/py32f002b_hal_gpio.c ****   * @param  GPIO_Init pointer to a GPIO_InitTypeDef structure that contains
 181:../../../PY32F002B_Firmware_V1.2.1/PY32F002B_Firmware_V1.2.1/Drivers/PY32F002B_HAL_Driver/Src/py32f002b_hal_gpio.c ****   *         the configuration information for the specified GPIO peripheral.
 182:../../../PY32F002B_Firmware_V1.2.1/PY32F002B_Firmware_V1.2.1/Drivers/PY32F002B_HAL_Driver/Src/py32f002b_hal_gpio.c ****   * @retval None
 183:../../../PY32F002B_Firmware_V1.2.1/PY32F002B_Firmware_V1.2.1/Drivers/PY32F002B_HAL_Driver/Src/py32f002b_hal_gpio.c ****   */
 184:../../../PY32F002B_Firmware_V1.2.1/PY32F002B_Firmware_V1.2.1/Drivers/PY32F002B_HAL_Driver/Src/py32f002b_hal_gpio.c **** void HAL_GPIO_Init(GPIO_TypeDef  *GPIOx, GPIO_InitTypeDef *GPIO_Init)
 185:../../../PY32F002B_Firmware_V1.2.1/PY32F002B_Firmware_V1.2.1/Drivers/PY32F002B_HAL_Driver/Src/py32f002b_hal_gpio.c **** {
  28              		.loc 1 185 1 view -0
  29              		.cfi_startproc
  30              		@ args = 0, pretend = 0, frame = 0
  31              		@ frame_needed = 0, uses_anonymous_args = 0
  32              		.loc 1 185 1 is_stmt 0 view .LVU1
  33 0000 F0B5     		push	{r4, r5, r6, r7, lr}
  34              	.LCFI0:
  35              		.cfi_def_cfa_offset 20
  36              		.cfi_offset 4, -20
  37              		.cfi_offset 5, -16
  38              		.cfi_offset 6, -12
  39              		.cfi_offset 7, -8
  40              		.cfi_offset 14, -4
  41 0002 D646     		mov	lr, r10
  42 0004 4F46     		mov	r7, r9
  43 0006 4646     		mov	r6, r8
  44 0008 C0B5     		push	{r6, r7, lr}
ARM GAS  C:\Users\Gautam\AppData\Local\Temp\cc6Hfolp.s 			page 5


  45              	.LCFI1:
  46              		.cfi_def_cfa_offset 32
  47              		.cfi_offset 8, -32
  48              		.cfi_offset 9, -28
  49              		.cfi_offset 10, -24
 186:../../../PY32F002B_Firmware_V1.2.1/PY32F002B_Firmware_V1.2.1/Drivers/PY32F002B_HAL_Driver/Src/py32f002b_hal_gpio.c ****   uint32_t position = 0x00u;
  50              		.loc 1 186 3 is_stmt 1 view .LVU2
  51              	.LVL1:
 187:../../../PY32F002B_Firmware_V1.2.1/PY32F002B_Firmware_V1.2.1/Drivers/PY32F002B_HAL_Driver/Src/py32f002b_hal_gpio.c ****   uint32_t iocurrent;
  52              		.loc 1 187 3 view .LVU3
 188:../../../PY32F002B_Firmware_V1.2.1/PY32F002B_Firmware_V1.2.1/Drivers/PY32F002B_HAL_Driver/Src/py32f002b_hal_gpio.c ****   uint32_t temp;
  53              		.loc 1 188 3 view .LVU4
 189:../../../PY32F002B_Firmware_V1.2.1/PY32F002B_Firmware_V1.2.1/Drivers/PY32F002B_HAL_Driver/Src/py32f002b_hal_gpio.c **** 
 190:../../../PY32F002B_Firmware_V1.2.1/PY32F002B_Firmware_V1.2.1/Drivers/PY32F002B_HAL_Driver/Src/py32f002b_hal_gpio.c ****   /* Check the parameters */
 191:../../../PY32F002B_Firmware_V1.2.1/PY32F002B_Firmware_V1.2.1/Drivers/PY32F002B_HAL_Driver/Src/py32f002b_hal_gpio.c ****   assert_param(IS_GPIO_ALL_INSTANCE(GPIOx));
  54              		.loc 1 191 3 view .LVU5
 192:../../../PY32F002B_Firmware_V1.2.1/PY32F002B_Firmware_V1.2.1/Drivers/PY32F002B_HAL_Driver/Src/py32f002b_hal_gpio.c ****   assert_param(IS_GPIO_PIN(GPIO_Init->Pin));
  55              		.loc 1 192 3 view .LVU6
 193:../../../PY32F002B_Firmware_V1.2.1/PY32F002B_Firmware_V1.2.1/Drivers/PY32F002B_HAL_Driver/Src/py32f002b_hal_gpio.c ****   assert_param(IS_GPIO_MODE(GPIO_Init->Mode));
  56              		.loc 1 193 3 view .LVU7
 194:../../../PY32F002B_Firmware_V1.2.1/PY32F002B_Firmware_V1.2.1/Drivers/PY32F002B_HAL_Driver/Src/py32f002b_hal_gpio.c ****   assert_param(IS_GPIO_PULL(GPIO_Init->Pull));
  57              		.loc 1 194 3 view .LVU8
 195:../../../PY32F002B_Firmware_V1.2.1/PY32F002B_Firmware_V1.2.1/Drivers/PY32F002B_HAL_Driver/Src/py32f002b_hal_gpio.c **** 
 196:../../../PY32F002B_Firmware_V1.2.1/PY32F002B_Firmware_V1.2.1/Drivers/PY32F002B_HAL_Driver/Src/py32f002b_hal_gpio.c ****   /* Configure the port pins */
 197:../../../PY32F002B_Firmware_V1.2.1/PY32F002B_Firmware_V1.2.1/Drivers/PY32F002B_HAL_Driver/Src/py32f002b_hal_gpio.c ****   while (((GPIO_Init->Pin) >> position) != 0x00u)
  58              		.loc 1 197 3 view .LVU9
 186:../../../PY32F002B_Firmware_V1.2.1/PY32F002B_Firmware_V1.2.1/Drivers/PY32F002B_HAL_Driver/Src/py32f002b_hal_gpio.c ****   uint32_t iocurrent;
  59              		.loc 1 186 12 is_stmt 0 view .LVU10
  60 000a 0023     		movs	r3, #0
  61              		.loc 1 197 9 view .LVU11
  62 000c 69E0     		b	.L2
  63              	.LVL2:
  64              	.L6:
 198:../../../PY32F002B_Firmware_V1.2.1/PY32F002B_Firmware_V1.2.1/Drivers/PY32F002B_HAL_Driver/Src/py32f002b_hal_gpio.c ****   {
 199:../../../PY32F002B_Firmware_V1.2.1/PY32F002B_Firmware_V1.2.1/Drivers/PY32F002B_HAL_Driver/Src/py32f002b_hal_gpio.c ****     /* Get current io position */
 200:../../../PY32F002B_Firmware_V1.2.1/PY32F002B_Firmware_V1.2.1/Drivers/PY32F002B_HAL_Driver/Src/py32f002b_hal_gpio.c ****     iocurrent = (GPIO_Init->Pin) & (1uL << position);
 201:../../../PY32F002B_Firmware_V1.2.1/PY32F002B_Firmware_V1.2.1/Drivers/PY32F002B_HAL_Driver/Src/py32f002b_hal_gpio.c **** 
 202:../../../PY32F002B_Firmware_V1.2.1/PY32F002B_Firmware_V1.2.1/Drivers/PY32F002B_HAL_Driver/Src/py32f002b_hal_gpio.c ****     if (iocurrent != 0x00u)
 203:../../../PY32F002B_Firmware_V1.2.1/PY32F002B_Firmware_V1.2.1/Drivers/PY32F002B_HAL_Driver/Src/py32f002b_hal_gpio.c ****     {
 204:../../../PY32F002B_Firmware_V1.2.1/PY32F002B_Firmware_V1.2.1/Drivers/PY32F002B_HAL_Driver/Src/py32f002b_hal_gpio.c ****       /*--------------------- GPIO Mode Configuration ------------------------*/
 205:../../../PY32F002B_Firmware_V1.2.1/PY32F002B_Firmware_V1.2.1/Drivers/PY32F002B_HAL_Driver/Src/py32f002b_hal_gpio.c ****       /* In case of Alternate function mode selection */
 206:../../../PY32F002B_Firmware_V1.2.1/PY32F002B_Firmware_V1.2.1/Drivers/PY32F002B_HAL_Driver/Src/py32f002b_hal_gpio.c ****       if ((GPIO_Init->Mode == GPIO_MODE_AF_PP) || (GPIO_Init->Mode == GPIO_MODE_AF_OD))
 207:../../../PY32F002B_Firmware_V1.2.1/PY32F002B_Firmware_V1.2.1/Drivers/PY32F002B_HAL_Driver/Src/py32f002b_hal_gpio.c ****       {
 208:../../../PY32F002B_Firmware_V1.2.1/PY32F002B_Firmware_V1.2.1/Drivers/PY32F002B_HAL_Driver/Src/py32f002b_hal_gpio.c ****         /* Check the Alternate function parameters */
 209:../../../PY32F002B_Firmware_V1.2.1/PY32F002B_Firmware_V1.2.1/Drivers/PY32F002B_HAL_Driver/Src/py32f002b_hal_gpio.c ****         assert_param(IS_GPIO_AF_INSTANCE(GPIOx));
 210:../../../PY32F002B_Firmware_V1.2.1/PY32F002B_Firmware_V1.2.1/Drivers/PY32F002B_HAL_Driver/Src/py32f002b_hal_gpio.c ****         assert_param(IS_GPIO_AF(GPIO_Init->Alternate));
 211:../../../PY32F002B_Firmware_V1.2.1/PY32F002B_Firmware_V1.2.1/Drivers/PY32F002B_HAL_Driver/Src/py32f002b_hal_gpio.c **** 
 212:../../../PY32F002B_Firmware_V1.2.1/PY32F002B_Firmware_V1.2.1/Drivers/PY32F002B_HAL_Driver/Src/py32f002b_hal_gpio.c ****         /* Configure Alternate function mapped with the current IO */
 213:../../../PY32F002B_Firmware_V1.2.1/PY32F002B_Firmware_V1.2.1/Drivers/PY32F002B_HAL_Driver/Src/py32f002b_hal_gpio.c ****         temp = GPIOx->AFR[position >> 3u];
 214:../../../PY32F002B_Firmware_V1.2.1/PY32F002B_Firmware_V1.2.1/Drivers/PY32F002B_HAL_Driver/Src/py32f002b_hal_gpio.c ****         temp &= ~(0xFu << ((position & 0x07u) * 4u));
 215:../../../PY32F002B_Firmware_V1.2.1/PY32F002B_Firmware_V1.2.1/Drivers/PY32F002B_HAL_Driver/Src/py32f002b_hal_gpio.c ****         temp |= ((GPIO_Init->Alternate) << ((position & 0x07u) * 4u));
 216:../../../PY32F002B_Firmware_V1.2.1/PY32F002B_Firmware_V1.2.1/Drivers/PY32F002B_HAL_Driver/Src/py32f002b_hal_gpio.c ****         GPIOx->AFR[position >> 3u] = temp;
 217:../../../PY32F002B_Firmware_V1.2.1/PY32F002B_Firmware_V1.2.1/Drivers/PY32F002B_HAL_Driver/Src/py32f002b_hal_gpio.c ****       }
 218:../../../PY32F002B_Firmware_V1.2.1/PY32F002B_Firmware_V1.2.1/Drivers/PY32F002B_HAL_Driver/Src/py32f002b_hal_gpio.c **** 
 219:../../../PY32F002B_Firmware_V1.2.1/PY32F002B_Firmware_V1.2.1/Drivers/PY32F002B_HAL_Driver/Src/py32f002b_hal_gpio.c ****       /* Configure IO Direction mode (Input, Output, Alternate or Analog) */
 220:../../../PY32F002B_Firmware_V1.2.1/PY32F002B_Firmware_V1.2.1/Drivers/PY32F002B_HAL_Driver/Src/py32f002b_hal_gpio.c ****       temp = GPIOx->MODER;
 221:../../../PY32F002B_Firmware_V1.2.1/PY32F002B_Firmware_V1.2.1/Drivers/PY32F002B_HAL_Driver/Src/py32f002b_hal_gpio.c ****       temp &= ~(GPIO_MODER_MODE0 << (position * 2u));
ARM GAS  C:\Users\Gautam\AppData\Local\Temp\cc6Hfolp.s 			page 6


 222:../../../PY32F002B_Firmware_V1.2.1/PY32F002B_Firmware_V1.2.1/Drivers/PY32F002B_HAL_Driver/Src/py32f002b_hal_gpio.c ****       temp |= ((GPIO_Init->Mode & GPIO_MODE) << (position * 2u));
 223:../../../PY32F002B_Firmware_V1.2.1/PY32F002B_Firmware_V1.2.1/Drivers/PY32F002B_HAL_Driver/Src/py32f002b_hal_gpio.c ****       GPIOx->MODER = temp;
 224:../../../PY32F002B_Firmware_V1.2.1/PY32F002B_Firmware_V1.2.1/Drivers/PY32F002B_HAL_Driver/Src/py32f002b_hal_gpio.c **** 
 225:../../../PY32F002B_Firmware_V1.2.1/PY32F002B_Firmware_V1.2.1/Drivers/PY32F002B_HAL_Driver/Src/py32f002b_hal_gpio.c ****       /* In case of Output or Alternate function mode selection */
 226:../../../PY32F002B_Firmware_V1.2.1/PY32F002B_Firmware_V1.2.1/Drivers/PY32F002B_HAL_Driver/Src/py32f002b_hal_gpio.c ****       if ((GPIO_Init->Mode == GPIO_MODE_OUTPUT_PP) || (GPIO_Init->Mode == GPIO_MODE_AF_PP) ||
 227:../../../PY32F002B_Firmware_V1.2.1/PY32F002B_Firmware_V1.2.1/Drivers/PY32F002B_HAL_Driver/Src/py32f002b_hal_gpio.c ****           (GPIO_Init->Mode == GPIO_MODE_OUTPUT_OD) || (GPIO_Init->Mode == GPIO_MODE_AF_OD))
 228:../../../PY32F002B_Firmware_V1.2.1/PY32F002B_Firmware_V1.2.1/Drivers/PY32F002B_HAL_Driver/Src/py32f002b_hal_gpio.c ****       {
 229:../../../PY32F002B_Firmware_V1.2.1/PY32F002B_Firmware_V1.2.1/Drivers/PY32F002B_HAL_Driver/Src/py32f002b_hal_gpio.c ****         /* Check the Speed parameter */
 230:../../../PY32F002B_Firmware_V1.2.1/PY32F002B_Firmware_V1.2.1/Drivers/PY32F002B_HAL_Driver/Src/py32f002b_hal_gpio.c ****         assert_param(IS_GPIO_SPEED(GPIO_Init->Speed));
  65              		.loc 1 230 9 is_stmt 1 view .LVU12
 231:../../../PY32F002B_Firmware_V1.2.1/PY32F002B_Firmware_V1.2.1/Drivers/PY32F002B_HAL_Driver/Src/py32f002b_hal_gpio.c ****         /* Configure the IO Speed */
 232:../../../PY32F002B_Firmware_V1.2.1/PY32F002B_Firmware_V1.2.1/Drivers/PY32F002B_HAL_Driver/Src/py32f002b_hal_gpio.c ****         temp = GPIOx->OSPEEDR;
  66              		.loc 1 232 9 view .LVU13
  67              		.loc 1 232 14 is_stmt 0 view .LVU14
  68 000e 8468     		ldr	r4, [r0, #8]
  69              	.LVL3:
 233:../../../PY32F002B_Firmware_V1.2.1/PY32F002B_Firmware_V1.2.1/Drivers/PY32F002B_HAL_Driver/Src/py32f002b_hal_gpio.c ****         temp &= ~(GPIO_OSPEEDR_OSPEED0 << (position * 2u));
  70              		.loc 1 233 9 is_stmt 1 view .LVU15
  71              		.loc 1 233 14 is_stmt 0 view .LVU16
  72 0010 3C40     		ands	r4, r7
  73              	.LVL4:
  74              		.loc 1 233 14 view .LVU17
  75 0012 A446     		mov	ip, r4
  76              	.LVL5:
 234:../../../PY32F002B_Firmware_V1.2.1/PY32F002B_Firmware_V1.2.1/Drivers/PY32F002B_HAL_Driver/Src/py32f002b_hal_gpio.c ****         temp |= (GPIO_Init->Speed << (position * 2u));
  77              		.loc 1 234 9 is_stmt 1 view .LVU18
  78              		.loc 1 234 27 is_stmt 0 view .LVU19
  79 0014 CC68     		ldr	r4, [r1, #12]
  80              	.LVL6:
  81              		.loc 1 234 35 view .LVU20
  82 0016 B440     		lsls	r4, r4, r6
  83              		.loc 1 234 14 view .LVU21
  84 0018 6546     		mov	r5, ip
  85 001a 2C43     		orrs	r4, r5
  86              	.LVL7:
 235:../../../PY32F002B_Firmware_V1.2.1/PY32F002B_Firmware_V1.2.1/Drivers/PY32F002B_HAL_Driver/Src/py32f002b_hal_gpio.c ****         GPIOx->OSPEEDR = temp;
  87              		.loc 1 235 9 is_stmt 1 view .LVU22
  88              		.loc 1 235 24 is_stmt 0 view .LVU23
  89 001c 8460     		str	r4, [r0, #8]
 236:../../../PY32F002B_Firmware_V1.2.1/PY32F002B_Firmware_V1.2.1/Drivers/PY32F002B_HAL_Driver/Src/py32f002b_hal_gpio.c **** 
 237:../../../PY32F002B_Firmware_V1.2.1/PY32F002B_Firmware_V1.2.1/Drivers/PY32F002B_HAL_Driver/Src/py32f002b_hal_gpio.c ****         /* Configure the IO Output Type */
 238:../../../PY32F002B_Firmware_V1.2.1/PY32F002B_Firmware_V1.2.1/Drivers/PY32F002B_HAL_Driver/Src/py32f002b_hal_gpio.c ****         temp = GPIOx->OTYPER;
  90              		.loc 1 238 9 is_stmt 1 view .LVU24
  91              		.loc 1 238 14 is_stmt 0 view .LVU25
  92 001e 4468     		ldr	r4, [r0, #4]
  93              	.LVL8:
 239:../../../PY32F002B_Firmware_V1.2.1/PY32F002B_Firmware_V1.2.1/Drivers/PY32F002B_HAL_Driver/Src/py32f002b_hal_gpio.c ****         temp &= ~(GPIO_OTYPER_OT0 << position) ;
  94              		.loc 1 239 9 is_stmt 1 view .LVU26
  95              		.loc 1 239 14 is_stmt 0 view .LVU27
  96 0020 9443     		bics	r4, r2
  97              	.LVL9:
 240:../../../PY32F002B_Firmware_V1.2.1/PY32F002B_Firmware_V1.2.1/Drivers/PY32F002B_HAL_Driver/Src/py32f002b_hal_gpio.c ****         temp |= (((GPIO_Init->Mode & GPIO_OUTPUT_TYPE) >> 4u) << position);
  98              		.loc 1 240 9 is_stmt 1 view .LVU28
  99              		.loc 1 240 29 is_stmt 0 view .LVU29
 100 0022 4A68     		ldr	r2, [r1, #4]
 101              		.loc 1 240 56 view .LVU30
 102 0024 1209     		lsrs	r2, r2, #4
ARM GAS  C:\Users\Gautam\AppData\Local\Temp\cc6Hfolp.s 			page 7


 103 0026 9446     		mov	ip, r2
 104 0028 0122     		movs	r2, #1
 105 002a 6546     		mov	r5, ip
 106 002c 2A40     		ands	r2, r5
 107              		.loc 1 240 63 view .LVU31
 108 002e 9A40     		lsls	r2, r2, r3
 109              		.loc 1 240 14 view .LVU32
 110 0030 2243     		orrs	r2, r4
 111              	.LVL10:
 241:../../../PY32F002B_Firmware_V1.2.1/PY32F002B_Firmware_V1.2.1/Drivers/PY32F002B_HAL_Driver/Src/py32f002b_hal_gpio.c ****         GPIOx->OTYPER = temp;
 112              		.loc 1 241 9 is_stmt 1 view .LVU33
 113              		.loc 1 241 23 is_stmt 0 view .LVU34
 114 0032 4260     		str	r2, [r0, #4]
 115              	.LVL11:
 116              	.L7:
 242:../../../PY32F002B_Firmware_V1.2.1/PY32F002B_Firmware_V1.2.1/Drivers/PY32F002B_HAL_Driver/Src/py32f002b_hal_gpio.c ****       }
 243:../../../PY32F002B_Firmware_V1.2.1/PY32F002B_Firmware_V1.2.1/Drivers/PY32F002B_HAL_Driver/Src/py32f002b_hal_gpio.c **** 
 244:../../../PY32F002B_Firmware_V1.2.1/PY32F002B_Firmware_V1.2.1/Drivers/PY32F002B_HAL_Driver/Src/py32f002b_hal_gpio.c ****       /* Activate the Pull-up or Pull down resistor for the current IO */
 245:../../../PY32F002B_Firmware_V1.2.1/PY32F002B_Firmware_V1.2.1/Drivers/PY32F002B_HAL_Driver/Src/py32f002b_hal_gpio.c ****       temp = GPIOx->PUPDR;
 117              		.loc 1 245 7 is_stmt 1 view .LVU35
 118              		.loc 1 245 12 is_stmt 0 view .LVU36
 119 0034 C468     		ldr	r4, [r0, #12]
 120              	.LVL12:
 246:../../../PY32F002B_Firmware_V1.2.1/PY32F002B_Firmware_V1.2.1/Drivers/PY32F002B_HAL_Driver/Src/py32f002b_hal_gpio.c ****       temp &= ~(GPIO_PUPDR_PUPD0 << (position * 2u));
 121              		.loc 1 246 7 is_stmt 1 view .LVU37
 122              		.loc 1 246 12 is_stmt 0 view .LVU38
 123 0036 3C40     		ands	r4, r7
 124              	.LVL13:
 247:../../../PY32F002B_Firmware_V1.2.1/PY32F002B_Firmware_V1.2.1/Drivers/PY32F002B_HAL_Driver/Src/py32f002b_hal_gpio.c ****       temp |= ((GPIO_Init->Pull) << (position * 2u));
 125              		.loc 1 247 7 is_stmt 1 view .LVU39
 126              		.loc 1 247 26 is_stmt 0 view .LVU40
 127 0038 8A68     		ldr	r2, [r1, #8]
 128              		.loc 1 247 34 view .LVU41
 129 003a B240     		lsls	r2, r2, r6
 130              		.loc 1 247 12 view .LVU42
 131 003c 2243     		orrs	r2, r4
 132              	.LVL14:
 248:../../../PY32F002B_Firmware_V1.2.1/PY32F002B_Firmware_V1.2.1/Drivers/PY32F002B_HAL_Driver/Src/py32f002b_hal_gpio.c ****       GPIOx->PUPDR = temp;
 133              		.loc 1 248 7 is_stmt 1 view .LVU43
 134              		.loc 1 248 20 is_stmt 0 view .LVU44
 135 003e C260     		str	r2, [r0, #12]
 249:../../../PY32F002B_Firmware_V1.2.1/PY32F002B_Firmware_V1.2.1/Drivers/PY32F002B_HAL_Driver/Src/py32f002b_hal_gpio.c **** 
 250:../../../PY32F002B_Firmware_V1.2.1/PY32F002B_Firmware_V1.2.1/Drivers/PY32F002B_HAL_Driver/Src/py32f002b_hal_gpio.c ****       /*--------------------- EXTI Mode Configuration ------------------------*/
 251:../../../PY32F002B_Firmware_V1.2.1/PY32F002B_Firmware_V1.2.1/Drivers/PY32F002B_HAL_Driver/Src/py32f002b_hal_gpio.c ****       /* Configure the External Interrupt or event for the current IO */
 252:../../../PY32F002B_Firmware_V1.2.1/PY32F002B_Firmware_V1.2.1/Drivers/PY32F002B_HAL_Driver/Src/py32f002b_hal_gpio.c ****       if ((GPIO_Init->Mode & EXTI_MODE) == EXTI_MODE)
 136              		.loc 1 252 7 is_stmt 1 view .LVU45
 137              		.loc 1 252 21 is_stmt 0 view .LVU46
 138 0040 4A68     		ldr	r2, [r1, #4]
 139              	.LVL15:
 140              		.loc 1 252 10 view .LVU47
 141 0042 D200     		lsls	r2, r2, #3
 142 0044 4CD5     		bpl	.L3
 253:../../../PY32F002B_Firmware_V1.2.1/PY32F002B_Firmware_V1.2.1/Drivers/PY32F002B_HAL_Driver/Src/py32f002b_hal_gpio.c ****       {
 254:../../../PY32F002B_Firmware_V1.2.1/PY32F002B_Firmware_V1.2.1/Drivers/PY32F002B_HAL_Driver/Src/py32f002b_hal_gpio.c ****         temp = EXTI->EXTICR[position >> 2u];
 143              		.loc 1 254 9 is_stmt 1 view .LVU48
 144              		.loc 1 254 38 is_stmt 0 view .LVU49
 145 0046 9A08     		lsrs	r2, r3, #2
ARM GAS  C:\Users\Gautam\AppData\Local\Temp\cc6Hfolp.s 			page 8


 146              		.loc 1 254 14 view .LVU50
 147 0048 1400     		movs	r4, r2
 148 004a 1834     		adds	r4, r4, #24
 149 004c A400     		lsls	r4, r4, #2
 150 004e 4A4E     		ldr	r6, .L23
 151 0050 A759     		ldr	r7, [r4, r6]
 152              	.LVL16:
 255:../../../PY32F002B_Firmware_V1.2.1/PY32F002B_Firmware_V1.2.1/Drivers/PY32F002B_HAL_Driver/Src/py32f002b_hal_gpio.c ****         temp &= ~(0x0FuL << (8u * (position & 0x03u)));
 153              		.loc 1 255 9 is_stmt 1 view .LVU51
 154              		.loc 1 255 45 is_stmt 0 view .LVU52
 155 0052 0324     		movs	r4, #3
 156 0054 1C40     		ands	r4, r3
 157              		.loc 1 255 33 view .LVU53
 158 0056 E400     		lsls	r4, r4, #3
 159              		.loc 1 255 26 view .LVU54
 160 0058 0F26     		movs	r6, #15
 161 005a A640     		lsls	r6, r6, r4
 162              		.loc 1 255 14 view .LVU55
 163 005c B743     		bics	r7, r6
 164              	.LVL17:
 256:../../../PY32F002B_Firmware_V1.2.1/PY32F002B_Firmware_V1.2.1/Drivers/PY32F002B_HAL_Driver/Src/py32f002b_hal_gpio.c ****         temp |= (GPIO_GET_INDEX(GPIOx) << (8u * (position & 0x03u)));
 165              		.loc 1 256 9 is_stmt 1 view .LVU56
 166              		.loc 1 256 18 is_stmt 0 view .LVU57
 167 005e A026     		movs	r6, #160
 168 0060 F605     		lsls	r6, r6, #23
 169 0062 B042     		cmp	r0, r6
 170 0064 00D1     		bne	.LCB132
 171 0066 80E0     		b	.L14	@long jump
 172              	.LCB132:
 173              		.loc 1 256 18 discriminator 1 view .LVU58
 174 0068 444E     		ldr	r6, .L23+4
 175 006a B042     		cmp	r0, r6
 176 006c 7BD0     		beq	.L21
 177              		.loc 1 256 18 discriminator 4 view .LVU59
 178 006e 0226     		movs	r6, #2
 179              	.L8:
 180              		.loc 1 256 40 discriminator 8 view .LVU60
 181 0070 A640     		lsls	r6, r6, r4
 182 0072 3400     		movs	r4, r6
 183              		.loc 1 256 14 discriminator 8 view .LVU61
 184 0074 3C43     		orrs	r4, r7
 185              	.LVL18:
 257:../../../PY32F002B_Firmware_V1.2.1/PY32F002B_Firmware_V1.2.1/Drivers/PY32F002B_HAL_Driver/Src/py32f002b_hal_gpio.c ****         EXTI->EXTICR[position >> 2u] = temp;
 186              		.loc 1 257 9 is_stmt 1 view .LVU62
 187              		.loc 1 257 38 is_stmt 0 view .LVU63
 188 0076 404E     		ldr	r6, .L23
 189 0078 1832     		adds	r2, r2, #24
 190 007a 9200     		lsls	r2, r2, #2
 191 007c 9451     		str	r4, [r2, r6]
 258:../../../PY32F002B_Firmware_V1.2.1/PY32F002B_Firmware_V1.2.1/Drivers/PY32F002B_HAL_Driver/Src/py32f002b_hal_gpio.c **** 
 259:../../../PY32F002B_Firmware_V1.2.1/PY32F002B_Firmware_V1.2.1/Drivers/PY32F002B_HAL_Driver/Src/py32f002b_hal_gpio.c ****         /* Clear EXTI line configuration */
 260:../../../PY32F002B_Firmware_V1.2.1/PY32F002B_Firmware_V1.2.1/Drivers/PY32F002B_HAL_Driver/Src/py32f002b_hal_gpio.c ****         temp = EXTI->IMR;
 192              		.loc 1 260 9 is_stmt 1 view .LVU64
 193              		.loc 1 260 14 is_stmt 0 view .LVU65
 194 007e 8022     		movs	r2, #128
 195 0080 B758     		ldr	r7, [r6, r2]
 196              	.LVL19:
ARM GAS  C:\Users\Gautam\AppData\Local\Temp\cc6Hfolp.s 			page 9


 261:../../../PY32F002B_Firmware_V1.2.1/PY32F002B_Firmware_V1.2.1/Drivers/PY32F002B_HAL_Driver/Src/py32f002b_hal_gpio.c ****         temp &= ~(iocurrent);
 197              		.loc 1 261 9 is_stmt 1 view .LVU66
 198              		.loc 1 261 17 is_stmt 0 view .LVU67
 199 0082 4A46     		mov	r2, r9
 200 0084 D243     		mvns	r2, r2
 201              		.loc 1 261 14 view .LVU68
 202 0086 3E00     		movs	r6, r7
 203 0088 4C46     		mov	r4, r9
 204 008a A643     		bics	r6, r4
 205              	.LVL20:
 262:../../../PY32F002B_Firmware_V1.2.1/PY32F002B_Firmware_V1.2.1/Drivers/PY32F002B_HAL_Driver/Src/py32f002b_hal_gpio.c ****         if ((GPIO_Init->Mode & GPIO_MODE_IT) == GPIO_MODE_IT)
 206              		.loc 1 262 9 is_stmt 1 view .LVU69
 207              		.loc 1 262 23 is_stmt 0 view .LVU70
 208 008c 4C68     		ldr	r4, [r1, #4]
 209              		.loc 1 262 12 view .LVU71
 210 008e E403     		lsls	r4, r4, #15
 211 0090 02D5     		bpl	.L9
 263:../../../PY32F002B_Firmware_V1.2.1/PY32F002B_Firmware_V1.2.1/Drivers/PY32F002B_HAL_Driver/Src/py32f002b_hal_gpio.c ****         {
 264:../../../PY32F002B_Firmware_V1.2.1/PY32F002B_Firmware_V1.2.1/Drivers/PY32F002B_HAL_Driver/Src/py32f002b_hal_gpio.c ****           temp |= iocurrent;
 212              		.loc 1 264 11 is_stmt 1 view .LVU72
 213              		.loc 1 264 16 is_stmt 0 view .LVU73
 214 0092 3E00     		movs	r6, r7
 215              	.LVL21:
 216              		.loc 1 264 16 view .LVU74
 217 0094 4C46     		mov	r4, r9
 218 0096 2643     		orrs	r6, r4
 219              	.L9:
 220              	.LVL22:
 265:../../../PY32F002B_Firmware_V1.2.1/PY32F002B_Firmware_V1.2.1/Drivers/PY32F002B_HAL_Driver/Src/py32f002b_hal_gpio.c ****         }
 266:../../../PY32F002B_Firmware_V1.2.1/PY32F002B_Firmware_V1.2.1/Drivers/PY32F002B_HAL_Driver/Src/py32f002b_hal_gpio.c ****         EXTI->IMR = temp;
 221              		.loc 1 266 9 is_stmt 1 view .LVU75
 222              		.loc 1 266 19 is_stmt 0 view .LVU76
 223 0098 374C     		ldr	r4, .L23
 224 009a 8027     		movs	r7, #128
 225 009c E651     		str	r6, [r4, r7]
 267:../../../PY32F002B_Firmware_V1.2.1/PY32F002B_Firmware_V1.2.1/Drivers/PY32F002B_HAL_Driver/Src/py32f002b_hal_gpio.c **** 
 268:../../../PY32F002B_Firmware_V1.2.1/PY32F002B_Firmware_V1.2.1/Drivers/PY32F002B_HAL_Driver/Src/py32f002b_hal_gpio.c ****         temp = EXTI->EMR;
 226              		.loc 1 268 9 is_stmt 1 view .LVU77
 227              		.loc 1 268 14 is_stmt 0 view .LVU78
 228 009e 8426     		movs	r6, #132
 229              	.LVL23:
 230              		.loc 1 268 14 view .LVU79
 231 00a0 A759     		ldr	r7, [r4, r6]
 232              	.LVL24:
 269:../../../PY32F002B_Firmware_V1.2.1/PY32F002B_Firmware_V1.2.1/Drivers/PY32F002B_HAL_Driver/Src/py32f002b_hal_gpio.c ****         temp &= ~(iocurrent);
 233              		.loc 1 269 9 is_stmt 1 view .LVU80
 234              		.loc 1 269 14 is_stmt 0 view .LVU81
 235 00a2 3E00     		movs	r6, r7
 236 00a4 1640     		ands	r6, r2
 237              	.LVL25:
 270:../../../PY32F002B_Firmware_V1.2.1/PY32F002B_Firmware_V1.2.1/Drivers/PY32F002B_HAL_Driver/Src/py32f002b_hal_gpio.c ****         if ((GPIO_Init->Mode & GPIO_MODE_EVT) == GPIO_MODE_EVT)
 238              		.loc 1 270 9 is_stmt 1 view .LVU82
 239              		.loc 1 270 23 is_stmt 0 view .LVU83
 240 00a6 4C68     		ldr	r4, [r1, #4]
 241              		.loc 1 270 12 view .LVU84
 242 00a8 A403     		lsls	r4, r4, #14
 243 00aa 02D5     		bpl	.L10
ARM GAS  C:\Users\Gautam\AppData\Local\Temp\cc6Hfolp.s 			page 10


 271:../../../PY32F002B_Firmware_V1.2.1/PY32F002B_Firmware_V1.2.1/Drivers/PY32F002B_HAL_Driver/Src/py32f002b_hal_gpio.c ****         {
 272:../../../PY32F002B_Firmware_V1.2.1/PY32F002B_Firmware_V1.2.1/Drivers/PY32F002B_HAL_Driver/Src/py32f002b_hal_gpio.c ****           temp |= iocurrent;
 244              		.loc 1 272 11 is_stmt 1 view .LVU85
 245              		.loc 1 272 16 is_stmt 0 view .LVU86
 246 00ac 3E00     		movs	r6, r7
 247              	.LVL26:
 248              		.loc 1 272 16 view .LVU87
 249 00ae 4C46     		mov	r4, r9
 250 00b0 2643     		orrs	r6, r4
 251              	.L10:
 252              	.LVL27:
 273:../../../PY32F002B_Firmware_V1.2.1/PY32F002B_Firmware_V1.2.1/Drivers/PY32F002B_HAL_Driver/Src/py32f002b_hal_gpio.c ****         }
 274:../../../PY32F002B_Firmware_V1.2.1/PY32F002B_Firmware_V1.2.1/Drivers/PY32F002B_HAL_Driver/Src/py32f002b_hal_gpio.c ****         EXTI->EMR = temp;
 253              		.loc 1 274 9 is_stmt 1 view .LVU88
 254              		.loc 1 274 19 is_stmt 0 view .LVU89
 255 00b2 314C     		ldr	r4, .L23
 256 00b4 8427     		movs	r7, #132
 257 00b6 E651     		str	r6, [r4, r7]
 275:../../../PY32F002B_Firmware_V1.2.1/PY32F002B_Firmware_V1.2.1/Drivers/PY32F002B_HAL_Driver/Src/py32f002b_hal_gpio.c **** 
 276:../../../PY32F002B_Firmware_V1.2.1/PY32F002B_Firmware_V1.2.1/Drivers/PY32F002B_HAL_Driver/Src/py32f002b_hal_gpio.c ****         /* Clear Rising Falling edge configuration */
 277:../../../PY32F002B_Firmware_V1.2.1/PY32F002B_Firmware_V1.2.1/Drivers/PY32F002B_HAL_Driver/Src/py32f002b_hal_gpio.c ****         temp = EXTI->RTSR;
 258              		.loc 1 277 9 is_stmt 1 view .LVU90
 259              		.loc 1 277 14 is_stmt 0 view .LVU91
 260 00b8 2768     		ldr	r7, [r4]
 261              	.LVL28:
 278:../../../PY32F002B_Firmware_V1.2.1/PY32F002B_Firmware_V1.2.1/Drivers/PY32F002B_HAL_Driver/Src/py32f002b_hal_gpio.c ****         temp &= ~(iocurrent);
 262              		.loc 1 278 9 is_stmt 1 view .LVU92
 263              		.loc 1 278 14 is_stmt 0 view .LVU93
 264 00ba 3E00     		movs	r6, r7
 265 00bc 1640     		ands	r6, r2
 266              	.LVL29:
 279:../../../PY32F002B_Firmware_V1.2.1/PY32F002B_Firmware_V1.2.1/Drivers/PY32F002B_HAL_Driver/Src/py32f002b_hal_gpio.c ****         if ((GPIO_Init->Mode & RISING_EDGE) == RISING_EDGE)
 267              		.loc 1 279 9 is_stmt 1 view .LVU94
 268              		.loc 1 279 23 is_stmt 0 view .LVU95
 269 00be 4C68     		ldr	r4, [r1, #4]
 270              		.loc 1 279 12 view .LVU96
 271 00c0 E402     		lsls	r4, r4, #11
 272 00c2 02D5     		bpl	.L11
 280:../../../PY32F002B_Firmware_V1.2.1/PY32F002B_Firmware_V1.2.1/Drivers/PY32F002B_HAL_Driver/Src/py32f002b_hal_gpio.c ****         {
 281:../../../PY32F002B_Firmware_V1.2.1/PY32F002B_Firmware_V1.2.1/Drivers/PY32F002B_HAL_Driver/Src/py32f002b_hal_gpio.c ****           temp |= iocurrent;
 273              		.loc 1 281 11 is_stmt 1 view .LVU97
 274              		.loc 1 281 16 is_stmt 0 view .LVU98
 275 00c4 3E00     		movs	r6, r7
 276              	.LVL30:
 277              		.loc 1 281 16 view .LVU99
 278 00c6 4C46     		mov	r4, r9
 279 00c8 2643     		orrs	r6, r4
 280              	.L11:
 281              	.LVL31:
 282:../../../PY32F002B_Firmware_V1.2.1/PY32F002B_Firmware_V1.2.1/Drivers/PY32F002B_HAL_Driver/Src/py32f002b_hal_gpio.c ****         }
 283:../../../PY32F002B_Firmware_V1.2.1/PY32F002B_Firmware_V1.2.1/Drivers/PY32F002B_HAL_Driver/Src/py32f002b_hal_gpio.c ****         EXTI->RTSR = temp;
 282              		.loc 1 283 9 is_stmt 1 view .LVU100
 283              		.loc 1 283 20 is_stmt 0 view .LVU101
 284 00ca 2B4C     		ldr	r4, .L23
 285 00cc 2660     		str	r6, [r4]
 284:../../../PY32F002B_Firmware_V1.2.1/PY32F002B_Firmware_V1.2.1/Drivers/PY32F002B_HAL_Driver/Src/py32f002b_hal_gpio.c **** 
 285:../../../PY32F002B_Firmware_V1.2.1/PY32F002B_Firmware_V1.2.1/Drivers/PY32F002B_HAL_Driver/Src/py32f002b_hal_gpio.c ****         temp = EXTI->FTSR;
ARM GAS  C:\Users\Gautam\AppData\Local\Temp\cc6Hfolp.s 			page 11


 286              		.loc 1 285 9 is_stmt 1 view .LVU102
 287              		.loc 1 285 14 is_stmt 0 view .LVU103
 288 00ce 6668     		ldr	r6, [r4, #4]
 289              	.LVL32:
 286:../../../PY32F002B_Firmware_V1.2.1/PY32F002B_Firmware_V1.2.1/Drivers/PY32F002B_HAL_Driver/Src/py32f002b_hal_gpio.c ****         temp &= ~(iocurrent);
 290              		.loc 1 286 9 is_stmt 1 view .LVU104
 291              		.loc 1 286 14 is_stmt 0 view .LVU105
 292 00d0 3240     		ands	r2, r6
 293              	.LVL33:
 287:../../../PY32F002B_Firmware_V1.2.1/PY32F002B_Firmware_V1.2.1/Drivers/PY32F002B_HAL_Driver/Src/py32f002b_hal_gpio.c ****         if ((GPIO_Init->Mode & FALLING_EDGE) == FALLING_EDGE)
 294              		.loc 1 287 9 is_stmt 1 view .LVU106
 295              		.loc 1 287 23 is_stmt 0 view .LVU107
 296 00d2 4C68     		ldr	r4, [r1, #4]
 297              		.loc 1 287 12 view .LVU108
 298 00d4 A402     		lsls	r4, r4, #10
 299 00d6 01D5     		bpl	.L12
 288:../../../PY32F002B_Firmware_V1.2.1/PY32F002B_Firmware_V1.2.1/Drivers/PY32F002B_HAL_Driver/Src/py32f002b_hal_gpio.c ****         {
 289:../../../PY32F002B_Firmware_V1.2.1/PY32F002B_Firmware_V1.2.1/Drivers/PY32F002B_HAL_Driver/Src/py32f002b_hal_gpio.c ****           temp |= iocurrent;
 300              		.loc 1 289 11 is_stmt 1 view .LVU109
 301              		.loc 1 289 16 is_stmt 0 view .LVU110
 302 00d8 4A46     		mov	r2, r9
 303              	.LVL34:
 304              		.loc 1 289 16 view .LVU111
 305 00da 3243     		orrs	r2, r6
 306              	.L12:
 307              	.LVL35:
 290:../../../PY32F002B_Firmware_V1.2.1/PY32F002B_Firmware_V1.2.1/Drivers/PY32F002B_HAL_Driver/Src/py32f002b_hal_gpio.c ****         }
 291:../../../PY32F002B_Firmware_V1.2.1/PY32F002B_Firmware_V1.2.1/Drivers/PY32F002B_HAL_Driver/Src/py32f002b_hal_gpio.c ****         EXTI->FTSR = temp;
 308              		.loc 1 291 9 is_stmt 1 view .LVU112
 309              		.loc 1 291 20 is_stmt 0 view .LVU113
 310 00dc 264C     		ldr	r4, .L23
 311 00de 6260     		str	r2, [r4, #4]
 312              	.LVL36:
 313              	.L3:
 292:../../../PY32F002B_Firmware_V1.2.1/PY32F002B_Firmware_V1.2.1/Drivers/PY32F002B_HAL_Driver/Src/py32f002b_hal_gpio.c ****       }
 293:../../../PY32F002B_Firmware_V1.2.1/PY32F002B_Firmware_V1.2.1/Drivers/PY32F002B_HAL_Driver/Src/py32f002b_hal_gpio.c ****     }
 294:../../../PY32F002B_Firmware_V1.2.1/PY32F002B_Firmware_V1.2.1/Drivers/PY32F002B_HAL_Driver/Src/py32f002b_hal_gpio.c **** 
 295:../../../PY32F002B_Firmware_V1.2.1/PY32F002B_Firmware_V1.2.1/Drivers/PY32F002B_HAL_Driver/Src/py32f002b_hal_gpio.c ****     position++;
 314              		.loc 1 295 5 is_stmt 1 view .LVU114
 315              		.loc 1 295 13 is_stmt 0 view .LVU115
 316 00e0 0133     		adds	r3, r3, #1
 317              	.LVL37:
 318              	.L2:
 197:../../../PY32F002B_Firmware_V1.2.1/PY32F002B_Firmware_V1.2.1/Drivers/PY32F002B_HAL_Driver/Src/py32f002b_hal_gpio.c ****   {
 319              		.loc 1 197 41 is_stmt 1 view .LVU116
 197:../../../PY32F002B_Firmware_V1.2.1/PY32F002B_Firmware_V1.2.1/Drivers/PY32F002B_HAL_Driver/Src/py32f002b_hal_gpio.c ****   {
 320              		.loc 1 197 21 is_stmt 0 view .LVU117
 321 00e2 0C68     		ldr	r4, [r1]
 197:../../../PY32F002B_Firmware_V1.2.1/PY32F002B_Firmware_V1.2.1/Drivers/PY32F002B_HAL_Driver/Src/py32f002b_hal_gpio.c ****   {
 322              		.loc 1 197 28 view .LVU118
 323 00e4 2200     		movs	r2, r4
 324 00e6 DA40     		lsrs	r2, r2, r3
 197:../../../PY32F002B_Firmware_V1.2.1/PY32F002B_Firmware_V1.2.1/Drivers/PY32F002B_HAL_Driver/Src/py32f002b_hal_gpio.c ****   {
 325              		.loc 1 197 41 view .LVU119
 326 00e8 41D0     		beq	.L22
 200:../../../PY32F002B_Firmware_V1.2.1/PY32F002B_Firmware_V1.2.1/Drivers/PY32F002B_HAL_Driver/Src/py32f002b_hal_gpio.c **** 
 327              		.loc 1 200 5 is_stmt 1 view .LVU120
ARM GAS  C:\Users\Gautam\AppData\Local\Temp\cc6Hfolp.s 			page 12


 200:../../../PY32F002B_Firmware_V1.2.1/PY32F002B_Firmware_V1.2.1/Drivers/PY32F002B_HAL_Driver/Src/py32f002b_hal_gpio.c **** 
 328              		.loc 1 200 41 is_stmt 0 view .LVU121
 329 00ea 0122     		movs	r2, #1
 330 00ec 9A40     		lsls	r2, r2, r3
 200:../../../PY32F002B_Firmware_V1.2.1/PY32F002B_Firmware_V1.2.1/Drivers/PY32F002B_HAL_Driver/Src/py32f002b_hal_gpio.c **** 
 331              		.loc 1 200 15 view .LVU122
 332 00ee 2500     		movs	r5, r4
 333 00f0 1540     		ands	r5, r2
 334 00f2 A946     		mov	r9, r5
 335              	.LVL38:
 202:../../../PY32F002B_Firmware_V1.2.1/PY32F002B_Firmware_V1.2.1/Drivers/PY32F002B_HAL_Driver/Src/py32f002b_hal_gpio.c ****     {
 336              		.loc 1 202 5 is_stmt 1 view .LVU123
 202:../../../PY32F002B_Firmware_V1.2.1/PY32F002B_Firmware_V1.2.1/Drivers/PY32F002B_HAL_Driver/Src/py32f002b_hal_gpio.c ****     {
 337              		.loc 1 202 8 is_stmt 0 view .LVU124
 338 00f4 1442     		tst	r4, r2
 339 00f6 F3D0     		beq	.L3
 206:../../../PY32F002B_Firmware_V1.2.1/PY32F002B_Firmware_V1.2.1/Drivers/PY32F002B_HAL_Driver/Src/py32f002b_hal_gpio.c ****       {
 340              		.loc 1 206 7 is_stmt 1 view .LVU125
 206:../../../PY32F002B_Firmware_V1.2.1/PY32F002B_Firmware_V1.2.1/Drivers/PY32F002B_HAL_Driver/Src/py32f002b_hal_gpio.c ****       {
 341              		.loc 1 206 21 is_stmt 0 view .LVU126
 342 00f8 4C68     		ldr	r4, [r1, #4]
 206:../../../PY32F002B_Firmware_V1.2.1/PY32F002B_Firmware_V1.2.1/Drivers/PY32F002B_HAL_Driver/Src/py32f002b_hal_gpio.c ****       {
 343              		.loc 1 206 10 view .LVU127
 344 00fa 022C     		cmp	r4, #2
 345 00fc 01D0     		beq	.L4
 206:../../../PY32F002B_Firmware_V1.2.1/PY32F002B_Firmware_V1.2.1/Drivers/PY32F002B_HAL_Driver/Src/py32f002b_hal_gpio.c ****       {
 346              		.loc 1 206 48 discriminator 1 view .LVU128
 347 00fe 122C     		cmp	r4, #18
 348 0100 10D1     		bne	.L5
 349              	.L4:
 209:../../../PY32F002B_Firmware_V1.2.1/PY32F002B_Firmware_V1.2.1/Drivers/PY32F002B_HAL_Driver/Src/py32f002b_hal_gpio.c ****         assert_param(IS_GPIO_AF(GPIO_Init->Alternate));
 350              		.loc 1 209 9 is_stmt 1 view .LVU129
 210:../../../PY32F002B_Firmware_V1.2.1/PY32F002B_Firmware_V1.2.1/Drivers/PY32F002B_HAL_Driver/Src/py32f002b_hal_gpio.c **** 
 351              		.loc 1 210 9 view .LVU130
 213:../../../PY32F002B_Firmware_V1.2.1/PY32F002B_Firmware_V1.2.1/Drivers/PY32F002B_HAL_Driver/Src/py32f002b_hal_gpio.c ****         temp &= ~(0xFu << ((position & 0x07u) * 4u));
 352              		.loc 1 213 9 view .LVU131
 213:../../../PY32F002B_Firmware_V1.2.1/PY32F002B_Firmware_V1.2.1/Drivers/PY32F002B_HAL_Driver/Src/py32f002b_hal_gpio.c ****         temp &= ~(0xFu << ((position & 0x07u) * 4u));
 353              		.loc 1 213 36 is_stmt 0 view .LVU132
 354 0102 DC08     		lsrs	r4, r3, #3
 213:../../../PY32F002B_Firmware_V1.2.1/PY32F002B_Firmware_V1.2.1/Drivers/PY32F002B_HAL_Driver/Src/py32f002b_hal_gpio.c ****         temp &= ~(0xFu << ((position & 0x07u) * 4u));
 355              		.loc 1 213 14 view .LVU133
 356 0104 0834     		adds	r4, r4, #8
 357 0106 A400     		lsls	r4, r4, #2
 358 0108 2758     		ldr	r7, [r4, r0]
 359              	.LVL39:
 214:../../../PY32F002B_Firmware_V1.2.1/PY32F002B_Firmware_V1.2.1/Drivers/PY32F002B_HAL_Driver/Src/py32f002b_hal_gpio.c ****         temp |= ((GPIO_Init->Alternate) << ((position & 0x07u) * 4u));
 360              		.loc 1 214 9 is_stmt 1 view .LVU134
 214:../../../PY32F002B_Firmware_V1.2.1/PY32F002B_Firmware_V1.2.1/Drivers/PY32F002B_HAL_Driver/Src/py32f002b_hal_gpio.c ****         temp |= ((GPIO_Init->Alternate) << ((position & 0x07u) * 4u));
 361              		.loc 1 214 38 is_stmt 0 view .LVU135
 362 010a 0726     		movs	r6, #7
 363 010c 1E40     		ands	r6, r3
 214:../../../PY32F002B_Firmware_V1.2.1/PY32F002B_Firmware_V1.2.1/Drivers/PY32F002B_HAL_Driver/Src/py32f002b_hal_gpio.c ****         temp |= ((GPIO_Init->Alternate) << ((position & 0x07u) * 4u));
 364              		.loc 1 214 47 view .LVU136
 365 010e B600     		lsls	r6, r6, #2
 214:../../../PY32F002B_Firmware_V1.2.1/PY32F002B_Firmware_V1.2.1/Drivers/PY32F002B_HAL_Driver/Src/py32f002b_hal_gpio.c ****         temp |= ((GPIO_Init->Alternate) << ((position & 0x07u) * 4u));
 366              		.loc 1 214 24 view .LVU137
 367 0110 0F25     		movs	r5, #15
ARM GAS  C:\Users\Gautam\AppData\Local\Temp\cc6Hfolp.s 			page 13


 368              	.LVL40:
 214:../../../PY32F002B_Firmware_V1.2.1/PY32F002B_Firmware_V1.2.1/Drivers/PY32F002B_HAL_Driver/Src/py32f002b_hal_gpio.c ****         temp |= ((GPIO_Init->Alternate) << ((position & 0x07u) * 4u));
 369              		.loc 1 214 24 view .LVU138
 370 0112 B540     		lsls	r5, r5, r6
 214:../../../PY32F002B_Firmware_V1.2.1/PY32F002B_Firmware_V1.2.1/Drivers/PY32F002B_HAL_Driver/Src/py32f002b_hal_gpio.c ****         temp |= ((GPIO_Init->Alternate) << ((position & 0x07u) * 4u));
 371              		.loc 1 214 14 view .LVU139
 372 0114 AF43     		bics	r7, r5
 373              	.LVL41:
 214:../../../PY32F002B_Firmware_V1.2.1/PY32F002B_Firmware_V1.2.1/Drivers/PY32F002B_HAL_Driver/Src/py32f002b_hal_gpio.c ****         temp |= ((GPIO_Init->Alternate) << ((position & 0x07u) * 4u));
 374              		.loc 1 214 14 view .LVU140
 375 0116 BC46     		mov	ip, r7
 376              	.LVL42:
 215:../../../PY32F002B_Firmware_V1.2.1/PY32F002B_Firmware_V1.2.1/Drivers/PY32F002B_HAL_Driver/Src/py32f002b_hal_gpio.c ****         GPIOx->AFR[position >> 3u] = temp;
 377              		.loc 1 215 9 is_stmt 1 view .LVU141
 215:../../../PY32F002B_Firmware_V1.2.1/PY32F002B_Firmware_V1.2.1/Drivers/PY32F002B_HAL_Driver/Src/py32f002b_hal_gpio.c ****         GPIOx->AFR[position >> 3u] = temp;
 378              		.loc 1 215 28 is_stmt 0 view .LVU142
 379 0118 0F69     		ldr	r7, [r1, #16]
 380              	.LVL43:
 215:../../../PY32F002B_Firmware_V1.2.1/PY32F002B_Firmware_V1.2.1/Drivers/PY32F002B_HAL_Driver/Src/py32f002b_hal_gpio.c ****         GPIOx->AFR[position >> 3u] = temp;
 381              		.loc 1 215 41 view .LVU143
 382 011a B740     		lsls	r7, r7, r6
 383 011c 3E00     		movs	r6, r7
 215:../../../PY32F002B_Firmware_V1.2.1/PY32F002B_Firmware_V1.2.1/Drivers/PY32F002B_HAL_Driver/Src/py32f002b_hal_gpio.c ****         GPIOx->AFR[position >> 3u] = temp;
 384              		.loc 1 215 14 view .LVU144
 385 011e 6546     		mov	r5, ip
 386 0120 2E43     		orrs	r6, r5
 387              	.LVL44:
 216:../../../PY32F002B_Firmware_V1.2.1/PY32F002B_Firmware_V1.2.1/Drivers/PY32F002B_HAL_Driver/Src/py32f002b_hal_gpio.c ****       }
 388              		.loc 1 216 9 is_stmt 1 view .LVU145
 216:../../../PY32F002B_Firmware_V1.2.1/PY32F002B_Firmware_V1.2.1/Drivers/PY32F002B_HAL_Driver/Src/py32f002b_hal_gpio.c ****       }
 389              		.loc 1 216 36 is_stmt 0 view .LVU146
 390 0122 2650     		str	r6, [r4, r0]
 391              	.LVL45:
 392              	.L5:
 220:../../../PY32F002B_Firmware_V1.2.1/PY32F002B_Firmware_V1.2.1/Drivers/PY32F002B_HAL_Driver/Src/py32f002b_hal_gpio.c ****       temp &= ~(GPIO_MODER_MODE0 << (position * 2u));
 393              		.loc 1 220 7 is_stmt 1 view .LVU147
 220:../../../PY32F002B_Firmware_V1.2.1/PY32F002B_Firmware_V1.2.1/Drivers/PY32F002B_HAL_Driver/Src/py32f002b_hal_gpio.c ****       temp &= ~(GPIO_MODER_MODE0 << (position * 2u));
 394              		.loc 1 220 12 is_stmt 0 view .LVU148
 395 0124 0468     		ldr	r4, [r0]
 396 0126 A446     		mov	ip, r4
 397              	.LVL46:
 221:../../../PY32F002B_Firmware_V1.2.1/PY32F002B_Firmware_V1.2.1/Drivers/PY32F002B_HAL_Driver/Src/py32f002b_hal_gpio.c ****       temp |= ((GPIO_Init->Mode & GPIO_MODE) << (position * 2u));
 398              		.loc 1 221 7 is_stmt 1 view .LVU149
 221:../../../PY32F002B_Firmware_V1.2.1/PY32F002B_Firmware_V1.2.1/Drivers/PY32F002B_HAL_Driver/Src/py32f002b_hal_gpio.c ****       temp |= ((GPIO_Init->Mode & GPIO_MODE) << (position * 2u));
 399              		.loc 1 221 47 is_stmt 0 view .LVU150
 400 0128 5E00     		lsls	r6, r3, #1
 221:../../../PY32F002B_Firmware_V1.2.1/PY32F002B_Firmware_V1.2.1/Drivers/PY32F002B_HAL_Driver/Src/py32f002b_hal_gpio.c ****       temp |= ((GPIO_Init->Mode & GPIO_MODE) << (position * 2u));
 401              		.loc 1 221 34 view .LVU151
 402 012a 0324     		movs	r4, #3
 403              	.LVL47:
 221:../../../PY32F002B_Firmware_V1.2.1/PY32F002B_Firmware_V1.2.1/Drivers/PY32F002B_HAL_Driver/Src/py32f002b_hal_gpio.c ****       temp |= ((GPIO_Init->Mode & GPIO_MODE) << (position * 2u));
 404              		.loc 1 221 34 view .LVU152
 405 012c A246     		mov	r10, r4
 406 012e 2700     		movs	r7, r4
 407 0130 B740     		lsls	r7, r7, r6
 408 0132 B846     		mov	r8, r7
 221:../../../PY32F002B_Firmware_V1.2.1/PY32F002B_Firmware_V1.2.1/Drivers/PY32F002B_HAL_Driver/Src/py32f002b_hal_gpio.c ****       temp |= ((GPIO_Init->Mode & GPIO_MODE) << (position * 2u));
ARM GAS  C:\Users\Gautam\AppData\Local\Temp\cc6Hfolp.s 			page 14


 409              		.loc 1 221 15 view .LVU153
 410 0134 FF43     		mvns	r7, r7
 221:../../../PY32F002B_Firmware_V1.2.1/PY32F002B_Firmware_V1.2.1/Drivers/PY32F002B_HAL_Driver/Src/py32f002b_hal_gpio.c ****       temp |= ((GPIO_Init->Mode & GPIO_MODE) << (position * 2u));
 411              		.loc 1 221 12 view .LVU154
 412 0136 6546     		mov	r5, ip
 413 0138 4446     		mov	r4, r8
 414 013a A543     		bics	r5, r4
 415 013c AC46     		mov	ip, r5
 416              	.LVL48:
 222:../../../PY32F002B_Firmware_V1.2.1/PY32F002B_Firmware_V1.2.1/Drivers/PY32F002B_HAL_Driver/Src/py32f002b_hal_gpio.c ****       GPIOx->MODER = temp;
 417              		.loc 1 222 7 is_stmt 1 view .LVU155
 222:../../../PY32F002B_Firmware_V1.2.1/PY32F002B_Firmware_V1.2.1/Drivers/PY32F002B_HAL_Driver/Src/py32f002b_hal_gpio.c ****       GPIOx->MODER = temp;
 418              		.loc 1 222 26 is_stmt 0 view .LVU156
 419 013e 4C68     		ldr	r4, [r1, #4]
 222:../../../PY32F002B_Firmware_V1.2.1/PY32F002B_Firmware_V1.2.1/Drivers/PY32F002B_HAL_Driver/Src/py32f002b_hal_gpio.c ****       GPIOx->MODER = temp;
 420              		.loc 1 222 33 view .LVU157
 421 0140 5546     		mov	r5, r10
 422              	.LVL49:
 222:../../../PY32F002B_Firmware_V1.2.1/PY32F002B_Firmware_V1.2.1/Drivers/PY32F002B_HAL_Driver/Src/py32f002b_hal_gpio.c ****       GPIOx->MODER = temp;
 423              		.loc 1 222 33 view .LVU158
 424 0142 2540     		ands	r5, r4
 425 0144 2C00     		movs	r4, r5
 222:../../../PY32F002B_Firmware_V1.2.1/PY32F002B_Firmware_V1.2.1/Drivers/PY32F002B_HAL_Driver/Src/py32f002b_hal_gpio.c ****       GPIOx->MODER = temp;
 426              		.loc 1 222 46 view .LVU159
 427 0146 B440     		lsls	r4, r4, r6
 222:../../../PY32F002B_Firmware_V1.2.1/PY32F002B_Firmware_V1.2.1/Drivers/PY32F002B_HAL_Driver/Src/py32f002b_hal_gpio.c ****       GPIOx->MODER = temp;
 428              		.loc 1 222 12 view .LVU160
 429 0148 6546     		mov	r5, ip
 430 014a 2C43     		orrs	r4, r5
 431              	.LVL50:
 223:../../../PY32F002B_Firmware_V1.2.1/PY32F002B_Firmware_V1.2.1/Drivers/PY32F002B_HAL_Driver/Src/py32f002b_hal_gpio.c **** 
 432              		.loc 1 223 7 is_stmt 1 view .LVU161
 223:../../../PY32F002B_Firmware_V1.2.1/PY32F002B_Firmware_V1.2.1/Drivers/PY32F002B_HAL_Driver/Src/py32f002b_hal_gpio.c **** 
 433              		.loc 1 223 20 is_stmt 0 view .LVU162
 434 014c 0460     		str	r4, [r0]
 226:../../../PY32F002B_Firmware_V1.2.1/PY32F002B_Firmware_V1.2.1/Drivers/PY32F002B_HAL_Driver/Src/py32f002b_hal_gpio.c ****           (GPIO_Init->Mode == GPIO_MODE_OUTPUT_OD) || (GPIO_Init->Mode == GPIO_MODE_AF_OD))
 435              		.loc 1 226 7 is_stmt 1 view .LVU163
 226:../../../PY32F002B_Firmware_V1.2.1/PY32F002B_Firmware_V1.2.1/Drivers/PY32F002B_HAL_Driver/Src/py32f002b_hal_gpio.c ****           (GPIO_Init->Mode == GPIO_MODE_OUTPUT_OD) || (GPIO_Init->Mode == GPIO_MODE_AF_OD))
 436              		.loc 1 226 21 is_stmt 0 view .LVU164
 437 014e 4C68     		ldr	r4, [r1, #4]
 438              	.LVL51:
 226:../../../PY32F002B_Firmware_V1.2.1/PY32F002B_Firmware_V1.2.1/Drivers/PY32F002B_HAL_Driver/Src/py32f002b_hal_gpio.c ****           (GPIO_Init->Mode == GPIO_MODE_OUTPUT_OD) || (GPIO_Init->Mode == GPIO_MODE_AF_OD))
 439              		.loc 1 226 52 view .LVU165
 440 0150 651E     		subs	r5, r4, #1
 226:../../../PY32F002B_Firmware_V1.2.1/PY32F002B_Firmware_V1.2.1/Drivers/PY32F002B_HAL_Driver/Src/py32f002b_hal_gpio.c ****           (GPIO_Init->Mode == GPIO_MODE_OUTPUT_OD) || (GPIO_Init->Mode == GPIO_MODE_AF_OD))
 441              		.loc 1 226 10 view .LVU166
 442 0152 012D     		cmp	r5, #1
 443 0154 00D8     		bhi	.LCB374
 444 0156 5AE7     		b	.L6	@long jump
 445              	.LCB374:
 226:../../../PY32F002B_Firmware_V1.2.1/PY32F002B_Firmware_V1.2.1/Drivers/PY32F002B_HAL_Driver/Src/py32f002b_hal_gpio.c ****           (GPIO_Init->Mode == GPIO_MODE_OUTPUT_OD) || (GPIO_Init->Mode == GPIO_MODE_AF_OD))
 446              		.loc 1 226 92 discriminator 1 view .LVU167
 447 0158 112C     		cmp	r4, #17
 448 015a 00D1     		bne	.LCB376
 449 015c 57E7     		b	.L6	@long jump
 450              	.LCB376:
 227:../../../PY32F002B_Firmware_V1.2.1/PY32F002B_Firmware_V1.2.1/Drivers/PY32F002B_HAL_Driver/Src/py32f002b_hal_gpio.c ****       {
ARM GAS  C:\Users\Gautam\AppData\Local\Temp\cc6Hfolp.s 			page 15


 451              		.loc 1 227 52 view .LVU168
 452 015e 122C     		cmp	r4, #18
 453 0160 00D0     		beq	.LCB378
 454 0162 67E7     		b	.L7	@long jump
 455              	.LCB378:
 456 0164 53E7     		b	.L6
 457              	.LVL52:
 458              	.L21:
 256:../../../PY32F002B_Firmware_V1.2.1/PY32F002B_Firmware_V1.2.1/Drivers/PY32F002B_HAL_Driver/Src/py32f002b_hal_gpio.c ****         EXTI->EXTICR[position >> 2u] = temp;
 459              		.loc 1 256 18 discriminator 3 view .LVU169
 460 0166 0126     		movs	r6, #1
 461 0168 82E7     		b	.L8
 462              	.L14:
 256:../../../PY32F002B_Firmware_V1.2.1/PY32F002B_Firmware_V1.2.1/Drivers/PY32F002B_HAL_Driver/Src/py32f002b_hal_gpio.c ****         EXTI->EXTICR[position >> 2u] = temp;
 463              		.loc 1 256 18 discriminator 2 view .LVU170
 464 016a 0026     		movs	r6, #0
 465 016c 80E7     		b	.L8
 466              	.LVL53:
 467              	.L22:
 296:../../../PY32F002B_Firmware_V1.2.1/PY32F002B_Firmware_V1.2.1/Drivers/PY32F002B_HAL_Driver/Src/py32f002b_hal_gpio.c ****   }
 297:../../../PY32F002B_Firmware_V1.2.1/PY32F002B_Firmware_V1.2.1/Drivers/PY32F002B_HAL_Driver/Src/py32f002b_hal_gpio.c **** }
 468              		.loc 1 297 1 view .LVU171
 469              		@ sp needed
 470 016e E0BC     		pop	{r5, r6, r7}
 471 0170 BA46     		mov	r10, r7
 472 0172 B146     		mov	r9, r6
 473 0174 A846     		mov	r8, r5
 474 0176 F0BD     		pop	{r4, r5, r6, r7, pc}
 475              	.L24:
 476              		.align	2
 477              	.L23:
 478 0178 00180240 		.word	1073879040
 479 017c 00040050 		.word	1342178304
 480              		.cfi_endproc
 481              	.LFE37:
 483              		.section	.text.HAL_GPIO_DeInit,"ax",%progbits
 484              		.align	1
 485              		.global	HAL_GPIO_DeInit
 486              		.syntax unified
 487              		.code	16
 488              		.thumb_func
 490              	HAL_GPIO_DeInit:
 491              	.LVL54:
 492              	.LFB38:
 298:../../../PY32F002B_Firmware_V1.2.1/PY32F002B_Firmware_V1.2.1/Drivers/PY32F002B_HAL_Driver/Src/py32f002b_hal_gpio.c **** 
 299:../../../PY32F002B_Firmware_V1.2.1/PY32F002B_Firmware_V1.2.1/Drivers/PY32F002B_HAL_Driver/Src/py32f002b_hal_gpio.c **** /**
 300:../../../PY32F002B_Firmware_V1.2.1/PY32F002B_Firmware_V1.2.1/Drivers/PY32F002B_HAL_Driver/Src/py32f002b_hal_gpio.c ****   * @brief  De-initialize the GPIOx peripheral registers to their default reset values.
 301:../../../PY32F002B_Firmware_V1.2.1/PY32F002B_Firmware_V1.2.1/Drivers/PY32F002B_HAL_Driver/Src/py32f002b_hal_gpio.c ****   * @param  GPIOx where x can be (A..C) to select the GPIO peripheral for PY32F002B family
 302:../../../PY32F002B_Firmware_V1.2.1/PY32F002B_Firmware_V1.2.1/Drivers/PY32F002B_HAL_Driver/Src/py32f002b_hal_gpio.c ****   * @param  GPIO_Pin specifies the port bit to be written.
 303:../../../PY32F002B_Firmware_V1.2.1/PY32F002B_Firmware_V1.2.1/Drivers/PY32F002B_HAL_Driver/Src/py32f002b_hal_gpio.c ****   *         This parameter can be any combination of GPIO_Pin_x where x can be (0..15).
 304:../../../PY32F002B_Firmware_V1.2.1/PY32F002B_Firmware_V1.2.1/Drivers/PY32F002B_HAL_Driver/Src/py32f002b_hal_gpio.c ****   * @retval None
 305:../../../PY32F002B_Firmware_V1.2.1/PY32F002B_Firmware_V1.2.1/Drivers/PY32F002B_HAL_Driver/Src/py32f002b_hal_gpio.c ****   */
 306:../../../PY32F002B_Firmware_V1.2.1/PY32F002B_Firmware_V1.2.1/Drivers/PY32F002B_HAL_Driver/Src/py32f002b_hal_gpio.c **** void HAL_GPIO_DeInit(GPIO_TypeDef  *GPIOx, uint32_t GPIO_Pin)
 307:../../../PY32F002B_Firmware_V1.2.1/PY32F002B_Firmware_V1.2.1/Drivers/PY32F002B_HAL_Driver/Src/py32f002b_hal_gpio.c **** {
 493              		.loc 1 307 1 is_stmt 1 view -0
 494              		.cfi_startproc
 495              		@ args = 0, pretend = 0, frame = 0
ARM GAS  C:\Users\Gautam\AppData\Local\Temp\cc6Hfolp.s 			page 16


 496              		@ frame_needed = 0, uses_anonymous_args = 0
 497              		.loc 1 307 1 is_stmt 0 view .LVU173
 498 0000 F0B5     		push	{r4, r5, r6, r7, lr}
 499              	.LCFI2:
 500              		.cfi_def_cfa_offset 20
 501              		.cfi_offset 4, -20
 502              		.cfi_offset 5, -16
 503              		.cfi_offset 6, -12
 504              		.cfi_offset 7, -8
 505              		.cfi_offset 14, -4
 506 0002 CE46     		mov	lr, r9
 507 0004 4746     		mov	r7, r8
 508 0006 80B5     		push	{r7, lr}
 509              	.LCFI3:
 510              		.cfi_def_cfa_offset 28
 511              		.cfi_offset 8, -28
 512              		.cfi_offset 9, -24
 513 0008 8946     		mov	r9, r1
 308:../../../PY32F002B_Firmware_V1.2.1/PY32F002B_Firmware_V1.2.1/Drivers/PY32F002B_HAL_Driver/Src/py32f002b_hal_gpio.c ****   uint32_t position = 0x00u;
 514              		.loc 1 308 3 is_stmt 1 view .LVU174
 515              	.LVL55:
 309:../../../PY32F002B_Firmware_V1.2.1/PY32F002B_Firmware_V1.2.1/Drivers/PY32F002B_HAL_Driver/Src/py32f002b_hal_gpio.c ****   uint32_t iocurrent;
 516              		.loc 1 309 3 view .LVU175
 310:../../../PY32F002B_Firmware_V1.2.1/PY32F002B_Firmware_V1.2.1/Drivers/PY32F002B_HAL_Driver/Src/py32f002b_hal_gpio.c ****   uint32_t tmp;
 517              		.loc 1 310 3 view .LVU176
 311:../../../PY32F002B_Firmware_V1.2.1/PY32F002B_Firmware_V1.2.1/Drivers/PY32F002B_HAL_Driver/Src/py32f002b_hal_gpio.c **** 
 312:../../../PY32F002B_Firmware_V1.2.1/PY32F002B_Firmware_V1.2.1/Drivers/PY32F002B_HAL_Driver/Src/py32f002b_hal_gpio.c ****   /* Check the parameters */
 313:../../../PY32F002B_Firmware_V1.2.1/PY32F002B_Firmware_V1.2.1/Drivers/PY32F002B_HAL_Driver/Src/py32f002b_hal_gpio.c ****   assert_param(IS_GPIO_ALL_INSTANCE(GPIOx));
 518              		.loc 1 313 3 view .LVU177
 314:../../../PY32F002B_Firmware_V1.2.1/PY32F002B_Firmware_V1.2.1/Drivers/PY32F002B_HAL_Driver/Src/py32f002b_hal_gpio.c ****   assert_param(IS_GPIO_PIN(GPIO_Pin));
 519              		.loc 1 314 3 view .LVU178
 315:../../../PY32F002B_Firmware_V1.2.1/PY32F002B_Firmware_V1.2.1/Drivers/PY32F002B_HAL_Driver/Src/py32f002b_hal_gpio.c **** 
 316:../../../PY32F002B_Firmware_V1.2.1/PY32F002B_Firmware_V1.2.1/Drivers/PY32F002B_HAL_Driver/Src/py32f002b_hal_gpio.c ****   /* Configure the port pins */
 317:../../../PY32F002B_Firmware_V1.2.1/PY32F002B_Firmware_V1.2.1/Drivers/PY32F002B_HAL_Driver/Src/py32f002b_hal_gpio.c ****   while ((GPIO_Pin >> position) != 0x00u)
 520              		.loc 1 317 3 view .LVU179
 308:../../../PY32F002B_Firmware_V1.2.1/PY32F002B_Firmware_V1.2.1/Drivers/PY32F002B_HAL_Driver/Src/py32f002b_hal_gpio.c ****   uint32_t iocurrent;
 521              		.loc 1 308 12 is_stmt 0 view .LVU180
 522 000a 0023     		movs	r3, #0
 523              		.loc 1 317 9 view .LVU181
 524 000c 23E0     		b	.L26
 525              	.LVL56:
 526              	.L35:
 318:../../../PY32F002B_Firmware_V1.2.1/PY32F002B_Firmware_V1.2.1/Drivers/PY32F002B_HAL_Driver/Src/py32f002b_hal_gpio.c ****   {
 319:../../../PY32F002B_Firmware_V1.2.1/PY32F002B_Firmware_V1.2.1/Drivers/PY32F002B_HAL_Driver/Src/py32f002b_hal_gpio.c ****     /* Get current io position */
 320:../../../PY32F002B_Firmware_V1.2.1/PY32F002B_Firmware_V1.2.1/Drivers/PY32F002B_HAL_Driver/Src/py32f002b_hal_gpio.c ****     iocurrent = (GPIO_Pin) & (1uL << position);
 321:../../../PY32F002B_Firmware_V1.2.1/PY32F002B_Firmware_V1.2.1/Drivers/PY32F002B_HAL_Driver/Src/py32f002b_hal_gpio.c **** 
 322:../../../PY32F002B_Firmware_V1.2.1/PY32F002B_Firmware_V1.2.1/Drivers/PY32F002B_HAL_Driver/Src/py32f002b_hal_gpio.c ****     if (iocurrent != 0x00u)
 323:../../../PY32F002B_Firmware_V1.2.1/PY32F002B_Firmware_V1.2.1/Drivers/PY32F002B_HAL_Driver/Src/py32f002b_hal_gpio.c ****     {
 324:../../../PY32F002B_Firmware_V1.2.1/PY32F002B_Firmware_V1.2.1/Drivers/PY32F002B_HAL_Driver/Src/py32f002b_hal_gpio.c ****       /*------------------------- EXTI Mode Configuration --------------------*/
 325:../../../PY32F002B_Firmware_V1.2.1/PY32F002B_Firmware_V1.2.1/Drivers/PY32F002B_HAL_Driver/Src/py32f002b_hal_gpio.c ****       /* Clear the External Interrupt or Event for the current IO */
 326:../../../PY32F002B_Firmware_V1.2.1/PY32F002B_Firmware_V1.2.1/Drivers/PY32F002B_HAL_Driver/Src/py32f002b_hal_gpio.c **** 
 327:../../../PY32F002B_Firmware_V1.2.1/PY32F002B_Firmware_V1.2.1/Drivers/PY32F002B_HAL_Driver/Src/py32f002b_hal_gpio.c ****       tmp = EXTI->EXTICR[position >> 2u];
 328:../../../PY32F002B_Firmware_V1.2.1/PY32F002B_Firmware_V1.2.1/Drivers/PY32F002B_HAL_Driver/Src/py32f002b_hal_gpio.c ****       tmp &= (0x0FuL << (8u * (position & 0x03u)));
 329:../../../PY32F002B_Firmware_V1.2.1/PY32F002B_Firmware_V1.2.1/Drivers/PY32F002B_HAL_Driver/Src/py32f002b_hal_gpio.c ****       if (tmp == (GPIO_GET_INDEX(GPIOx) << (8u * (position & 0x03u))))
 527              		.loc 1 329 19 discriminator 3 view .LVU182
 528 000e 0121     		movs	r1, #1
 529 0010 8846     		mov	r8, r1
ARM GAS  C:\Users\Gautam\AppData\Local\Temp\cc6Hfolp.s 			page 17


 530 0012 01E0     		b	.L28
 531              	.L31:
 532              		.loc 1 329 19 discriminator 2 view .LVU183
 533 0014 0021     		movs	r1, #0
 534 0016 8846     		mov	r8, r1
 535              	.L28:
 536              		.loc 1 329 41 discriminator 8 view .LVU184
 537 0018 4146     		mov	r1, r8
 538 001a A140     		lsls	r1, r1, r4
 539              		.loc 1 329 10 discriminator 8 view .LVU185
 540 001c A942     		cmp	r1, r5
 541 001e 3BD0     		beq	.L33
 542              	.LVL57:
 543              	.L29:
 330:../../../PY32F002B_Firmware_V1.2.1/PY32F002B_Firmware_V1.2.1/Drivers/PY32F002B_HAL_Driver/Src/py32f002b_hal_gpio.c ****       {
 331:../../../PY32F002B_Firmware_V1.2.1/PY32F002B_Firmware_V1.2.1/Drivers/PY32F002B_HAL_Driver/Src/py32f002b_hal_gpio.c ****         /* Clear EXTI line configuration */
 332:../../../PY32F002B_Firmware_V1.2.1/PY32F002B_Firmware_V1.2.1/Drivers/PY32F002B_HAL_Driver/Src/py32f002b_hal_gpio.c ****         EXTI->IMR &= ~(iocurrent);
 333:../../../PY32F002B_Firmware_V1.2.1/PY32F002B_Firmware_V1.2.1/Drivers/PY32F002B_HAL_Driver/Src/py32f002b_hal_gpio.c ****         EXTI->EMR &= ~(iocurrent);
 334:../../../PY32F002B_Firmware_V1.2.1/PY32F002B_Firmware_V1.2.1/Drivers/PY32F002B_HAL_Driver/Src/py32f002b_hal_gpio.c **** 
 335:../../../PY32F002B_Firmware_V1.2.1/PY32F002B_Firmware_V1.2.1/Drivers/PY32F002B_HAL_Driver/Src/py32f002b_hal_gpio.c ****         /* Clear Rising Falling edge configuration */
 336:../../../PY32F002B_Firmware_V1.2.1/PY32F002B_Firmware_V1.2.1/Drivers/PY32F002B_HAL_Driver/Src/py32f002b_hal_gpio.c ****         EXTI->RTSR &= ~(iocurrent);
 337:../../../PY32F002B_Firmware_V1.2.1/PY32F002B_Firmware_V1.2.1/Drivers/PY32F002B_HAL_Driver/Src/py32f002b_hal_gpio.c ****         EXTI->FTSR &= ~(iocurrent);
 338:../../../PY32F002B_Firmware_V1.2.1/PY32F002B_Firmware_V1.2.1/Drivers/PY32F002B_HAL_Driver/Src/py32f002b_hal_gpio.c **** 
 339:../../../PY32F002B_Firmware_V1.2.1/PY32F002B_Firmware_V1.2.1/Drivers/PY32F002B_HAL_Driver/Src/py32f002b_hal_gpio.c ****         tmp = 0x0FuL << (8u * (position & 0x03u));
 340:../../../PY32F002B_Firmware_V1.2.1/PY32F002B_Firmware_V1.2.1/Drivers/PY32F002B_HAL_Driver/Src/py32f002b_hal_gpio.c ****         EXTI->EXTICR[position >> 2u] &= ~tmp;
 341:../../../PY32F002B_Firmware_V1.2.1/PY32F002B_Firmware_V1.2.1/Drivers/PY32F002B_HAL_Driver/Src/py32f002b_hal_gpio.c ****       }
 342:../../../PY32F002B_Firmware_V1.2.1/PY32F002B_Firmware_V1.2.1/Drivers/PY32F002B_HAL_Driver/Src/py32f002b_hal_gpio.c **** 
 343:../../../PY32F002B_Firmware_V1.2.1/PY32F002B_Firmware_V1.2.1/Drivers/PY32F002B_HAL_Driver/Src/py32f002b_hal_gpio.c ****       /*------------------------- GPIO Mode Configuration --------------------*/
 344:../../../PY32F002B_Firmware_V1.2.1/PY32F002B_Firmware_V1.2.1/Drivers/PY32F002B_HAL_Driver/Src/py32f002b_hal_gpio.c ****       /* Configure IO in Analog Mode */
 345:../../../PY32F002B_Firmware_V1.2.1/PY32F002B_Firmware_V1.2.1/Drivers/PY32F002B_HAL_Driver/Src/py32f002b_hal_gpio.c ****       GPIOx->MODER |= (GPIO_MODER_MODE0 << (position * 2u));
 544              		.loc 1 345 7 is_stmt 1 view .LVU186
 545              		.loc 1 345 12 is_stmt 0 view .LVU187
 546 0020 0468     		ldr	r4, [r0]
 547              		.loc 1 345 54 view .LVU188
 548 0022 5E00     		lsls	r6, r3, #1
 549              		.loc 1 345 41 view .LVU189
 550 0024 0325     		movs	r5, #3
 551 0026 B540     		lsls	r5, r5, r6
 552              		.loc 1 345 20 view .LVU190
 553 0028 2C43     		orrs	r4, r5
 554 002a 0460     		str	r4, [r0]
 346:../../../PY32F002B_Firmware_V1.2.1/PY32F002B_Firmware_V1.2.1/Drivers/PY32F002B_HAL_Driver/Src/py32f002b_hal_gpio.c **** 
 347:../../../PY32F002B_Firmware_V1.2.1/PY32F002B_Firmware_V1.2.1/Drivers/PY32F002B_HAL_Driver/Src/py32f002b_hal_gpio.c ****       /* Configure the default Alternate Function in current IO */
 348:../../../PY32F002B_Firmware_V1.2.1/PY32F002B_Firmware_V1.2.1/Drivers/PY32F002B_HAL_Driver/Src/py32f002b_hal_gpio.c ****       GPIOx->AFR[position >> 3u] &= ~(0xFu << ((position & 0x07u) * 4u)) ;
 555              		.loc 1 348 7 is_stmt 1 view .LVU191
 556              		.loc 1 348 17 is_stmt 0 view .LVU192
 557 002c DC08     		lsrs	r4, r3, #3
 558 002e 0834     		adds	r4, r4, #8
 559 0030 A400     		lsls	r4, r4, #2
 560 0032 2758     		ldr	r7, [r4, r0]
 561              		.loc 1 348 58 view .LVU193
 562 0034 0726     		movs	r6, #7
 563 0036 1E40     		ands	r6, r3
 564              		.loc 1 348 67 view .LVU194
 565 0038 B600     		lsls	r6, r6, #2
 566              		.loc 1 348 44 view .LVU195
 567 003a 0F21     		movs	r1, #15
ARM GAS  C:\Users\Gautam\AppData\Local\Temp\cc6Hfolp.s 			page 18


 568 003c B140     		lsls	r1, r1, r6
 569              		.loc 1 348 34 view .LVU196
 570 003e 8F43     		bics	r7, r1
 571 0040 2750     		str	r7, [r4, r0]
 349:../../../PY32F002B_Firmware_V1.2.1/PY32F002B_Firmware_V1.2.1/Drivers/PY32F002B_HAL_Driver/Src/py32f002b_hal_gpio.c **** 
 350:../../../PY32F002B_Firmware_V1.2.1/PY32F002B_Firmware_V1.2.1/Drivers/PY32F002B_HAL_Driver/Src/py32f002b_hal_gpio.c ****       /* Configure the default value for IO Speed */
 351:../../../PY32F002B_Firmware_V1.2.1/PY32F002B_Firmware_V1.2.1/Drivers/PY32F002B_HAL_Driver/Src/py32f002b_hal_gpio.c ****       GPIOx->OSPEEDR &= ~(GPIO_OSPEEDR_OSPEED0 << (position * 2u));
 572              		.loc 1 351 7 is_stmt 1 view .LVU197
 573              		.loc 1 351 12 is_stmt 0 view .LVU198
 574 0042 8468     		ldr	r4, [r0, #8]
 575              		.loc 1 351 22 view .LVU199
 576 0044 AC43     		bics	r4, r5
 577 0046 8460     		str	r4, [r0, #8]
 352:../../../PY32F002B_Firmware_V1.2.1/PY32F002B_Firmware_V1.2.1/Drivers/PY32F002B_HAL_Driver/Src/py32f002b_hal_gpio.c **** 
 353:../../../PY32F002B_Firmware_V1.2.1/PY32F002B_Firmware_V1.2.1/Drivers/PY32F002B_HAL_Driver/Src/py32f002b_hal_gpio.c ****       /* Configure the default value IO Output Type */
 354:../../../PY32F002B_Firmware_V1.2.1/PY32F002B_Firmware_V1.2.1/Drivers/PY32F002B_HAL_Driver/Src/py32f002b_hal_gpio.c ****       GPIOx->OTYPER  &= ~(GPIO_OTYPER_OT0 << position) ;
 578              		.loc 1 354 7 is_stmt 1 view .LVU200
 579              		.loc 1 354 12 is_stmt 0 view .LVU201
 580 0048 4468     		ldr	r4, [r0, #4]
 581              		.loc 1 354 22 view .LVU202
 582 004a 9443     		bics	r4, r2
 583 004c 4460     		str	r4, [r0, #4]
 355:../../../PY32F002B_Firmware_V1.2.1/PY32F002B_Firmware_V1.2.1/Drivers/PY32F002B_HAL_Driver/Src/py32f002b_hal_gpio.c **** 
 356:../../../PY32F002B_Firmware_V1.2.1/PY32F002B_Firmware_V1.2.1/Drivers/PY32F002B_HAL_Driver/Src/py32f002b_hal_gpio.c ****       /* Deactivate the Pull-up and Pull-down resistor for the current IO */
 357:../../../PY32F002B_Firmware_V1.2.1/PY32F002B_Firmware_V1.2.1/Drivers/PY32F002B_HAL_Driver/Src/py32f002b_hal_gpio.c ****       GPIOx->PUPDR &= ~(GPIO_PUPDR_PUPD0 << (position * 2u));
 584              		.loc 1 357 7 is_stmt 1 view .LVU203
 585              		.loc 1 357 12 is_stmt 0 view .LVU204
 586 004e C268     		ldr	r2, [r0, #12]
 587              		.loc 1 357 20 view .LVU205
 588 0050 AA43     		bics	r2, r5
 589 0052 C260     		str	r2, [r0, #12]
 590              	.L27:
 358:../../../PY32F002B_Firmware_V1.2.1/PY32F002B_Firmware_V1.2.1/Drivers/PY32F002B_HAL_Driver/Src/py32f002b_hal_gpio.c ****     }
 359:../../../PY32F002B_Firmware_V1.2.1/PY32F002B_Firmware_V1.2.1/Drivers/PY32F002B_HAL_Driver/Src/py32f002b_hal_gpio.c **** 
 360:../../../PY32F002B_Firmware_V1.2.1/PY32F002B_Firmware_V1.2.1/Drivers/PY32F002B_HAL_Driver/Src/py32f002b_hal_gpio.c ****     position++;
 591              		.loc 1 360 5 is_stmt 1 view .LVU206
 592              		.loc 1 360 13 is_stmt 0 view .LVU207
 593 0054 0133     		adds	r3, r3, #1
 594              	.LVL58:
 595              	.L26:
 317:../../../PY32F002B_Firmware_V1.2.1/PY32F002B_Firmware_V1.2.1/Drivers/PY32F002B_HAL_Driver/Src/py32f002b_hal_gpio.c ****   {
 596              		.loc 1 317 33 is_stmt 1 view .LVU208
 317:../../../PY32F002B_Firmware_V1.2.1/PY32F002B_Firmware_V1.2.1/Drivers/PY32F002B_HAL_Driver/Src/py32f002b_hal_gpio.c ****   {
 597              		.loc 1 317 20 is_stmt 0 view .LVU209
 598 0056 4A46     		mov	r2, r9
 599 0058 DA40     		lsrs	r2, r2, r3
 317:../../../PY32F002B_Firmware_V1.2.1/PY32F002B_Firmware_V1.2.1/Drivers/PY32F002B_HAL_Driver/Src/py32f002b_hal_gpio.c ****   {
 600              		.loc 1 317 33 view .LVU210
 601 005a 39D0     		beq	.L34
 320:../../../PY32F002B_Firmware_V1.2.1/PY32F002B_Firmware_V1.2.1/Drivers/PY32F002B_HAL_Driver/Src/py32f002b_hal_gpio.c **** 
 602              		.loc 1 320 5 is_stmt 1 view .LVU211
 320:../../../PY32F002B_Firmware_V1.2.1/PY32F002B_Firmware_V1.2.1/Drivers/PY32F002B_HAL_Driver/Src/py32f002b_hal_gpio.c **** 
 603              		.loc 1 320 35 is_stmt 0 view .LVU212
 604 005c 0122     		movs	r2, #1
 605 005e 9A40     		lsls	r2, r2, r3
 320:../../../PY32F002B_Firmware_V1.2.1/PY32F002B_Firmware_V1.2.1/Drivers/PY32F002B_HAL_Driver/Src/py32f002b_hal_gpio.c **** 
 606              		.loc 1 320 15 view .LVU213
ARM GAS  C:\Users\Gautam\AppData\Local\Temp\cc6Hfolp.s 			page 19


 607 0060 4C46     		mov	r4, r9
 608 0062 1440     		ands	r4, r2
 609 0064 A446     		mov	ip, r4
 610              	.LVL59:
 322:../../../PY32F002B_Firmware_V1.2.1/PY32F002B_Firmware_V1.2.1/Drivers/PY32F002B_HAL_Driver/Src/py32f002b_hal_gpio.c ****     {
 611              		.loc 1 322 5 is_stmt 1 view .LVU214
 322:../../../PY32F002B_Firmware_V1.2.1/PY32F002B_Firmware_V1.2.1/Drivers/PY32F002B_HAL_Driver/Src/py32f002b_hal_gpio.c ****     {
 612              		.loc 1 322 8 is_stmt 0 view .LVU215
 613 0066 4946     		mov	r1, r9
 614 0068 1142     		tst	r1, r2
 615 006a F3D0     		beq	.L27
 616              	.LVL60:
 327:../../../PY32F002B_Firmware_V1.2.1/PY32F002B_Firmware_V1.2.1/Drivers/PY32F002B_HAL_Driver/Src/py32f002b_hal_gpio.c ****       tmp &= (0x0FuL << (8u * (position & 0x03u)));
 617              		.loc 1 327 7 is_stmt 1 view .LVU216
 327:../../../PY32F002B_Firmware_V1.2.1/PY32F002B_Firmware_V1.2.1/Drivers/PY32F002B_HAL_Driver/Src/py32f002b_hal_gpio.c ****       tmp &= (0x0FuL << (8u * (position & 0x03u)));
 618              		.loc 1 327 35 is_stmt 0 view .LVU217
 619 006c 9F08     		lsrs	r7, r3, #2
 327:../../../PY32F002B_Firmware_V1.2.1/PY32F002B_Firmware_V1.2.1/Drivers/PY32F002B_HAL_Driver/Src/py32f002b_hal_gpio.c ****       tmp &= (0x0FuL << (8u * (position & 0x03u)));
 620              		.loc 1 327 11 view .LVU218
 621 006e 3C00     		movs	r4, r7
 622              	.LVL61:
 327:../../../PY32F002B_Firmware_V1.2.1/PY32F002B_Firmware_V1.2.1/Drivers/PY32F002B_HAL_Driver/Src/py32f002b_hal_gpio.c ****       tmp &= (0x0FuL << (8u * (position & 0x03u)));
 623              		.loc 1 327 11 view .LVU219
 624 0070 1834     		adds	r4, r4, #24
 625 0072 A400     		lsls	r4, r4, #2
 626 0074 184D     		ldr	r5, .L36
 627 0076 6559     		ldr	r5, [r4, r5]
 628              	.LVL62:
 328:../../../PY32F002B_Firmware_V1.2.1/PY32F002B_Firmware_V1.2.1/Drivers/PY32F002B_HAL_Driver/Src/py32f002b_hal_gpio.c ****       if (tmp == (GPIO_GET_INDEX(GPIOx) << (8u * (position & 0x03u))))
 629              		.loc 1 328 7 is_stmt 1 view .LVU220
 328:../../../PY32F002B_Firmware_V1.2.1/PY32F002B_Firmware_V1.2.1/Drivers/PY32F002B_HAL_Driver/Src/py32f002b_hal_gpio.c ****       if (tmp == (GPIO_GET_INDEX(GPIOx) << (8u * (position & 0x03u))))
 630              		.loc 1 328 41 is_stmt 0 view .LVU221
 631 0078 0326     		movs	r6, #3
 632 007a 1E40     		ands	r6, r3
 328:../../../PY32F002B_Firmware_V1.2.1/PY32F002B_Firmware_V1.2.1/Drivers/PY32F002B_HAL_Driver/Src/py32f002b_hal_gpio.c ****       if (tmp == (GPIO_GET_INDEX(GPIOx) << (8u * (position & 0x03u))))
 633              		.loc 1 328 29 view .LVU222
 634 007c F400     		lsls	r4, r6, #3
 328:../../../PY32F002B_Firmware_V1.2.1/PY32F002B_Firmware_V1.2.1/Drivers/PY32F002B_HAL_Driver/Src/py32f002b_hal_gpio.c ****       if (tmp == (GPIO_GET_INDEX(GPIOx) << (8u * (position & 0x03u))))
 635              		.loc 1 328 22 view .LVU223
 636 007e 0F26     		movs	r6, #15
 637 0080 A640     		lsls	r6, r6, r4
 328:../../../PY32F002B_Firmware_V1.2.1/PY32F002B_Firmware_V1.2.1/Drivers/PY32F002B_HAL_Driver/Src/py32f002b_hal_gpio.c ****       if (tmp == (GPIO_GET_INDEX(GPIOx) << (8u * (position & 0x03u))))
 638              		.loc 1 328 11 view .LVU224
 639 0082 3540     		ands	r5, r6
 640              	.LVL63:
 329:../../../PY32F002B_Firmware_V1.2.1/PY32F002B_Firmware_V1.2.1/Drivers/PY32F002B_HAL_Driver/Src/py32f002b_hal_gpio.c ****       {
 641              		.loc 1 329 7 is_stmt 1 view .LVU225
 329:../../../PY32F002B_Firmware_V1.2.1/PY32F002B_Firmware_V1.2.1/Drivers/PY32F002B_HAL_Driver/Src/py32f002b_hal_gpio.c ****       {
 642              		.loc 1 329 19 is_stmt 0 view .LVU226
 643 0084 A021     		movs	r1, #160
 644              	.LVL64:
 329:../../../PY32F002B_Firmware_V1.2.1/PY32F002B_Firmware_V1.2.1/Drivers/PY32F002B_HAL_Driver/Src/py32f002b_hal_gpio.c ****       {
 645              		.loc 1 329 19 view .LVU227
 646 0086 C905     		lsls	r1, r1, #23
 647 0088 8842     		cmp	r0, r1
 648 008a C3D0     		beq	.L31
 329:../../../PY32F002B_Firmware_V1.2.1/PY32F002B_Firmware_V1.2.1/Drivers/PY32F002B_HAL_Driver/Src/py32f002b_hal_gpio.c ****       {
ARM GAS  C:\Users\Gautam\AppData\Local\Temp\cc6Hfolp.s 			page 20


 649              		.loc 1 329 19 discriminator 1 view .LVU228
 650 008c 1349     		ldr	r1, .L36+4
 651 008e 8842     		cmp	r0, r1
 652 0090 BDD0     		beq	.L35
 329:../../../PY32F002B_Firmware_V1.2.1/PY32F002B_Firmware_V1.2.1/Drivers/PY32F002B_HAL_Driver/Src/py32f002b_hal_gpio.c ****       {
 653              		.loc 1 329 19 discriminator 4 view .LVU229
 654 0092 0221     		movs	r1, #2
 655 0094 8846     		mov	r8, r1
 656 0096 BFE7     		b	.L28
 657              	.L33:
 332:../../../PY32F002B_Firmware_V1.2.1/PY32F002B_Firmware_V1.2.1/Drivers/PY32F002B_HAL_Driver/Src/py32f002b_hal_gpio.c ****         EXTI->EMR &= ~(iocurrent);
 658              		.loc 1 332 9 is_stmt 1 view .LVU230
 332:../../../PY32F002B_Firmware_V1.2.1/PY32F002B_Firmware_V1.2.1/Drivers/PY32F002B_HAL_Driver/Src/py32f002b_hal_gpio.c ****         EXTI->EMR &= ~(iocurrent);
 659              		.loc 1 332 13 is_stmt 0 view .LVU231
 660 0098 0F4D     		ldr	r5, .L36
 661              	.LVL65:
 332:../../../PY32F002B_Firmware_V1.2.1/PY32F002B_Firmware_V1.2.1/Drivers/PY32F002B_HAL_Driver/Src/py32f002b_hal_gpio.c ****         EXTI->EMR &= ~(iocurrent);
 662              		.loc 1 332 13 view .LVU232
 663 009a 8021     		movs	r1, #128
 664 009c 8846     		mov	r8, r1
 665 009e 6C58     		ldr	r4, [r5, r1]
 332:../../../PY32F002B_Firmware_V1.2.1/PY32F002B_Firmware_V1.2.1/Drivers/PY32F002B_HAL_Driver/Src/py32f002b_hal_gpio.c ****         EXTI->EMR &= ~(iocurrent);
 666              		.loc 1 332 19 view .LVU233
 667 00a0 6146     		mov	r1, ip
 668 00a2 8C43     		bics	r4, r1
 669 00a4 4146     		mov	r1, r8
 670 00a6 6C50     		str	r4, [r5, r1]
 333:../../../PY32F002B_Firmware_V1.2.1/PY32F002B_Firmware_V1.2.1/Drivers/PY32F002B_HAL_Driver/Src/py32f002b_hal_gpio.c **** 
 671              		.loc 1 333 9 is_stmt 1 view .LVU234
 333:../../../PY32F002B_Firmware_V1.2.1/PY32F002B_Firmware_V1.2.1/Drivers/PY32F002B_HAL_Driver/Src/py32f002b_hal_gpio.c **** 
 672              		.loc 1 333 13 is_stmt 0 view .LVU235
 673 00a8 0431     		adds	r1, r1, #4
 674 00aa 8846     		mov	r8, r1
 675 00ac 6C58     		ldr	r4, [r5, r1]
 333:../../../PY32F002B_Firmware_V1.2.1/PY32F002B_Firmware_V1.2.1/Drivers/PY32F002B_HAL_Driver/Src/py32f002b_hal_gpio.c **** 
 676              		.loc 1 333 19 view .LVU236
 677 00ae 6146     		mov	r1, ip
 678 00b0 8C43     		bics	r4, r1
 679 00b2 4146     		mov	r1, r8
 680 00b4 6C50     		str	r4, [r5, r1]
 336:../../../PY32F002B_Firmware_V1.2.1/PY32F002B_Firmware_V1.2.1/Drivers/PY32F002B_HAL_Driver/Src/py32f002b_hal_gpio.c ****         EXTI->FTSR &= ~(iocurrent);
 681              		.loc 1 336 9 is_stmt 1 view .LVU237
 336:../../../PY32F002B_Firmware_V1.2.1/PY32F002B_Firmware_V1.2.1/Drivers/PY32F002B_HAL_Driver/Src/py32f002b_hal_gpio.c ****         EXTI->FTSR &= ~(iocurrent);
 682              		.loc 1 336 13 is_stmt 0 view .LVU238
 683 00b6 2C68     		ldr	r4, [r5]
 336:../../../PY32F002B_Firmware_V1.2.1/PY32F002B_Firmware_V1.2.1/Drivers/PY32F002B_HAL_Driver/Src/py32f002b_hal_gpio.c ****         EXTI->FTSR &= ~(iocurrent);
 684              		.loc 1 336 20 view .LVU239
 685 00b8 6146     		mov	r1, ip
 686 00ba 8C43     		bics	r4, r1
 687 00bc 2C60     		str	r4, [r5]
 337:../../../PY32F002B_Firmware_V1.2.1/PY32F002B_Firmware_V1.2.1/Drivers/PY32F002B_HAL_Driver/Src/py32f002b_hal_gpio.c **** 
 688              		.loc 1 337 9 is_stmt 1 view .LVU240
 337:../../../PY32F002B_Firmware_V1.2.1/PY32F002B_Firmware_V1.2.1/Drivers/PY32F002B_HAL_Driver/Src/py32f002b_hal_gpio.c **** 
 689              		.loc 1 337 13 is_stmt 0 view .LVU241
 690 00be 6C68     		ldr	r4, [r5, #4]
 337:../../../PY32F002B_Firmware_V1.2.1/PY32F002B_Firmware_V1.2.1/Drivers/PY32F002B_HAL_Driver/Src/py32f002b_hal_gpio.c **** 
 691              		.loc 1 337 20 view .LVU242
ARM GAS  C:\Users\Gautam\AppData\Local\Temp\cc6Hfolp.s 			page 21


 692 00c0 8C43     		bics	r4, r1
 693 00c2 6C60     		str	r4, [r5, #4]
 339:../../../PY32F002B_Firmware_V1.2.1/PY32F002B_Firmware_V1.2.1/Drivers/PY32F002B_HAL_Driver/Src/py32f002b_hal_gpio.c ****         EXTI->EXTICR[position >> 2u] &= ~tmp;
 694              		.loc 1 339 9 is_stmt 1 view .LVU243
 695              	.LVL66:
 340:../../../PY32F002B_Firmware_V1.2.1/PY32F002B_Firmware_V1.2.1/Drivers/PY32F002B_HAL_Driver/Src/py32f002b_hal_gpio.c ****       }
 696              		.loc 1 340 9 view .LVU244
 340:../../../PY32F002B_Firmware_V1.2.1/PY32F002B_Firmware_V1.2.1/Drivers/PY32F002B_HAL_Driver/Src/py32f002b_hal_gpio.c ****       }
 697              		.loc 1 340 21 is_stmt 0 view .LVU245
 698 00c4 1837     		adds	r7, r7, #24
 699 00c6 BC00     		lsls	r4, r7, #2
 700 00c8 6759     		ldr	r7, [r4, r5]
 340:../../../PY32F002B_Firmware_V1.2.1/PY32F002B_Firmware_V1.2.1/Drivers/PY32F002B_HAL_Driver/Src/py32f002b_hal_gpio.c ****       }
 701              		.loc 1 340 38 view .LVU246
 702 00ca B743     		bics	r7, r6
 703 00cc 6751     		str	r7, [r4, r5]
 704 00ce A7E7     		b	.L29
 705              	.LVL67:
 706              	.L34:
 361:../../../PY32F002B_Firmware_V1.2.1/PY32F002B_Firmware_V1.2.1/Drivers/PY32F002B_HAL_Driver/Src/py32f002b_hal_gpio.c ****   }
 362:../../../PY32F002B_Firmware_V1.2.1/PY32F002B_Firmware_V1.2.1/Drivers/PY32F002B_HAL_Driver/Src/py32f002b_hal_gpio.c **** }
 707              		.loc 1 362 1 view .LVU247
 708              		@ sp needed
 709              	.LVL68:
 710              		.loc 1 362 1 view .LVU248
 711 00d0 C0BC     		pop	{r6, r7}
 712 00d2 B946     		mov	r9, r7
 713 00d4 B046     		mov	r8, r6
 714 00d6 F0BD     		pop	{r4, r5, r6, r7, pc}
 715              	.L37:
 716              		.align	2
 717              	.L36:
 718 00d8 00180240 		.word	1073879040
 719 00dc 00040050 		.word	1342178304
 720              		.cfi_endproc
 721              	.LFE38:
 723              		.section	.text.HAL_GPIO_ReadPin,"ax",%progbits
 724              		.align	1
 725              		.global	HAL_GPIO_ReadPin
 726              		.syntax unified
 727              		.code	16
 728              		.thumb_func
 730              	HAL_GPIO_ReadPin:
 731              	.LVL69:
 732              	.LFB39:
 363:../../../PY32F002B_Firmware_V1.2.1/PY32F002B_Firmware_V1.2.1/Drivers/PY32F002B_HAL_Driver/Src/py32f002b_hal_gpio.c **** 
 364:../../../PY32F002B_Firmware_V1.2.1/PY32F002B_Firmware_V1.2.1/Drivers/PY32F002B_HAL_Driver/Src/py32f002b_hal_gpio.c **** /**
 365:../../../PY32F002B_Firmware_V1.2.1/PY32F002B_Firmware_V1.2.1/Drivers/PY32F002B_HAL_Driver/Src/py32f002b_hal_gpio.c ****   * @}
 366:../../../PY32F002B_Firmware_V1.2.1/PY32F002B_Firmware_V1.2.1/Drivers/PY32F002B_HAL_Driver/Src/py32f002b_hal_gpio.c ****   */
 367:../../../PY32F002B_Firmware_V1.2.1/PY32F002B_Firmware_V1.2.1/Drivers/PY32F002B_HAL_Driver/Src/py32f002b_hal_gpio.c **** 
 368:../../../PY32F002B_Firmware_V1.2.1/PY32F002B_Firmware_V1.2.1/Drivers/PY32F002B_HAL_Driver/Src/py32f002b_hal_gpio.c **** /** @addtogroup GPIO_Exported_Functions_Group2
 369:../../../PY32F002B_Firmware_V1.2.1/PY32F002B_Firmware_V1.2.1/Drivers/PY32F002B_HAL_Driver/Src/py32f002b_hal_gpio.c ****  *  @brief GPIO Read, Write, Toggle, Lock and EXTI management functions.
 370:../../../PY32F002B_Firmware_V1.2.1/PY32F002B_Firmware_V1.2.1/Drivers/PY32F002B_HAL_Driver/Src/py32f002b_hal_gpio.c ****  *
 371:../../../PY32F002B_Firmware_V1.2.1/PY32F002B_Firmware_V1.2.1/Drivers/PY32F002B_HAL_Driver/Src/py32f002b_hal_gpio.c **** @verbatim
 372:../../../PY32F002B_Firmware_V1.2.1/PY32F002B_Firmware_V1.2.1/Drivers/PY32F002B_HAL_Driver/Src/py32f002b_hal_gpio.c ****  ===============================================================================
 373:../../../PY32F002B_Firmware_V1.2.1/PY32F002B_Firmware_V1.2.1/Drivers/PY32F002B_HAL_Driver/Src/py32f002b_hal_gpio.c ****                        ##### IO operation functions #####
 374:../../../PY32F002B_Firmware_V1.2.1/PY32F002B_Firmware_V1.2.1/Drivers/PY32F002B_HAL_Driver/Src/py32f002b_hal_gpio.c ****  ===============================================================================
ARM GAS  C:\Users\Gautam\AppData\Local\Temp\cc6Hfolp.s 			page 22


 375:../../../PY32F002B_Firmware_V1.2.1/PY32F002B_Firmware_V1.2.1/Drivers/PY32F002B_HAL_Driver/Src/py32f002b_hal_gpio.c **** 
 376:../../../PY32F002B_Firmware_V1.2.1/PY32F002B_Firmware_V1.2.1/Drivers/PY32F002B_HAL_Driver/Src/py32f002b_hal_gpio.c **** @endverbatim
 377:../../../PY32F002B_Firmware_V1.2.1/PY32F002B_Firmware_V1.2.1/Drivers/PY32F002B_HAL_Driver/Src/py32f002b_hal_gpio.c ****   * @{
 378:../../../PY32F002B_Firmware_V1.2.1/PY32F002B_Firmware_V1.2.1/Drivers/PY32F002B_HAL_Driver/Src/py32f002b_hal_gpio.c ****   */
 379:../../../PY32F002B_Firmware_V1.2.1/PY32F002B_Firmware_V1.2.1/Drivers/PY32F002B_HAL_Driver/Src/py32f002b_hal_gpio.c **** 
 380:../../../PY32F002B_Firmware_V1.2.1/PY32F002B_Firmware_V1.2.1/Drivers/PY32F002B_HAL_Driver/Src/py32f002b_hal_gpio.c **** /**
 381:../../../PY32F002B_Firmware_V1.2.1/PY32F002B_Firmware_V1.2.1/Drivers/PY32F002B_HAL_Driver/Src/py32f002b_hal_gpio.c ****   * @brief  Read the specified input port pin.
 382:../../../PY32F002B_Firmware_V1.2.1/PY32F002B_Firmware_V1.2.1/Drivers/PY32F002B_HAL_Driver/Src/py32f002b_hal_gpio.c ****   * @param  GPIOx where x can be (A..C) to select the GPIO peripheral for PY32F002B family
 383:../../../PY32F002B_Firmware_V1.2.1/PY32F002B_Firmware_V1.2.1/Drivers/PY32F002B_HAL_Driver/Src/py32f002b_hal_gpio.c ****   * @param  GPIO_Pin specifies the port bit to read.
 384:../../../PY32F002B_Firmware_V1.2.1/PY32F002B_Firmware_V1.2.1/Drivers/PY32F002B_HAL_Driver/Src/py32f002b_hal_gpio.c ****   *         This parameter can be any combination of GPIO_Pin_x where x can be (0..15).
 385:../../../PY32F002B_Firmware_V1.2.1/PY32F002B_Firmware_V1.2.1/Drivers/PY32F002B_HAL_Driver/Src/py32f002b_hal_gpio.c ****   * @retval The input port pin value.
 386:../../../PY32F002B_Firmware_V1.2.1/PY32F002B_Firmware_V1.2.1/Drivers/PY32F002B_HAL_Driver/Src/py32f002b_hal_gpio.c ****   */
 387:../../../PY32F002B_Firmware_V1.2.1/PY32F002B_Firmware_V1.2.1/Drivers/PY32F002B_HAL_Driver/Src/py32f002b_hal_gpio.c **** GPIO_PinState HAL_GPIO_ReadPin(GPIO_TypeDef *GPIOx, uint16_t GPIO_Pin)
 388:../../../PY32F002B_Firmware_V1.2.1/PY32F002B_Firmware_V1.2.1/Drivers/PY32F002B_HAL_Driver/Src/py32f002b_hal_gpio.c **** {
 733              		.loc 1 388 1 is_stmt 1 view -0
 734              		.cfi_startproc
 735              		@ args = 0, pretend = 0, frame = 0
 736              		@ frame_needed = 0, uses_anonymous_args = 0
 737              		@ link register save eliminated.
 389:../../../PY32F002B_Firmware_V1.2.1/PY32F002B_Firmware_V1.2.1/Drivers/PY32F002B_HAL_Driver/Src/py32f002b_hal_gpio.c ****   GPIO_PinState bitstatus;
 738              		.loc 1 389 3 view .LVU250
 390:../../../PY32F002B_Firmware_V1.2.1/PY32F002B_Firmware_V1.2.1/Drivers/PY32F002B_HAL_Driver/Src/py32f002b_hal_gpio.c **** 
 391:../../../PY32F002B_Firmware_V1.2.1/PY32F002B_Firmware_V1.2.1/Drivers/PY32F002B_HAL_Driver/Src/py32f002b_hal_gpio.c ****   /* Check the parameters */
 392:../../../PY32F002B_Firmware_V1.2.1/PY32F002B_Firmware_V1.2.1/Drivers/PY32F002B_HAL_Driver/Src/py32f002b_hal_gpio.c ****   assert_param(IS_GPIO_PIN(GPIO_Pin));
 739              		.loc 1 392 3 view .LVU251
 393:../../../PY32F002B_Firmware_V1.2.1/PY32F002B_Firmware_V1.2.1/Drivers/PY32F002B_HAL_Driver/Src/py32f002b_hal_gpio.c **** 
 394:../../../PY32F002B_Firmware_V1.2.1/PY32F002B_Firmware_V1.2.1/Drivers/PY32F002B_HAL_Driver/Src/py32f002b_hal_gpio.c ****   if ((GPIOx->IDR & GPIO_Pin) != 0x00u)
 740              		.loc 1 394 3 view .LVU252
 741              		.loc 1 394 13 is_stmt 0 view .LVU253
 742 0000 0369     		ldr	r3, [r0, #16]
 743              		.loc 1 394 6 view .LVU254
 744 0002 0B42     		tst	r3, r1
 745 0004 01D0     		beq	.L40
 395:../../../PY32F002B_Firmware_V1.2.1/PY32F002B_Firmware_V1.2.1/Drivers/PY32F002B_HAL_Driver/Src/py32f002b_hal_gpio.c ****   {
 396:../../../PY32F002B_Firmware_V1.2.1/PY32F002B_Firmware_V1.2.1/Drivers/PY32F002B_HAL_Driver/Src/py32f002b_hal_gpio.c ****     bitstatus = GPIO_PIN_SET;
 746              		.loc 1 396 15 view .LVU255
 747 0006 0120     		movs	r0, #1
 748              	.LVL70:
 749              	.L39:
 397:../../../PY32F002B_Firmware_V1.2.1/PY32F002B_Firmware_V1.2.1/Drivers/PY32F002B_HAL_Driver/Src/py32f002b_hal_gpio.c ****   }
 398:../../../PY32F002B_Firmware_V1.2.1/PY32F002B_Firmware_V1.2.1/Drivers/PY32F002B_HAL_Driver/Src/py32f002b_hal_gpio.c ****   else
 399:../../../PY32F002B_Firmware_V1.2.1/PY32F002B_Firmware_V1.2.1/Drivers/PY32F002B_HAL_Driver/Src/py32f002b_hal_gpio.c ****   {
 400:../../../PY32F002B_Firmware_V1.2.1/PY32F002B_Firmware_V1.2.1/Drivers/PY32F002B_HAL_Driver/Src/py32f002b_hal_gpio.c ****     bitstatus = GPIO_PIN_RESET;
 401:../../../PY32F002B_Firmware_V1.2.1/PY32F002B_Firmware_V1.2.1/Drivers/PY32F002B_HAL_Driver/Src/py32f002b_hal_gpio.c ****   }
 402:../../../PY32F002B_Firmware_V1.2.1/PY32F002B_Firmware_V1.2.1/Drivers/PY32F002B_HAL_Driver/Src/py32f002b_hal_gpio.c ****   return bitstatus;
 750              		.loc 1 402 3 is_stmt 1 view .LVU256
 403:../../../PY32F002B_Firmware_V1.2.1/PY32F002B_Firmware_V1.2.1/Drivers/PY32F002B_HAL_Driver/Src/py32f002b_hal_gpio.c **** }
 751              		.loc 1 403 1 is_stmt 0 view .LVU257
 752              		@ sp needed
 753 0008 7047     		bx	lr
 754              	.LVL71:
 755              	.L40:
 400:../../../PY32F002B_Firmware_V1.2.1/PY32F002B_Firmware_V1.2.1/Drivers/PY32F002B_HAL_Driver/Src/py32f002b_hal_gpio.c ****   }
 756              		.loc 1 400 15 view .LVU258
 757 000a 0020     		movs	r0, #0
 758              	.LVL72:
 400:../../../PY32F002B_Firmware_V1.2.1/PY32F002B_Firmware_V1.2.1/Drivers/PY32F002B_HAL_Driver/Src/py32f002b_hal_gpio.c ****   }
ARM GAS  C:\Users\Gautam\AppData\Local\Temp\cc6Hfolp.s 			page 23


 759              		.loc 1 400 15 view .LVU259
 760 000c FCE7     		b	.L39
 761              		.cfi_endproc
 762              	.LFE39:
 764              		.section	.text.HAL_GPIO_WritePin,"ax",%progbits
 765              		.align	1
 766              		.global	HAL_GPIO_WritePin
 767              		.syntax unified
 768              		.code	16
 769              		.thumb_func
 771              	HAL_GPIO_WritePin:
 772              	.LVL73:
 773              	.LFB40:
 404:../../../PY32F002B_Firmware_V1.2.1/PY32F002B_Firmware_V1.2.1/Drivers/PY32F002B_HAL_Driver/Src/py32f002b_hal_gpio.c **** 
 405:../../../PY32F002B_Firmware_V1.2.1/PY32F002B_Firmware_V1.2.1/Drivers/PY32F002B_HAL_Driver/Src/py32f002b_hal_gpio.c **** /**
 406:../../../PY32F002B_Firmware_V1.2.1/PY32F002B_Firmware_V1.2.1/Drivers/PY32F002B_HAL_Driver/Src/py32f002b_hal_gpio.c ****   * @brief  Set or clear the selected data port bit.
 407:../../../PY32F002B_Firmware_V1.2.1/PY32F002B_Firmware_V1.2.1/Drivers/PY32F002B_HAL_Driver/Src/py32f002b_hal_gpio.c ****   * @note   This function uses GPIOx_BSRR and GPIOx_BRR registers to allow atomic read/modify
 408:../../../PY32F002B_Firmware_V1.2.1/PY32F002B_Firmware_V1.2.1/Drivers/PY32F002B_HAL_Driver/Src/py32f002b_hal_gpio.c ****   *         accesses. In this way, there is no risk of an IRQ occurring between
 409:../../../PY32F002B_Firmware_V1.2.1/PY32F002B_Firmware_V1.2.1/Drivers/PY32F002B_HAL_Driver/Src/py32f002b_hal_gpio.c ****   *         the read and the modify access.
 410:../../../PY32F002B_Firmware_V1.2.1/PY32F002B_Firmware_V1.2.1/Drivers/PY32F002B_HAL_Driver/Src/py32f002b_hal_gpio.c ****   * @param  GPIOx where x can be (A..C) to select the GPIO peripheral for PY32F002B family
 411:../../../PY32F002B_Firmware_V1.2.1/PY32F002B_Firmware_V1.2.1/Drivers/PY32F002B_HAL_Driver/Src/py32f002b_hal_gpio.c ****   * @param  GPIO_Pin specifies the port bit to be written.
 412:../../../PY32F002B_Firmware_V1.2.1/PY32F002B_Firmware_V1.2.1/Drivers/PY32F002B_HAL_Driver/Src/py32f002b_hal_gpio.c ****   *         This parameter can be any combination of GPIO_Pin_x where x can be (0..15).
 413:../../../PY32F002B_Firmware_V1.2.1/PY32F002B_Firmware_V1.2.1/Drivers/PY32F002B_HAL_Driver/Src/py32f002b_hal_gpio.c ****   * @param  PinState specifies the value to be written to the selected bit.
 414:../../../PY32F002B_Firmware_V1.2.1/PY32F002B_Firmware_V1.2.1/Drivers/PY32F002B_HAL_Driver/Src/py32f002b_hal_gpio.c ****   *         This parameter can be one of the GPIO_PinState enum values:
 415:../../../PY32F002B_Firmware_V1.2.1/PY32F002B_Firmware_V1.2.1/Drivers/PY32F002B_HAL_Driver/Src/py32f002b_hal_gpio.c ****   *            @arg GPIO_PIN_RESET: to clear the port pin
 416:../../../PY32F002B_Firmware_V1.2.1/PY32F002B_Firmware_V1.2.1/Drivers/PY32F002B_HAL_Driver/Src/py32f002b_hal_gpio.c ****   *            @arg GPIO_PIN_SET: to set the port pin
 417:../../../PY32F002B_Firmware_V1.2.1/PY32F002B_Firmware_V1.2.1/Drivers/PY32F002B_HAL_Driver/Src/py32f002b_hal_gpio.c ****   * @retval None
 418:../../../PY32F002B_Firmware_V1.2.1/PY32F002B_Firmware_V1.2.1/Drivers/PY32F002B_HAL_Driver/Src/py32f002b_hal_gpio.c ****   */
 419:../../../PY32F002B_Firmware_V1.2.1/PY32F002B_Firmware_V1.2.1/Drivers/PY32F002B_HAL_Driver/Src/py32f002b_hal_gpio.c **** void HAL_GPIO_WritePin(GPIO_TypeDef *GPIOx, uint16_t GPIO_Pin, GPIO_PinState PinState)
 420:../../../PY32F002B_Firmware_V1.2.1/PY32F002B_Firmware_V1.2.1/Drivers/PY32F002B_HAL_Driver/Src/py32f002b_hal_gpio.c **** {
 774              		.loc 1 420 1 is_stmt 1 view -0
 775              		.cfi_startproc
 776              		@ args = 0, pretend = 0, frame = 0
 777              		@ frame_needed = 0, uses_anonymous_args = 0
 778              		@ link register save eliminated.
 421:../../../PY32F002B_Firmware_V1.2.1/PY32F002B_Firmware_V1.2.1/Drivers/PY32F002B_HAL_Driver/Src/py32f002b_hal_gpio.c ****   /* Check the parameters */
 422:../../../PY32F002B_Firmware_V1.2.1/PY32F002B_Firmware_V1.2.1/Drivers/PY32F002B_HAL_Driver/Src/py32f002b_hal_gpio.c ****   assert_param(IS_GPIO_PIN(GPIO_Pin));
 779              		.loc 1 422 3 view .LVU261
 423:../../../PY32F002B_Firmware_V1.2.1/PY32F002B_Firmware_V1.2.1/Drivers/PY32F002B_HAL_Driver/Src/py32f002b_hal_gpio.c ****   assert_param(IS_GPIO_PIN_ACTION(PinState));
 780              		.loc 1 423 3 view .LVU262
 424:../../../PY32F002B_Firmware_V1.2.1/PY32F002B_Firmware_V1.2.1/Drivers/PY32F002B_HAL_Driver/Src/py32f002b_hal_gpio.c **** 
 425:../../../PY32F002B_Firmware_V1.2.1/PY32F002B_Firmware_V1.2.1/Drivers/PY32F002B_HAL_Driver/Src/py32f002b_hal_gpio.c ****   if (PinState != GPIO_PIN_RESET)
 781              		.loc 1 425 3 view .LVU263
 782              		.loc 1 425 6 is_stmt 0 view .LVU264
 783 0000 002A     		cmp	r2, #0
 784 0002 01D0     		beq	.L42
 426:../../../PY32F002B_Firmware_V1.2.1/PY32F002B_Firmware_V1.2.1/Drivers/PY32F002B_HAL_Driver/Src/py32f002b_hal_gpio.c ****   {
 427:../../../PY32F002B_Firmware_V1.2.1/PY32F002B_Firmware_V1.2.1/Drivers/PY32F002B_HAL_Driver/Src/py32f002b_hal_gpio.c ****     GPIOx->BSRR = (uint32_t)GPIO_Pin;
 785              		.loc 1 427 5 is_stmt 1 view .LVU265
 786              		.loc 1 427 17 is_stmt 0 view .LVU266
 787 0004 8161     		str	r1, [r0, #24]
 788              	.L41:
 428:../../../PY32F002B_Firmware_V1.2.1/PY32F002B_Firmware_V1.2.1/Drivers/PY32F002B_HAL_Driver/Src/py32f002b_hal_gpio.c ****   }
 429:../../../PY32F002B_Firmware_V1.2.1/PY32F002B_Firmware_V1.2.1/Drivers/PY32F002B_HAL_Driver/Src/py32f002b_hal_gpio.c ****   else
 430:../../../PY32F002B_Firmware_V1.2.1/PY32F002B_Firmware_V1.2.1/Drivers/PY32F002B_HAL_Driver/Src/py32f002b_hal_gpio.c ****   {
 431:../../../PY32F002B_Firmware_V1.2.1/PY32F002B_Firmware_V1.2.1/Drivers/PY32F002B_HAL_Driver/Src/py32f002b_hal_gpio.c ****     GPIOx->BRR = (uint32_t)GPIO_Pin;
 432:../../../PY32F002B_Firmware_V1.2.1/PY32F002B_Firmware_V1.2.1/Drivers/PY32F002B_HAL_Driver/Src/py32f002b_hal_gpio.c ****   }
ARM GAS  C:\Users\Gautam\AppData\Local\Temp\cc6Hfolp.s 			page 24


 433:../../../PY32F002B_Firmware_V1.2.1/PY32F002B_Firmware_V1.2.1/Drivers/PY32F002B_HAL_Driver/Src/py32f002b_hal_gpio.c **** }
 789              		.loc 1 433 1 view .LVU267
 790              		@ sp needed
 791 0006 7047     		bx	lr
 792              	.L42:
 431:../../../PY32F002B_Firmware_V1.2.1/PY32F002B_Firmware_V1.2.1/Drivers/PY32F002B_HAL_Driver/Src/py32f002b_hal_gpio.c ****   }
 793              		.loc 1 431 5 is_stmt 1 view .LVU268
 431:../../../PY32F002B_Firmware_V1.2.1/PY32F002B_Firmware_V1.2.1/Drivers/PY32F002B_HAL_Driver/Src/py32f002b_hal_gpio.c ****   }
 794              		.loc 1 431 16 is_stmt 0 view .LVU269
 795 0008 8162     		str	r1, [r0, #40]
 796              		.loc 1 433 1 view .LVU270
 797 000a FCE7     		b	.L41
 798              		.cfi_endproc
 799              	.LFE40:
 801              		.section	.text.HAL_GPIO_TogglePin,"ax",%progbits
 802              		.align	1
 803              		.global	HAL_GPIO_TogglePin
 804              		.syntax unified
 805              		.code	16
 806              		.thumb_func
 808              	HAL_GPIO_TogglePin:
 809              	.LVL74:
 810              	.LFB41:
 434:../../../PY32F002B_Firmware_V1.2.1/PY32F002B_Firmware_V1.2.1/Drivers/PY32F002B_HAL_Driver/Src/py32f002b_hal_gpio.c **** 
 435:../../../PY32F002B_Firmware_V1.2.1/PY32F002B_Firmware_V1.2.1/Drivers/PY32F002B_HAL_Driver/Src/py32f002b_hal_gpio.c **** /**
 436:../../../PY32F002B_Firmware_V1.2.1/PY32F002B_Firmware_V1.2.1/Drivers/PY32F002B_HAL_Driver/Src/py32f002b_hal_gpio.c ****   * @brief  Toggle the specified GPIO pin.
 437:../../../PY32F002B_Firmware_V1.2.1/PY32F002B_Firmware_V1.2.1/Drivers/PY32F002B_HAL_Driver/Src/py32f002b_hal_gpio.c ****   * @param  GPIOx where x can be (A..C) to select the GPIO peripheral for PY32F002B family
 438:../../../PY32F002B_Firmware_V1.2.1/PY32F002B_Firmware_V1.2.1/Drivers/PY32F002B_HAL_Driver/Src/py32f002b_hal_gpio.c ****   * @param  GPIO_Pin specifies the pin to be toggled.
 439:../../../PY32F002B_Firmware_V1.2.1/PY32F002B_Firmware_V1.2.1/Drivers/PY32F002B_HAL_Driver/Src/py32f002b_hal_gpio.c ****   *         This parameter can be any combination of GPIO_Pin_x where x can be (0..15).
 440:../../../PY32F002B_Firmware_V1.2.1/PY32F002B_Firmware_V1.2.1/Drivers/PY32F002B_HAL_Driver/Src/py32f002b_hal_gpio.c ****   * @retval None
 441:../../../PY32F002B_Firmware_V1.2.1/PY32F002B_Firmware_V1.2.1/Drivers/PY32F002B_HAL_Driver/Src/py32f002b_hal_gpio.c ****   */
 442:../../../PY32F002B_Firmware_V1.2.1/PY32F002B_Firmware_V1.2.1/Drivers/PY32F002B_HAL_Driver/Src/py32f002b_hal_gpio.c **** void HAL_GPIO_TogglePin(GPIO_TypeDef *GPIOx, uint16_t GPIO_Pin)
 443:../../../PY32F002B_Firmware_V1.2.1/PY32F002B_Firmware_V1.2.1/Drivers/PY32F002B_HAL_Driver/Src/py32f002b_hal_gpio.c **** {
 811              		.loc 1 443 1 is_stmt 1 view -0
 812              		.cfi_startproc
 813              		@ args = 0, pretend = 0, frame = 0
 814              		@ frame_needed = 0, uses_anonymous_args = 0
 815              		@ link register save eliminated.
 444:../../../PY32F002B_Firmware_V1.2.1/PY32F002B_Firmware_V1.2.1/Drivers/PY32F002B_HAL_Driver/Src/py32f002b_hal_gpio.c ****   /* Check the parameters */
 445:../../../PY32F002B_Firmware_V1.2.1/PY32F002B_Firmware_V1.2.1/Drivers/PY32F002B_HAL_Driver/Src/py32f002b_hal_gpio.c ****   assert_param(IS_GPIO_PIN(GPIO_Pin));
 816              		.loc 1 445 3 view .LVU272
 446:../../../PY32F002B_Firmware_V1.2.1/PY32F002B_Firmware_V1.2.1/Drivers/PY32F002B_HAL_Driver/Src/py32f002b_hal_gpio.c **** 
 447:../../../PY32F002B_Firmware_V1.2.1/PY32F002B_Firmware_V1.2.1/Drivers/PY32F002B_HAL_Driver/Src/py32f002b_hal_gpio.c ****   if ((GPIOx->ODR & GPIO_Pin) != 0x00u)
 817              		.loc 1 447 3 view .LVU273
 818              		.loc 1 447 13 is_stmt 0 view .LVU274
 819 0000 4369     		ldr	r3, [r0, #20]
 820              		.loc 1 447 6 view .LVU275
 821 0002 1942     		tst	r1, r3
 822 0004 01D0     		beq	.L45
 448:../../../PY32F002B_Firmware_V1.2.1/PY32F002B_Firmware_V1.2.1/Drivers/PY32F002B_HAL_Driver/Src/py32f002b_hal_gpio.c ****   {
 449:../../../PY32F002B_Firmware_V1.2.1/PY32F002B_Firmware_V1.2.1/Drivers/PY32F002B_HAL_Driver/Src/py32f002b_hal_gpio.c ****     GPIOx->BRR = (uint32_t)GPIO_Pin;
 823              		.loc 1 449 5 is_stmt 1 view .LVU276
 824              		.loc 1 449 16 is_stmt 0 view .LVU277
 825 0006 8162     		str	r1, [r0, #40]
 826              	.L44:
 450:../../../PY32F002B_Firmware_V1.2.1/PY32F002B_Firmware_V1.2.1/Drivers/PY32F002B_HAL_Driver/Src/py32f002b_hal_gpio.c ****   }
 451:../../../PY32F002B_Firmware_V1.2.1/PY32F002B_Firmware_V1.2.1/Drivers/PY32F002B_HAL_Driver/Src/py32f002b_hal_gpio.c ****   else
ARM GAS  C:\Users\Gautam\AppData\Local\Temp\cc6Hfolp.s 			page 25


 452:../../../PY32F002B_Firmware_V1.2.1/PY32F002B_Firmware_V1.2.1/Drivers/PY32F002B_HAL_Driver/Src/py32f002b_hal_gpio.c ****   {
 453:../../../PY32F002B_Firmware_V1.2.1/PY32F002B_Firmware_V1.2.1/Drivers/PY32F002B_HAL_Driver/Src/py32f002b_hal_gpio.c ****     GPIOx->BSRR = (uint32_t)GPIO_Pin;
 454:../../../PY32F002B_Firmware_V1.2.1/PY32F002B_Firmware_V1.2.1/Drivers/PY32F002B_HAL_Driver/Src/py32f002b_hal_gpio.c ****   }
 455:../../../PY32F002B_Firmware_V1.2.1/PY32F002B_Firmware_V1.2.1/Drivers/PY32F002B_HAL_Driver/Src/py32f002b_hal_gpio.c **** }
 827              		.loc 1 455 1 view .LVU278
 828              		@ sp needed
 829 0008 7047     		bx	lr
 830              	.L45:
 453:../../../PY32F002B_Firmware_V1.2.1/PY32F002B_Firmware_V1.2.1/Drivers/PY32F002B_HAL_Driver/Src/py32f002b_hal_gpio.c ****   }
 831              		.loc 1 453 5 is_stmt 1 view .LVU279
 453:../../../PY32F002B_Firmware_V1.2.1/PY32F002B_Firmware_V1.2.1/Drivers/PY32F002B_HAL_Driver/Src/py32f002b_hal_gpio.c ****   }
 832              		.loc 1 453 17 is_stmt 0 view .LVU280
 833 000a 8161     		str	r1, [r0, #24]
 834              		.loc 1 455 1 view .LVU281
 835 000c FCE7     		b	.L44
 836              		.cfi_endproc
 837              	.LFE41:
 839              		.section	.text.HAL_GPIO_LockPin,"ax",%progbits
 840              		.align	1
 841              		.global	HAL_GPIO_LockPin
 842              		.syntax unified
 843              		.code	16
 844              		.thumb_func
 846              	HAL_GPIO_LockPin:
 847              	.LVL75:
 848              	.LFB42:
 456:../../../PY32F002B_Firmware_V1.2.1/PY32F002B_Firmware_V1.2.1/Drivers/PY32F002B_HAL_Driver/Src/py32f002b_hal_gpio.c **** 
 457:../../../PY32F002B_Firmware_V1.2.1/PY32F002B_Firmware_V1.2.1/Drivers/PY32F002B_HAL_Driver/Src/py32f002b_hal_gpio.c **** /**
 458:../../../PY32F002B_Firmware_V1.2.1/PY32F002B_Firmware_V1.2.1/Drivers/PY32F002B_HAL_Driver/Src/py32f002b_hal_gpio.c ****   * @brief  Lock GPIO Pins configuration registers.
 459:../../../PY32F002B_Firmware_V1.2.1/PY32F002B_Firmware_V1.2.1/Drivers/PY32F002B_HAL_Driver/Src/py32f002b_hal_gpio.c ****   * @note   The locked registers are GPIOx_MODER, GPIOx_OTYPER, GPIOx_OSPEEDR,
 460:../../../PY32F002B_Firmware_V1.2.1/PY32F002B_Firmware_V1.2.1/Drivers/PY32F002B_HAL_Driver/Src/py32f002b_hal_gpio.c ****   *         GPIOx_PUPDR, GPIOx_AFRL and GPIOx_AFRH.
 461:../../../PY32F002B_Firmware_V1.2.1/PY32F002B_Firmware_V1.2.1/Drivers/PY32F002B_HAL_Driver/Src/py32f002b_hal_gpio.c ****   * @note   The configuration of the locked GPIO pins can no longer be modified
 462:../../../PY32F002B_Firmware_V1.2.1/PY32F002B_Firmware_V1.2.1/Drivers/PY32F002B_HAL_Driver/Src/py32f002b_hal_gpio.c ****   *         until the next reset.
 463:../../../PY32F002B_Firmware_V1.2.1/PY32F002B_Firmware_V1.2.1/Drivers/PY32F002B_HAL_Driver/Src/py32f002b_hal_gpio.c ****   * @param  GPIOx where x can be (A..C) to select the GPIO peripheral for PY32F002B family
 464:../../../PY32F002B_Firmware_V1.2.1/PY32F002B_Firmware_V1.2.1/Drivers/PY32F002B_HAL_Driver/Src/py32f002b_hal_gpio.c ****   * @param  GPIO_Pin specifies the port bits to be locked.
 465:../../../PY32F002B_Firmware_V1.2.1/PY32F002B_Firmware_V1.2.1/Drivers/PY32F002B_HAL_Driver/Src/py32f002b_hal_gpio.c ****   *         This parameter can be any combination of GPIO_Pin_x where x can be (0..15).
 466:../../../PY32F002B_Firmware_V1.2.1/PY32F002B_Firmware_V1.2.1/Drivers/PY32F002B_HAL_Driver/Src/py32f002b_hal_gpio.c ****   * @retval None
 467:../../../PY32F002B_Firmware_V1.2.1/PY32F002B_Firmware_V1.2.1/Drivers/PY32F002B_HAL_Driver/Src/py32f002b_hal_gpio.c ****   */
 468:../../../PY32F002B_Firmware_V1.2.1/PY32F002B_Firmware_V1.2.1/Drivers/PY32F002B_HAL_Driver/Src/py32f002b_hal_gpio.c **** HAL_StatusTypeDef HAL_GPIO_LockPin(GPIO_TypeDef *GPIOx, uint16_t GPIO_Pin)
 469:../../../PY32F002B_Firmware_V1.2.1/PY32F002B_Firmware_V1.2.1/Drivers/PY32F002B_HAL_Driver/Src/py32f002b_hal_gpio.c **** {
 849              		.loc 1 469 1 is_stmt 1 view -0
 850              		.cfi_startproc
 851              		@ args = 0, pretend = 0, frame = 8
 852              		@ frame_needed = 0, uses_anonymous_args = 0
 853              		@ link register save eliminated.
 854              		.loc 1 469 1 is_stmt 0 view .LVU283
 855 0000 82B0     		sub	sp, sp, #8
 856              	.LCFI4:
 857              		.cfi_def_cfa_offset 8
 470:../../../PY32F002B_Firmware_V1.2.1/PY32F002B_Firmware_V1.2.1/Drivers/PY32F002B_HAL_Driver/Src/py32f002b_hal_gpio.c ****   __IO uint32_t tmp = GPIO_LCKR_LCKK;
 858              		.loc 1 470 3 is_stmt 1 view .LVU284
 859              		.loc 1 470 17 is_stmt 0 view .LVU285
 860 0002 8022     		movs	r2, #128
 861 0004 5202     		lsls	r2, r2, #9
 862 0006 0192     		str	r2, [sp, #4]
 471:../../../PY32F002B_Firmware_V1.2.1/PY32F002B_Firmware_V1.2.1/Drivers/PY32F002B_HAL_Driver/Src/py32f002b_hal_gpio.c **** 
 472:../../../PY32F002B_Firmware_V1.2.1/PY32F002B_Firmware_V1.2.1/Drivers/PY32F002B_HAL_Driver/Src/py32f002b_hal_gpio.c ****   /* Check the parameters */
ARM GAS  C:\Users\Gautam\AppData\Local\Temp\cc6Hfolp.s 			page 26


 473:../../../PY32F002B_Firmware_V1.2.1/PY32F002B_Firmware_V1.2.1/Drivers/PY32F002B_HAL_Driver/Src/py32f002b_hal_gpio.c ****   assert_param(IS_GPIO_LOCK_INSTANCE(GPIOx));
 863              		.loc 1 473 3 is_stmt 1 view .LVU286
 474:../../../PY32F002B_Firmware_V1.2.1/PY32F002B_Firmware_V1.2.1/Drivers/PY32F002B_HAL_Driver/Src/py32f002b_hal_gpio.c ****   assert_param(IS_GPIO_PIN(GPIO_Pin));
 864              		.loc 1 474 3 view .LVU287
 475:../../../PY32F002B_Firmware_V1.2.1/PY32F002B_Firmware_V1.2.1/Drivers/PY32F002B_HAL_Driver/Src/py32f002b_hal_gpio.c **** 
 476:../../../PY32F002B_Firmware_V1.2.1/PY32F002B_Firmware_V1.2.1/Drivers/PY32F002B_HAL_Driver/Src/py32f002b_hal_gpio.c ****   /* Apply lock key write sequence */
 477:../../../PY32F002B_Firmware_V1.2.1/PY32F002B_Firmware_V1.2.1/Drivers/PY32F002B_HAL_Driver/Src/py32f002b_hal_gpio.c ****   tmp |= GPIO_Pin;
 865              		.loc 1 477 3 view .LVU288
 866              		.loc 1 477 7 is_stmt 0 view .LVU289
 867 0008 019B     		ldr	r3, [sp, #4]
 868 000a 0B43     		orrs	r3, r1
 869 000c 0193     		str	r3, [sp, #4]
 478:../../../PY32F002B_Firmware_V1.2.1/PY32F002B_Firmware_V1.2.1/Drivers/PY32F002B_HAL_Driver/Src/py32f002b_hal_gpio.c ****   /* Set LCKx bit(s): LCKK='1' + LCK[15-0] */
 479:../../../PY32F002B_Firmware_V1.2.1/PY32F002B_Firmware_V1.2.1/Drivers/PY32F002B_HAL_Driver/Src/py32f002b_hal_gpio.c ****   GPIOx->LCKR = tmp;
 870              		.loc 1 479 3 is_stmt 1 view .LVU290
 871              		.loc 1 479 15 is_stmt 0 view .LVU291
 872 000e 019B     		ldr	r3, [sp, #4]
 873 0010 C361     		str	r3, [r0, #28]
 480:../../../PY32F002B_Firmware_V1.2.1/PY32F002B_Firmware_V1.2.1/Drivers/PY32F002B_HAL_Driver/Src/py32f002b_hal_gpio.c ****   /* Reset LCKx bit(s): LCKK='0' + LCK[15-0] */
 481:../../../PY32F002B_Firmware_V1.2.1/PY32F002B_Firmware_V1.2.1/Drivers/PY32F002B_HAL_Driver/Src/py32f002b_hal_gpio.c ****   GPIOx->LCKR = GPIO_Pin;
 874              		.loc 1 481 3 is_stmt 1 view .LVU292
 875              		.loc 1 481 15 is_stmt 0 view .LVU293
 876 0012 C161     		str	r1, [r0, #28]
 482:../../../PY32F002B_Firmware_V1.2.1/PY32F002B_Firmware_V1.2.1/Drivers/PY32F002B_HAL_Driver/Src/py32f002b_hal_gpio.c ****   /* Set LCKx bit(s): LCKK='1' + LCK[15-0] */
 483:../../../PY32F002B_Firmware_V1.2.1/PY32F002B_Firmware_V1.2.1/Drivers/PY32F002B_HAL_Driver/Src/py32f002b_hal_gpio.c ****   GPIOx->LCKR = tmp;
 877              		.loc 1 483 3 is_stmt 1 view .LVU294
 878              		.loc 1 483 15 is_stmt 0 view .LVU295
 879 0014 019B     		ldr	r3, [sp, #4]
 880 0016 C361     		str	r3, [r0, #28]
 484:../../../PY32F002B_Firmware_V1.2.1/PY32F002B_Firmware_V1.2.1/Drivers/PY32F002B_HAL_Driver/Src/py32f002b_hal_gpio.c ****   /* Read LCKK register. This read is mandatory to complete key lock sequence */
 485:../../../PY32F002B_Firmware_V1.2.1/PY32F002B_Firmware_V1.2.1/Drivers/PY32F002B_HAL_Driver/Src/py32f002b_hal_gpio.c ****   tmp = GPIOx->LCKR;
 881              		.loc 1 485 3 is_stmt 1 view .LVU296
 882              		.loc 1 485 14 is_stmt 0 view .LVU297
 883 0018 C369     		ldr	r3, [r0, #28]
 884              		.loc 1 485 7 view .LVU298
 885 001a 0193     		str	r3, [sp, #4]
 486:../../../PY32F002B_Firmware_V1.2.1/PY32F002B_Firmware_V1.2.1/Drivers/PY32F002B_HAL_Driver/Src/py32f002b_hal_gpio.c **** 
 487:../../../PY32F002B_Firmware_V1.2.1/PY32F002B_Firmware_V1.2.1/Drivers/PY32F002B_HAL_Driver/Src/py32f002b_hal_gpio.c ****   /* read again in order to confirm lock is active */
 488:../../../PY32F002B_Firmware_V1.2.1/PY32F002B_Firmware_V1.2.1/Drivers/PY32F002B_HAL_Driver/Src/py32f002b_hal_gpio.c ****   if ((GPIOx->LCKR & __GPIO_LOCK_KEY_Msk) != 0x00u)
 886              		.loc 1 488 3 is_stmt 1 view .LVU299
 887              		.loc 1 488 13 is_stmt 0 view .LVU300
 888 001c C369     		ldr	r3, [r0, #28]
 889              		.loc 1 488 6 view .LVU301
 890 001e 1342     		tst	r3, r2
 891 0020 02D0     		beq	.L49
 489:../../../PY32F002B_Firmware_V1.2.1/PY32F002B_Firmware_V1.2.1/Drivers/PY32F002B_HAL_Driver/Src/py32f002b_hal_gpio.c ****   {
 490:../../../PY32F002B_Firmware_V1.2.1/PY32F002B_Firmware_V1.2.1/Drivers/PY32F002B_HAL_Driver/Src/py32f002b_hal_gpio.c ****     return HAL_OK;
 892              		.loc 1 490 12 view .LVU302
 893 0022 0020     		movs	r0, #0
 894              	.LVL76:
 895              	.L48:
 491:../../../PY32F002B_Firmware_V1.2.1/PY32F002B_Firmware_V1.2.1/Drivers/PY32F002B_HAL_Driver/Src/py32f002b_hal_gpio.c ****   }
 492:../../../PY32F002B_Firmware_V1.2.1/PY32F002B_Firmware_V1.2.1/Drivers/PY32F002B_HAL_Driver/Src/py32f002b_hal_gpio.c ****   else
 493:../../../PY32F002B_Firmware_V1.2.1/PY32F002B_Firmware_V1.2.1/Drivers/PY32F002B_HAL_Driver/Src/py32f002b_hal_gpio.c ****   {
 494:../../../PY32F002B_Firmware_V1.2.1/PY32F002B_Firmware_V1.2.1/Drivers/PY32F002B_HAL_Driver/Src/py32f002b_hal_gpio.c ****     return HAL_ERROR;
 495:../../../PY32F002B_Firmware_V1.2.1/PY32F002B_Firmware_V1.2.1/Drivers/PY32F002B_HAL_Driver/Src/py32f002b_hal_gpio.c ****   }
 496:../../../PY32F002B_Firmware_V1.2.1/PY32F002B_Firmware_V1.2.1/Drivers/PY32F002B_HAL_Driver/Src/py32f002b_hal_gpio.c **** }
ARM GAS  C:\Users\Gautam\AppData\Local\Temp\cc6Hfolp.s 			page 27


 896              		.loc 1 496 1 view .LVU303
 897 0024 02B0     		add	sp, sp, #8
 898              		@ sp needed
 899 0026 7047     		bx	lr
 900              	.LVL77:
 901              	.L49:
 494:../../../PY32F002B_Firmware_V1.2.1/PY32F002B_Firmware_V1.2.1/Drivers/PY32F002B_HAL_Driver/Src/py32f002b_hal_gpio.c ****   }
 902              		.loc 1 494 12 view .LVU304
 903 0028 0120     		movs	r0, #1
 904              	.LVL78:
 494:../../../PY32F002B_Firmware_V1.2.1/PY32F002B_Firmware_V1.2.1/Drivers/PY32F002B_HAL_Driver/Src/py32f002b_hal_gpio.c ****   }
 905              		.loc 1 494 12 view .LVU305
 906 002a FBE7     		b	.L48
 907              		.cfi_endproc
 908              	.LFE42:
 910              		.section	.text.HAL_GPIO_EXTI_Callback,"ax",%progbits
 911              		.align	1
 912              		.weak	HAL_GPIO_EXTI_Callback
 913              		.syntax unified
 914              		.code	16
 915              		.thumb_func
 917              	HAL_GPIO_EXTI_Callback:
 918              	.LVL79:
 919              	.LFB43:
 497:../../../PY32F002B_Firmware_V1.2.1/PY32F002B_Firmware_V1.2.1/Drivers/PY32F002B_HAL_Driver/Src/py32f002b_hal_gpio.c **** __weak void HAL_GPIO_EXTI_Callback(uint16_t GPIO_Pin)
 498:../../../PY32F002B_Firmware_V1.2.1/PY32F002B_Firmware_V1.2.1/Drivers/PY32F002B_HAL_Driver/Src/py32f002b_hal_gpio.c **** {
 920              		.loc 1 498 1 is_stmt 1 view -0
 921              		.cfi_startproc
 922              		@ args = 0, pretend = 0, frame = 0
 923              		@ frame_needed = 0, uses_anonymous_args = 0
 924              		@ link register save eliminated.
 499:../../../PY32F002B_Firmware_V1.2.1/PY32F002B_Firmware_V1.2.1/Drivers/PY32F002B_HAL_Driver/Src/py32f002b_hal_gpio.c ****   /* Prevent unused argument(s) compilation warning */
 500:../../../PY32F002B_Firmware_V1.2.1/PY32F002B_Firmware_V1.2.1/Drivers/PY32F002B_HAL_Driver/Src/py32f002b_hal_gpio.c ****   UNUSED(GPIO_Pin);
 925              		.loc 1 500 3 view .LVU307
 501:../../../PY32F002B_Firmware_V1.2.1/PY32F002B_Firmware_V1.2.1/Drivers/PY32F002B_HAL_Driver/Src/py32f002b_hal_gpio.c **** 
 502:../../../PY32F002B_Firmware_V1.2.1/PY32F002B_Firmware_V1.2.1/Drivers/PY32F002B_HAL_Driver/Src/py32f002b_hal_gpio.c ****   /* NOTE: This function should not be modified, when the callback is needed,
 503:../../../PY32F002B_Firmware_V1.2.1/PY32F002B_Firmware_V1.2.1/Drivers/PY32F002B_HAL_Driver/Src/py32f002b_hal_gpio.c ****             the HAL_GPIO_EXTI_Callback could be implemented in the user file
 504:../../../PY32F002B_Firmware_V1.2.1/PY32F002B_Firmware_V1.2.1/Drivers/PY32F002B_HAL_Driver/Src/py32f002b_hal_gpio.c ****    */
 505:../../../PY32F002B_Firmware_V1.2.1/PY32F002B_Firmware_V1.2.1/Drivers/PY32F002B_HAL_Driver/Src/py32f002b_hal_gpio.c **** }
 926              		.loc 1 505 1 is_stmt 0 view .LVU308
 927              		@ sp needed
 928 0000 7047     		bx	lr
 929              		.cfi_endproc
 930              	.LFE43:
 932              		.section	.text.HAL_GPIO_EXTI_IRQHandler,"ax",%progbits
 933              		.align	1
 934              		.global	HAL_GPIO_EXTI_IRQHandler
 935              		.syntax unified
 936              		.code	16
 937              		.thumb_func
 939              	HAL_GPIO_EXTI_IRQHandler:
 940              	.LVL80:
 941              	.LFB44:
 506:../../../PY32F002B_Firmware_V1.2.1/PY32F002B_Firmware_V1.2.1/Drivers/PY32F002B_HAL_Driver/Src/py32f002b_hal_gpio.c **** /**
 507:../../../PY32F002B_Firmware_V1.2.1/PY32F002B_Firmware_V1.2.1/Drivers/PY32F002B_HAL_Driver/Src/py32f002b_hal_gpio.c ****   * @brief  Handle EXTI interrupt request.
 508:../../../PY32F002B_Firmware_V1.2.1/PY32F002B_Firmware_V1.2.1/Drivers/PY32F002B_HAL_Driver/Src/py32f002b_hal_gpio.c ****   * @param  GPIO_Pin Specifies the port pin connected to corresponding EXTI line.
 509:../../../PY32F002B_Firmware_V1.2.1/PY32F002B_Firmware_V1.2.1/Drivers/PY32F002B_HAL_Driver/Src/py32f002b_hal_gpio.c ****   * @retval None
ARM GAS  C:\Users\Gautam\AppData\Local\Temp\cc6Hfolp.s 			page 28


 510:../../../PY32F002B_Firmware_V1.2.1/PY32F002B_Firmware_V1.2.1/Drivers/PY32F002B_HAL_Driver/Src/py32f002b_hal_gpio.c ****   */
 511:../../../PY32F002B_Firmware_V1.2.1/PY32F002B_Firmware_V1.2.1/Drivers/PY32F002B_HAL_Driver/Src/py32f002b_hal_gpio.c **** void HAL_GPIO_EXTI_IRQHandler(uint16_t GPIO_Pin)
 512:../../../PY32F002B_Firmware_V1.2.1/PY32F002B_Firmware_V1.2.1/Drivers/PY32F002B_HAL_Driver/Src/py32f002b_hal_gpio.c **** {
 942              		.loc 1 512 1 is_stmt 1 view -0
 943              		.cfi_startproc
 944              		@ args = 0, pretend = 0, frame = 0
 945              		@ frame_needed = 0, uses_anonymous_args = 0
 946              		.loc 1 512 1 is_stmt 0 view .LVU310
 947 0000 10B5     		push	{r4, lr}
 948              	.LCFI5:
 949              		.cfi_def_cfa_offset 8
 950              		.cfi_offset 4, -8
 951              		.cfi_offset 14, -4
 513:../../../PY32F002B_Firmware_V1.2.1/PY32F002B_Firmware_V1.2.1/Drivers/PY32F002B_HAL_Driver/Src/py32f002b_hal_gpio.c ****   /* EXTI line interrupt detected */
 514:../../../PY32F002B_Firmware_V1.2.1/PY32F002B_Firmware_V1.2.1/Drivers/PY32F002B_HAL_Driver/Src/py32f002b_hal_gpio.c ****   if(__HAL_GPIO_EXTI_GET_IT(GPIO_Pin) != 0x00u)
 952              		.loc 1 514 3 is_stmt 1 view .LVU311
 953              		.loc 1 514 6 is_stmt 0 view .LVU312
 954 0002 054B     		ldr	r3, .L54
 955 0004 DB68     		ldr	r3, [r3, #12]
 956              		.loc 1 514 5 view .LVU313
 957 0006 1842     		tst	r0, r3
 958 0008 00D1     		bne	.L53
 959              	.LVL81:
 960              	.L51:
 515:../../../PY32F002B_Firmware_V1.2.1/PY32F002B_Firmware_V1.2.1/Drivers/PY32F002B_HAL_Driver/Src/py32f002b_hal_gpio.c ****   {
 516:../../../PY32F002B_Firmware_V1.2.1/PY32F002B_Firmware_V1.2.1/Drivers/PY32F002B_HAL_Driver/Src/py32f002b_hal_gpio.c ****     __HAL_GPIO_EXTI_CLEAR_IT(GPIO_Pin);
 517:../../../PY32F002B_Firmware_V1.2.1/PY32F002B_Firmware_V1.2.1/Drivers/PY32F002B_HAL_Driver/Src/py32f002b_hal_gpio.c ****     HAL_GPIO_EXTI_Callback(GPIO_Pin);
 518:../../../PY32F002B_Firmware_V1.2.1/PY32F002B_Firmware_V1.2.1/Drivers/PY32F002B_HAL_Driver/Src/py32f002b_hal_gpio.c ****   }
 519:../../../PY32F002B_Firmware_V1.2.1/PY32F002B_Firmware_V1.2.1/Drivers/PY32F002B_HAL_Driver/Src/py32f002b_hal_gpio.c **** }
 961              		.loc 1 519 1 view .LVU314
 962              		@ sp needed
 963 000a 10BD     		pop	{r4, pc}
 964              	.LVL82:
 965              	.L53:
 516:../../../PY32F002B_Firmware_V1.2.1/PY32F002B_Firmware_V1.2.1/Drivers/PY32F002B_HAL_Driver/Src/py32f002b_hal_gpio.c ****     HAL_GPIO_EXTI_Callback(GPIO_Pin);
 966              		.loc 1 516 5 is_stmt 1 view .LVU315
 967 000c 024B     		ldr	r3, .L54
 968 000e D860     		str	r0, [r3, #12]
 517:../../../PY32F002B_Firmware_V1.2.1/PY32F002B_Firmware_V1.2.1/Drivers/PY32F002B_HAL_Driver/Src/py32f002b_hal_gpio.c ****   }
 969              		.loc 1 517 5 view .LVU316
 970 0010 FFF7FEFF 		bl	HAL_GPIO_EXTI_Callback
 971              	.LVL83:
 972              		.loc 1 519 1 is_stmt 0 view .LVU317
 973 0014 F9E7     		b	.L51
 974              	.L55:
 975 0016 C046     		.align	2
 976              	.L54:
 977 0018 00180240 		.word	1073879040
 978              		.cfi_endproc
 979              	.LFE44:
 981              		.text
 982              	.Letext0:
 983              		.file 2 "C:/Program Files (x86)/Arm GNU Toolchain arm-none-eabi/14.3 rel1/arm-none-eabi/include/ma
 984              		.file 3 "C:/Program Files (x86)/Arm GNU Toolchain arm-none-eabi/14.3 rel1/arm-none-eabi/include/sy
 985              		.file 4 "../../../PY32F002B_Firmware_V1.2.1/PY32F002B_Firmware_V1.2.1/Drivers/CMSIS/Device/PY32F0x
 986              		.file 5 "../../../PY32F002B_Firmware_V1.2.1/PY32F002B_Firmware_V1.2.1/Drivers/PY32F002B_HAL_Driver
 987              		.file 6 "../../../PY32F002B_Firmware_V1.2.1/PY32F002B_Firmware_V1.2.1/Drivers/PY32F002B_HAL_Driver
ARM GAS  C:\Users\Gautam\AppData\Local\Temp\cc6Hfolp.s 			page 29


ARM GAS  C:\Users\Gautam\AppData\Local\Temp\cc6Hfolp.s 			page 30

