ARM GAS  C:\Users\Gautam\AppData\Local\Temp\cccR5ChD.s 			page 1


   1              		.cpu cortex-m0plus
   2              		.arch armv6s-m
   3              		.fpu softvfp
   4              		.eabi_attribute 20, 1
   5              		.eabi_attribute 21, 1
   6              		.eabi_attribute 23, 3
   7              		.eabi_attribute 24, 1
   8              		.eabi_attribute 25, 1
   9              		.eabi_attribute 26, 1
  10              		.eabi_attribute 30, 1
  11              		.eabi_attribute 34, 0
  12              		.eabi_attribute 18, 4
  13              		.file	"py32f002b_hal_pwr.c"
  14              		.text
  15              	.Ltext0:
  16              		.cfi_sections	.debug_frame
  17              		.file 1 "../../../PY32F002B_Firmware_V1.2.1/PY32F002B_Firmware_V1.2.1/Drivers/PY32F002B_HAL_Driver
  18              		.section	.text.HAL_PWR_DeInit,"ax",%progbits
  19              		.align	1
  20              		.global	HAL_PWR_DeInit
  21              		.syntax unified
  22              		.code	16
  23              		.thumb_func
  25              	HAL_PWR_DeInit:
  26              	.LFB37:
   1:../../../PY32F002B_Firmware_V1.2.1/PY32F002B_Firmware_V1.2.1/Drivers/PY32F002B_HAL_Driver/Src/py32f002b_hal_pwr.c **** /**
   2:../../../PY32F002B_Firmware_V1.2.1/PY32F002B_Firmware_V1.2.1/Drivers/PY32F002B_HAL_Driver/Src/py32f002b_hal_pwr.c ****   ******************************************************************************
   3:../../../PY32F002B_Firmware_V1.2.1/PY32F002B_Firmware_V1.2.1/Drivers/PY32F002B_HAL_Driver/Src/py32f002b_hal_pwr.c ****   * @file    py32f002b_hal_pwr.c
   4:../../../PY32F002B_Firmware_V1.2.1/PY32F002B_Firmware_V1.2.1/Drivers/PY32F002B_HAL_Driver/Src/py32f002b_hal_pwr.c ****   * @author  MCU Application Team
   5:../../../PY32F002B_Firmware_V1.2.1/PY32F002B_Firmware_V1.2.1/Drivers/PY32F002B_HAL_Driver/Src/py32f002b_hal_pwr.c ****   * @brief   PWR HAL module driver.
   6:../../../PY32F002B_Firmware_V1.2.1/PY32F002B_Firmware_V1.2.1/Drivers/PY32F002B_HAL_Driver/Src/py32f002b_hal_pwr.c ****   *          This file provides firmware functions to manage the following
   7:../../../PY32F002B_Firmware_V1.2.1/PY32F002B_Firmware_V1.2.1/Drivers/PY32F002B_HAL_Driver/Src/py32f002b_hal_pwr.c ****   *          functionalities of the Power Controller (PWR) peripheral:
   8:../../../PY32F002B_Firmware_V1.2.1/PY32F002B_Firmware_V1.2.1/Drivers/PY32F002B_HAL_Driver/Src/py32f002b_hal_pwr.c ****   *           + Initialization/de-initialization functions
   9:../../../PY32F002B_Firmware_V1.2.1/PY32F002B_Firmware_V1.2.1/Drivers/PY32F002B_HAL_Driver/Src/py32f002b_hal_pwr.c ****   *           + Peripheral Control functions
  10:../../../PY32F002B_Firmware_V1.2.1/PY32F002B_Firmware_V1.2.1/Drivers/PY32F002B_HAL_Driver/Src/py32f002b_hal_pwr.c ****   *
  11:../../../PY32F002B_Firmware_V1.2.1/PY32F002B_Firmware_V1.2.1/Drivers/PY32F002B_HAL_Driver/Src/py32f002b_hal_pwr.c ****   ******************************************************************************
  12:../../../PY32F002B_Firmware_V1.2.1/PY32F002B_Firmware_V1.2.1/Drivers/PY32F002B_HAL_Driver/Src/py32f002b_hal_pwr.c ****   * @attention
  13:../../../PY32F002B_Firmware_V1.2.1/PY32F002B_Firmware_V1.2.1/Drivers/PY32F002B_HAL_Driver/Src/py32f002b_hal_pwr.c ****   *
  14:../../../PY32F002B_Firmware_V1.2.1/PY32F002B_Firmware_V1.2.1/Drivers/PY32F002B_HAL_Driver/Src/py32f002b_hal_pwr.c ****   * <h2><center>&copy; Copyright (c) 2023 Puya Semiconductor Co.
  15:../../../PY32F002B_Firmware_V1.2.1/PY32F002B_Firmware_V1.2.1/Drivers/PY32F002B_HAL_Driver/Src/py32f002b_hal_pwr.c ****   * All rights reserved.</center></h2>
  16:../../../PY32F002B_Firmware_V1.2.1/PY32F002B_Firmware_V1.2.1/Drivers/PY32F002B_HAL_Driver/Src/py32f002b_hal_pwr.c ****   *
  17:../../../PY32F002B_Firmware_V1.2.1/PY32F002B_Firmware_V1.2.1/Drivers/PY32F002B_HAL_Driver/Src/py32f002b_hal_pwr.c ****   * This software component is licensed by Puya under BSD 3-Clause license,
  18:../../../PY32F002B_Firmware_V1.2.1/PY32F002B_Firmware_V1.2.1/Drivers/PY32F002B_HAL_Driver/Src/py32f002b_hal_pwr.c ****   * the "License"; You may not use this file except in compliance with the
  19:../../../PY32F002B_Firmware_V1.2.1/PY32F002B_Firmware_V1.2.1/Drivers/PY32F002B_HAL_Driver/Src/py32f002b_hal_pwr.c ****   * License. You may obtain a copy of the License at:
  20:../../../PY32F002B_Firmware_V1.2.1/PY32F002B_Firmware_V1.2.1/Drivers/PY32F002B_HAL_Driver/Src/py32f002b_hal_pwr.c ****   *                        opensource.org/licenses/BSD-3-Clause
  21:../../../PY32F002B_Firmware_V1.2.1/PY32F002B_Firmware_V1.2.1/Drivers/PY32F002B_HAL_Driver/Src/py32f002b_hal_pwr.c ****   *
  22:../../../PY32F002B_Firmware_V1.2.1/PY32F002B_Firmware_V1.2.1/Drivers/PY32F002B_HAL_Driver/Src/py32f002b_hal_pwr.c ****   ******************************************************************************
  23:../../../PY32F002B_Firmware_V1.2.1/PY32F002B_Firmware_V1.2.1/Drivers/PY32F002B_HAL_Driver/Src/py32f002b_hal_pwr.c ****   * @attention
  24:../../../PY32F002B_Firmware_V1.2.1/PY32F002B_Firmware_V1.2.1/Drivers/PY32F002B_HAL_Driver/Src/py32f002b_hal_pwr.c ****   *
  25:../../../PY32F002B_Firmware_V1.2.1/PY32F002B_Firmware_V1.2.1/Drivers/PY32F002B_HAL_Driver/Src/py32f002b_hal_pwr.c ****   * <h2><center>&copy; Copyright (c) 2016 STMicroelectronics.
  26:../../../PY32F002B_Firmware_V1.2.1/PY32F002B_Firmware_V1.2.1/Drivers/PY32F002B_HAL_Driver/Src/py32f002b_hal_pwr.c ****   * All rights reserved.</center></h2>
  27:../../../PY32F002B_Firmware_V1.2.1/PY32F002B_Firmware_V1.2.1/Drivers/PY32F002B_HAL_Driver/Src/py32f002b_hal_pwr.c ****   *
  28:../../../PY32F002B_Firmware_V1.2.1/PY32F002B_Firmware_V1.2.1/Drivers/PY32F002B_HAL_Driver/Src/py32f002b_hal_pwr.c ****   * This software component is licensed by ST under BSD 3-Clause license,
  29:../../../PY32F002B_Firmware_V1.2.1/PY32F002B_Firmware_V1.2.1/Drivers/PY32F002B_HAL_Driver/Src/py32f002b_hal_pwr.c ****   * the "License"; You may not use this file except in compliance with the
  30:../../../PY32F002B_Firmware_V1.2.1/PY32F002B_Firmware_V1.2.1/Drivers/PY32F002B_HAL_Driver/Src/py32f002b_hal_pwr.c ****   * License. You may obtain a copy of the License at:
  31:../../../PY32F002B_Firmware_V1.2.1/PY32F002B_Firmware_V1.2.1/Drivers/PY32F002B_HAL_Driver/Src/py32f002b_hal_pwr.c ****   *                        opensource.org/licenses/BSD-3-Clause
  32:../../../PY32F002B_Firmware_V1.2.1/PY32F002B_Firmware_V1.2.1/Drivers/PY32F002B_HAL_Driver/Src/py32f002b_hal_pwr.c ****   *
ARM GAS  C:\Users\Gautam\AppData\Local\Temp\cccR5ChD.s 			page 2


  33:../../../PY32F002B_Firmware_V1.2.1/PY32F002B_Firmware_V1.2.1/Drivers/PY32F002B_HAL_Driver/Src/py32f002b_hal_pwr.c ****   ******************************************************************************
  34:../../../PY32F002B_Firmware_V1.2.1/PY32F002B_Firmware_V1.2.1/Drivers/PY32F002B_HAL_Driver/Src/py32f002b_hal_pwr.c ****   */
  35:../../../PY32F002B_Firmware_V1.2.1/PY32F002B_Firmware_V1.2.1/Drivers/PY32F002B_HAL_Driver/Src/py32f002b_hal_pwr.c **** 
  36:../../../PY32F002B_Firmware_V1.2.1/PY32F002B_Firmware_V1.2.1/Drivers/PY32F002B_HAL_Driver/Src/py32f002b_hal_pwr.c **** /* Includes ------------------------------------------------------------------*/
  37:../../../PY32F002B_Firmware_V1.2.1/PY32F002B_Firmware_V1.2.1/Drivers/PY32F002B_HAL_Driver/Src/py32f002b_hal_pwr.c **** #include "py32f0xx_hal.h"
  38:../../../PY32F002B_Firmware_V1.2.1/PY32F002B_Firmware_V1.2.1/Drivers/PY32F002B_HAL_Driver/Src/py32f002b_hal_pwr.c **** 
  39:../../../PY32F002B_Firmware_V1.2.1/PY32F002B_Firmware_V1.2.1/Drivers/PY32F002B_HAL_Driver/Src/py32f002b_hal_pwr.c **** /** @addtogroup PY32F002B_HAL_Driver
  40:../../../PY32F002B_Firmware_V1.2.1/PY32F002B_Firmware_V1.2.1/Drivers/PY32F002B_HAL_Driver/Src/py32f002b_hal_pwr.c ****   * @{
  41:../../../PY32F002B_Firmware_V1.2.1/PY32F002B_Firmware_V1.2.1/Drivers/PY32F002B_HAL_Driver/Src/py32f002b_hal_pwr.c ****   */
  42:../../../PY32F002B_Firmware_V1.2.1/PY32F002B_Firmware_V1.2.1/Drivers/PY32F002B_HAL_Driver/Src/py32f002b_hal_pwr.c **** 
  43:../../../PY32F002B_Firmware_V1.2.1/PY32F002B_Firmware_V1.2.1/Drivers/PY32F002B_HAL_Driver/Src/py32f002b_hal_pwr.c **** /** @addtogroup PWR
  44:../../../PY32F002B_Firmware_V1.2.1/PY32F002B_Firmware_V1.2.1/Drivers/PY32F002B_HAL_Driver/Src/py32f002b_hal_pwr.c ****   * @{
  45:../../../PY32F002B_Firmware_V1.2.1/PY32F002B_Firmware_V1.2.1/Drivers/PY32F002B_HAL_Driver/Src/py32f002b_hal_pwr.c ****   */
  46:../../../PY32F002B_Firmware_V1.2.1/PY32F002B_Firmware_V1.2.1/Drivers/PY32F002B_HAL_Driver/Src/py32f002b_hal_pwr.c **** 
  47:../../../PY32F002B_Firmware_V1.2.1/PY32F002B_Firmware_V1.2.1/Drivers/PY32F002B_HAL_Driver/Src/py32f002b_hal_pwr.c **** #ifdef HAL_PWR_MODULE_ENABLED
  48:../../../PY32F002B_Firmware_V1.2.1/PY32F002B_Firmware_V1.2.1/Drivers/PY32F002B_HAL_Driver/Src/py32f002b_hal_pwr.c **** 
  49:../../../PY32F002B_Firmware_V1.2.1/PY32F002B_Firmware_V1.2.1/Drivers/PY32F002B_HAL_Driver/Src/py32f002b_hal_pwr.c **** /* Private typedef -----------------------------------------------------------*/
  50:../../../PY32F002B_Firmware_V1.2.1/PY32F002B_Firmware_V1.2.1/Drivers/PY32F002B_HAL_Driver/Src/py32f002b_hal_pwr.c **** /* Private define ------------------------------------------------------------*/
  51:../../../PY32F002B_Firmware_V1.2.1/PY32F002B_Firmware_V1.2.1/Drivers/PY32F002B_HAL_Driver/Src/py32f002b_hal_pwr.c **** /* Private macro -------------------------------------------------------------*/
  52:../../../PY32F002B_Firmware_V1.2.1/PY32F002B_Firmware_V1.2.1/Drivers/PY32F002B_HAL_Driver/Src/py32f002b_hal_pwr.c **** /* Private variables ---------------------------------------------------------*/
  53:../../../PY32F002B_Firmware_V1.2.1/PY32F002B_Firmware_V1.2.1/Drivers/PY32F002B_HAL_Driver/Src/py32f002b_hal_pwr.c **** /* Private function prototypes -----------------------------------------------*/
  54:../../../PY32F002B_Firmware_V1.2.1/PY32F002B_Firmware_V1.2.1/Drivers/PY32F002B_HAL_Driver/Src/py32f002b_hal_pwr.c **** /* Exported functions --------------------------------------------------------*/
  55:../../../PY32F002B_Firmware_V1.2.1/PY32F002B_Firmware_V1.2.1/Drivers/PY32F002B_HAL_Driver/Src/py32f002b_hal_pwr.c **** /** @addtogroup PWR_Exported_Functions  PWR Exported Functions
  56:../../../PY32F002B_Firmware_V1.2.1/PY32F002B_Firmware_V1.2.1/Drivers/PY32F002B_HAL_Driver/Src/py32f002b_hal_pwr.c ****   * @{
  57:../../../PY32F002B_Firmware_V1.2.1/PY32F002B_Firmware_V1.2.1/Drivers/PY32F002B_HAL_Driver/Src/py32f002b_hal_pwr.c ****   */
  58:../../../PY32F002B_Firmware_V1.2.1/PY32F002B_Firmware_V1.2.1/Drivers/PY32F002B_HAL_Driver/Src/py32f002b_hal_pwr.c **** 
  59:../../../PY32F002B_Firmware_V1.2.1/PY32F002B_Firmware_V1.2.1/Drivers/PY32F002B_HAL_Driver/Src/py32f002b_hal_pwr.c **** /** @addtogroup PWR_Exported_Functions_Group1  Initialization and de-initialization functions
  60:../../../PY32F002B_Firmware_V1.2.1/PY32F002B_Firmware_V1.2.1/Drivers/PY32F002B_HAL_Driver/Src/py32f002b_hal_pwr.c ****   * @brief  Initialization and de-initialization functions
  61:../../../PY32F002B_Firmware_V1.2.1/PY32F002B_Firmware_V1.2.1/Drivers/PY32F002B_HAL_Driver/Src/py32f002b_hal_pwr.c ****   *
  62:../../../PY32F002B_Firmware_V1.2.1/PY32F002B_Firmware_V1.2.1/Drivers/PY32F002B_HAL_Driver/Src/py32f002b_hal_pwr.c **** @verbatim
  63:../../../PY32F002B_Firmware_V1.2.1/PY32F002B_Firmware_V1.2.1/Drivers/PY32F002B_HAL_Driver/Src/py32f002b_hal_pwr.c ****  ===============================================================================
  64:../../../PY32F002B_Firmware_V1.2.1/PY32F002B_Firmware_V1.2.1/Drivers/PY32F002B_HAL_Driver/Src/py32f002b_hal_pwr.c ****               ##### Initialization and de-initialization functions #####
  65:../../../PY32F002B_Firmware_V1.2.1/PY32F002B_Firmware_V1.2.1/Drivers/PY32F002B_HAL_Driver/Src/py32f002b_hal_pwr.c ****  ===============================================================================
  66:../../../PY32F002B_Firmware_V1.2.1/PY32F002B_Firmware_V1.2.1/Drivers/PY32F002B_HAL_Driver/Src/py32f002b_hal_pwr.c ****     [..]
  67:../../../PY32F002B_Firmware_V1.2.1/PY32F002B_Firmware_V1.2.1/Drivers/PY32F002B_HAL_Driver/Src/py32f002b_hal_pwr.c **** 
  68:../../../PY32F002B_Firmware_V1.2.1/PY32F002B_Firmware_V1.2.1/Drivers/PY32F002B_HAL_Driver/Src/py32f002b_hal_pwr.c **** @endverbatim
  69:../../../PY32F002B_Firmware_V1.2.1/PY32F002B_Firmware_V1.2.1/Drivers/PY32F002B_HAL_Driver/Src/py32f002b_hal_pwr.c ****   * @{
  70:../../../PY32F002B_Firmware_V1.2.1/PY32F002B_Firmware_V1.2.1/Drivers/PY32F002B_HAL_Driver/Src/py32f002b_hal_pwr.c ****   */
  71:../../../PY32F002B_Firmware_V1.2.1/PY32F002B_Firmware_V1.2.1/Drivers/PY32F002B_HAL_Driver/Src/py32f002b_hal_pwr.c **** 
  72:../../../PY32F002B_Firmware_V1.2.1/PY32F002B_Firmware_V1.2.1/Drivers/PY32F002B_HAL_Driver/Src/py32f002b_hal_pwr.c **** /**
  73:../../../PY32F002B_Firmware_V1.2.1/PY32F002B_Firmware_V1.2.1/Drivers/PY32F002B_HAL_Driver/Src/py32f002b_hal_pwr.c ****   * @brief  Deinitialize the HAL PWR peripheral registers to their default reset
  74:../../../PY32F002B_Firmware_V1.2.1/PY32F002B_Firmware_V1.2.1/Drivers/PY32F002B_HAL_Driver/Src/py32f002b_hal_pwr.c ****             values.
  75:../../../PY32F002B_Firmware_V1.2.1/PY32F002B_Firmware_V1.2.1/Drivers/PY32F002B_HAL_Driver/Src/py32f002b_hal_pwr.c ****   * @retval None
  76:../../../PY32F002B_Firmware_V1.2.1/PY32F002B_Firmware_V1.2.1/Drivers/PY32F002B_HAL_Driver/Src/py32f002b_hal_pwr.c ****   */
  77:../../../PY32F002B_Firmware_V1.2.1/PY32F002B_Firmware_V1.2.1/Drivers/PY32F002B_HAL_Driver/Src/py32f002b_hal_pwr.c **** void HAL_PWR_DeInit(void)
  78:../../../PY32F002B_Firmware_V1.2.1/PY32F002B_Firmware_V1.2.1/Drivers/PY32F002B_HAL_Driver/Src/py32f002b_hal_pwr.c **** {
  27              		.loc 1 78 1 view -0
  28              		.cfi_startproc
  29              		@ args = 0, pretend = 0, frame = 0
  30              		@ frame_needed = 0, uses_anonymous_args = 0
  31              		@ link register save eliminated.
  79:../../../PY32F002B_Firmware_V1.2.1/PY32F002B_Firmware_V1.2.1/Drivers/PY32F002B_HAL_Driver/Src/py32f002b_hal_pwr.c ****   __HAL_RCC_PWR_FORCE_RESET();
  32              		.loc 1 79 3 view .LVU1
  33 0000 054B     		ldr	r3, .L2
  34 0002 D96A     		ldr	r1, [r3, #44]
  35 0004 8022     		movs	r2, #128
  36 0006 5205     		lsls	r2, r2, #21
ARM GAS  C:\Users\Gautam\AppData\Local\Temp\cccR5ChD.s 			page 3


  37 0008 0A43     		orrs	r2, r1
  38 000a DA62     		str	r2, [r3, #44]
  80:../../../PY32F002B_Firmware_V1.2.1/PY32F002B_Firmware_V1.2.1/Drivers/PY32F002B_HAL_Driver/Src/py32f002b_hal_pwr.c ****   __HAL_RCC_PWR_RELEASE_RESET();
  39              		.loc 1 80 3 view .LVU2
  40 000c DA6A     		ldr	r2, [r3, #44]
  41 000e 0349     		ldr	r1, .L2+4
  42 0010 0A40     		ands	r2, r1
  43 0012 DA62     		str	r2, [r3, #44]
  81:../../../PY32F002B_Firmware_V1.2.1/PY32F002B_Firmware_V1.2.1/Drivers/PY32F002B_HAL_Driver/Src/py32f002b_hal_pwr.c **** }
  44              		.loc 1 81 1 is_stmt 0 view .LVU3
  45              		@ sp needed
  46 0014 7047     		bx	lr
  47              	.L3:
  48 0016 C046     		.align	2
  49              	.L2:
  50 0018 00100240 		.word	1073876992
  51 001c FFFFFFEF 		.word	-268435457
  52              		.cfi_endproc
  53              	.LFE37:
  55              		.section	.text.HAL_PWR_ConfigStopMode,"ax",%progbits
  56              		.align	1
  57              		.global	HAL_PWR_ConfigStopMode
  58              		.syntax unified
  59              		.code	16
  60              		.thumb_func
  62              	HAL_PWR_ConfigStopMode:
  63              	.LVL0:
  64              	.LFB38:
  82:../../../PY32F002B_Firmware_V1.2.1/PY32F002B_Firmware_V1.2.1/Drivers/PY32F002B_HAL_Driver/Src/py32f002b_hal_pwr.c **** 
  83:../../../PY32F002B_Firmware_V1.2.1/PY32F002B_Firmware_V1.2.1/Drivers/PY32F002B_HAL_Driver/Src/py32f002b_hal_pwr.c **** /**
  84:../../../PY32F002B_Firmware_V1.2.1/PY32F002B_Firmware_V1.2.1/Drivers/PY32F002B_HAL_Driver/Src/py32f002b_hal_pwr.c ****   * @}
  85:../../../PY32F002B_Firmware_V1.2.1/PY32F002B_Firmware_V1.2.1/Drivers/PY32F002B_HAL_Driver/Src/py32f002b_hal_pwr.c ****   */
  86:../../../PY32F002B_Firmware_V1.2.1/PY32F002B_Firmware_V1.2.1/Drivers/PY32F002B_HAL_Driver/Src/py32f002b_hal_pwr.c **** 
  87:../../../PY32F002B_Firmware_V1.2.1/PY32F002B_Firmware_V1.2.1/Drivers/PY32F002B_HAL_Driver/Src/py32f002b_hal_pwr.c **** /** @addtogroup PWR_Exported_Functions_Group2  Peripheral Control functions
  88:../../../PY32F002B_Firmware_V1.2.1/PY32F002B_Firmware_V1.2.1/Drivers/PY32F002B_HAL_Driver/Src/py32f002b_hal_pwr.c ****   *  @brief Low Power modes configuration functions
  89:../../../PY32F002B_Firmware_V1.2.1/PY32F002B_Firmware_V1.2.1/Drivers/PY32F002B_HAL_Driver/Src/py32f002b_hal_pwr.c ****   *
  90:../../../PY32F002B_Firmware_V1.2.1/PY32F002B_Firmware_V1.2.1/Drivers/PY32F002B_HAL_Driver/Src/py32f002b_hal_pwr.c **** @verbatim
  91:../../../PY32F002B_Firmware_V1.2.1/PY32F002B_Firmware_V1.2.1/Drivers/PY32F002B_HAL_Driver/Src/py32f002b_hal_pwr.c **** 
  92:../../../PY32F002B_Firmware_V1.2.1/PY32F002B_Firmware_V1.2.1/Drivers/PY32F002B_HAL_Driver/Src/py32f002b_hal_pwr.c ****  ===============================================================================
  93:../../../PY32F002B_Firmware_V1.2.1/PY32F002B_Firmware_V1.2.1/Drivers/PY32F002B_HAL_Driver/Src/py32f002b_hal_pwr.c ****                  ##### Peripheral Control functions #####
  94:../../../PY32F002B_Firmware_V1.2.1/PY32F002B_Firmware_V1.2.1/Drivers/PY32F002B_HAL_Driver/Src/py32f002b_hal_pwr.c ****  ===============================================================================
  95:../../../PY32F002B_Firmware_V1.2.1/PY32F002B_Firmware_V1.2.1/Drivers/PY32F002B_HAL_Driver/Src/py32f002b_hal_pwr.c **** 
  96:../../../PY32F002B_Firmware_V1.2.1/PY32F002B_Firmware_V1.2.1/Drivers/PY32F002B_HAL_Driver/Src/py32f002b_hal_pwr.c ****     [..]
  97:../../../PY32F002B_Firmware_V1.2.1/PY32F002B_Firmware_V1.2.1/Drivers/PY32F002B_HAL_Driver/Src/py32f002b_hal_pwr.c ****      *** PVD configuration ***
  98:../../../PY32F002B_Firmware_V1.2.1/PY32F002B_Firmware_V1.2.1/Drivers/PY32F002B_HAL_Driver/Src/py32f002b_hal_pwr.c ****     =========================
  99:../../../PY32F002B_Firmware_V1.2.1/PY32F002B_Firmware_V1.2.1/Drivers/PY32F002B_HAL_Driver/Src/py32f002b_hal_pwr.c ****     [..]
 100:../../../PY32F002B_Firmware_V1.2.1/PY32F002B_Firmware_V1.2.1/Drivers/PY32F002B_HAL_Driver/Src/py32f002b_hal_pwr.c ****       (+) The PVD is used to monitor the VDD power supply by comparing it to a
 101:../../../PY32F002B_Firmware_V1.2.1/PY32F002B_Firmware_V1.2.1/Drivers/PY32F002B_HAL_Driver/Src/py32f002b_hal_pwr.c ****           threshold selected by the PVD Level (PVDT[2:0]bits in PWR CR2 register).
 102:../../../PY32F002B_Firmware_V1.2.1/PY32F002B_Firmware_V1.2.1/Drivers/PY32F002B_HAL_Driver/Src/py32f002b_hal_pwr.c ****       (+) PVDO flag is available to indicate if VDD/VDDA is higher or lower
 103:../../../PY32F002B_Firmware_V1.2.1/PY32F002B_Firmware_V1.2.1/Drivers/PY32F002B_HAL_Driver/Src/py32f002b_hal_pwr.c ****           than the PVD threshold. This event is internally connected to the EXTI
 104:../../../PY32F002B_Firmware_V1.2.1/PY32F002B_Firmware_V1.2.1/Drivers/PY32F002B_HAL_Driver/Src/py32f002b_hal_pwr.c ****           line 16 and can generate an interrupt if enabled.
 105:../../../PY32F002B_Firmware_V1.2.1/PY32F002B_Firmware_V1.2.1/Drivers/PY32F002B_HAL_Driver/Src/py32f002b_hal_pwr.c ****       (+) The PVD is stopped in Standby mode.
 106:../../../PY32F002B_Firmware_V1.2.1/PY32F002B_Firmware_V1.2.1/Drivers/PY32F002B_HAL_Driver/Src/py32f002b_hal_pwr.c **** 
 107:../../../PY32F002B_Firmware_V1.2.1/PY32F002B_Firmware_V1.2.1/Drivers/PY32F002B_HAL_Driver/Src/py32f002b_hal_pwr.c ****     *** WakeUp pin configuration ***
 108:../../../PY32F002B_Firmware_V1.2.1/PY32F002B_Firmware_V1.2.1/Drivers/PY32F002B_HAL_Driver/Src/py32f002b_hal_pwr.c ****     ================================
 109:../../../PY32F002B_Firmware_V1.2.1/PY32F002B_Firmware_V1.2.1/Drivers/PY32F002B_HAL_Driver/Src/py32f002b_hal_pwr.c ****     [..]
 110:../../../PY32F002B_Firmware_V1.2.1/PY32F002B_Firmware_V1.2.1/Drivers/PY32F002B_HAL_Driver/Src/py32f002b_hal_pwr.c ****       (+) WakeUp pins are used to wakeup the system from Standby mode or
ARM GAS  C:\Users\Gautam\AppData\Local\Temp\cccR5ChD.s 			page 4


 111:../../../PY32F002B_Firmware_V1.2.1/PY32F002B_Firmware_V1.2.1/Drivers/PY32F002B_HAL_Driver/Src/py32f002b_hal_pwr.c ****           Shutdown mode. WakeUp pins polarity can be set to configure event
 112:../../../PY32F002B_Firmware_V1.2.1/PY32F002B_Firmware_V1.2.1/Drivers/PY32F002B_HAL_Driver/Src/py32f002b_hal_pwr.c ****           detection on high level (rising edge) or low level (falling edge).
 113:../../../PY32F002B_Firmware_V1.2.1/PY32F002B_Firmware_V1.2.1/Drivers/PY32F002B_HAL_Driver/Src/py32f002b_hal_pwr.c **** 
 114:../../../PY32F002B_Firmware_V1.2.1/PY32F002B_Firmware_V1.2.1/Drivers/PY32F002B_HAL_Driver/Src/py32f002b_hal_pwr.c ****     *** Low Power mode configuration ***
 115:../../../PY32F002B_Firmware_V1.2.1/PY32F002B_Firmware_V1.2.1/Drivers/PY32F002B_HAL_Driver/Src/py32f002b_hal_pwr.c ****     =====================================
 116:../../../PY32F002B_Firmware_V1.2.1/PY32F002B_Firmware_V1.2.1/Drivers/PY32F002B_HAL_Driver/Src/py32f002b_hal_pwr.c ****     [..]
 117:../../../PY32F002B_Firmware_V1.2.1/PY32F002B_Firmware_V1.2.1/Drivers/PY32F002B_HAL_Driver/Src/py32f002b_hal_pwr.c ****       The devices feature 7 low-power modes:
 118:../../../PY32F002B_Firmware_V1.2.1/PY32F002B_Firmware_V1.2.1/Drivers/PY32F002B_HAL_Driver/Src/py32f002b_hal_pwr.c ****       (+) Low-power run mode: core and peripherals are running at low frequency.
 119:../../../PY32F002B_Firmware_V1.2.1/PY32F002B_Firmware_V1.2.1/Drivers/PY32F002B_HAL_Driver/Src/py32f002b_hal_pwr.c ****           Regulator is in low power mode.
 120:../../../PY32F002B_Firmware_V1.2.1/PY32F002B_Firmware_V1.2.1/Drivers/PY32F002B_HAL_Driver/Src/py32f002b_hal_pwr.c ****       (+) Sleep mode: Cortex-M0+ core stopped, peripherals kept running,
 121:../../../PY32F002B_Firmware_V1.2.1/PY32F002B_Firmware_V1.2.1/Drivers/PY32F002B_HAL_Driver/Src/py32f002b_hal_pwr.c ****           regulator is main mode.
 122:../../../PY32F002B_Firmware_V1.2.1/PY32F002B_Firmware_V1.2.1/Drivers/PY32F002B_HAL_Driver/Src/py32f002b_hal_pwr.c ****       (+) Low-power Sleep mode: Cortex-M0+ core stopped, peripherals kept running
 123:../../../PY32F002B_Firmware_V1.2.1/PY32F002B_Firmware_V1.2.1/Drivers/PY32F002B_HAL_Driver/Src/py32f002b_hal_pwr.c ****           and regulator in low power mode.
 124:../../../PY32F002B_Firmware_V1.2.1/PY32F002B_Firmware_V1.2.1/Drivers/PY32F002B_HAL_Driver/Src/py32f002b_hal_pwr.c ****       (+) Stop 0 mode: all clocks are stopped except LSI and LSE, regulator is
 125:../../../PY32F002B_Firmware_V1.2.1/PY32F002B_Firmware_V1.2.1/Drivers/PY32F002B_HAL_Driver/Src/py32f002b_hal_pwr.c ****            main mode.
 126:../../../PY32F002B_Firmware_V1.2.1/PY32F002B_Firmware_V1.2.1/Drivers/PY32F002B_HAL_Driver/Src/py32f002b_hal_pwr.c ****       (+) Stop 1 mode: all clocks are stopped except LSI and LSE, main regulator
 127:../../../PY32F002B_Firmware_V1.2.1/PY32F002B_Firmware_V1.2.1/Drivers/PY32F002B_HAL_Driver/Src/py32f002b_hal_pwr.c ****           off, low power regulator on.
 128:../../../PY32F002B_Firmware_V1.2.1/PY32F002B_Firmware_V1.2.1/Drivers/PY32F002B_HAL_Driver/Src/py32f002b_hal_pwr.c **** 
 129:../../../PY32F002B_Firmware_V1.2.1/PY32F002B_Firmware_V1.2.1/Drivers/PY32F002B_HAL_Driver/Src/py32f002b_hal_pwr.c ****    *** Low-power run mode ***
 130:../../../PY32F002B_Firmware_V1.2.1/PY32F002B_Firmware_V1.2.1/Drivers/PY32F002B_HAL_Driver/Src/py32f002b_hal_pwr.c ****    ==========================
 131:../../../PY32F002B_Firmware_V1.2.1/PY32F002B_Firmware_V1.2.1/Drivers/PY32F002B_HAL_Driver/Src/py32f002b_hal_pwr.c ****     [..]
 132:../../../PY32F002B_Firmware_V1.2.1/PY32F002B_Firmware_V1.2.1/Drivers/PY32F002B_HAL_Driver/Src/py32f002b_hal_pwr.c ****       (+) Entry: (from main run mode)
 133:../../../PY32F002B_Firmware_V1.2.1/PY32F002B_Firmware_V1.2.1/Drivers/PY32F002B_HAL_Driver/Src/py32f002b_hal_pwr.c ****           (++) set LPR bit with HAL_PWREx_EnableLowPowerRunMode() API after
 134:../../../PY32F002B_Firmware_V1.2.1/PY32F002B_Firmware_V1.2.1/Drivers/PY32F002B_HAL_Driver/Src/py32f002b_hal_pwr.c ****                having decreased the system clock below 2 MHz.
 135:../../../PY32F002B_Firmware_V1.2.1/PY32F002B_Firmware_V1.2.1/Drivers/PY32F002B_HAL_Driver/Src/py32f002b_hal_pwr.c ****       (+) Exit:
 136:../../../PY32F002B_Firmware_V1.2.1/PY32F002B_Firmware_V1.2.1/Drivers/PY32F002B_HAL_Driver/Src/py32f002b_hal_pwr.c ****           (++) clear LPR bit then wait for REGLPF bit to be reset with
 137:../../../PY32F002B_Firmware_V1.2.1/PY32F002B_Firmware_V1.2.1/Drivers/PY32F002B_HAL_Driver/Src/py32f002b_hal_pwr.c ****                HAL_PWREx_DisableLowPowerRunMode() API. Only then can the
 138:../../../PY32F002B_Firmware_V1.2.1/PY32F002B_Firmware_V1.2.1/Drivers/PY32F002B_HAL_Driver/Src/py32f002b_hal_pwr.c ****                system clock frequency be increased above 2 MHz.
 139:../../../PY32F002B_Firmware_V1.2.1/PY32F002B_Firmware_V1.2.1/Drivers/PY32F002B_HAL_Driver/Src/py32f002b_hal_pwr.c **** 
 140:../../../PY32F002B_Firmware_V1.2.1/PY32F002B_Firmware_V1.2.1/Drivers/PY32F002B_HAL_Driver/Src/py32f002b_hal_pwr.c ****    *** Sleep mode / Low-power sleep mode ***
 141:../../../PY32F002B_Firmware_V1.2.1/PY32F002B_Firmware_V1.2.1/Drivers/PY32F002B_HAL_Driver/Src/py32f002b_hal_pwr.c ****    =========================================
 142:../../../PY32F002B_Firmware_V1.2.1/PY32F002B_Firmware_V1.2.1/Drivers/PY32F002B_HAL_Driver/Src/py32f002b_hal_pwr.c ****     [..]
 143:../../../PY32F002B_Firmware_V1.2.1/PY32F002B_Firmware_V1.2.1/Drivers/PY32F002B_HAL_Driver/Src/py32f002b_hal_pwr.c ****       (+) Entry:
 144:../../../PY32F002B_Firmware_V1.2.1/PY32F002B_Firmware_V1.2.1/Drivers/PY32F002B_HAL_Driver/Src/py32f002b_hal_pwr.c ****           The Sleep & Low-power Sleep modes are entered through
 145:../../../PY32F002B_Firmware_V1.2.1/PY32F002B_Firmware_V1.2.1/Drivers/PY32F002B_HAL_Driver/Src/py32f002b_hal_pwr.c ****           HAL_PWR_EnterSLEEPMode() API specifying whether or not the regulator
 146:../../../PY32F002B_Firmware_V1.2.1/PY32F002B_Firmware_V1.2.1/Drivers/PY32F002B_HAL_Driver/Src/py32f002b_hal_pwr.c ****           is forced to low-power mode and if exit is interrupt or event
 147:../../../PY32F002B_Firmware_V1.2.1/PY32F002B_Firmware_V1.2.1/Drivers/PY32F002B_HAL_Driver/Src/py32f002b_hal_pwr.c ****           triggered.
 148:../../../PY32F002B_Firmware_V1.2.1/PY32F002B_Firmware_V1.2.1/Drivers/PY32F002B_HAL_Driver/Src/py32f002b_hal_pwr.c ****           (++) PWR_MAINREGULATOR_ON: Sleep mode (regulator in main mode).
 149:../../../PY32F002B_Firmware_V1.2.1/PY32F002B_Firmware_V1.2.1/Drivers/PY32F002B_HAL_Driver/Src/py32f002b_hal_pwr.c ****           (++) PWR_LOWPOWERREGULATOR_ON: Low-power Sleep mode (regulator in low
 150:../../../PY32F002B_Firmware_V1.2.1/PY32F002B_Firmware_V1.2.1/Drivers/PY32F002B_HAL_Driver/Src/py32f002b_hal_pwr.c ****                power mode). In this case, the system clock frequency must have
 151:../../../PY32F002B_Firmware_V1.2.1/PY32F002B_Firmware_V1.2.1/Drivers/PY32F002B_HAL_Driver/Src/py32f002b_hal_pwr.c ****                been decreased below 2 MHz beforehand.
 152:../../../PY32F002B_Firmware_V1.2.1/PY32F002B_Firmware_V1.2.1/Drivers/PY32F002B_HAL_Driver/Src/py32f002b_hal_pwr.c ****           (++) PWR_SLEEPENTRY_WFI: Core enters sleep mode with WFI instruction
 153:../../../PY32F002B_Firmware_V1.2.1/PY32F002B_Firmware_V1.2.1/Drivers/PY32F002B_HAL_Driver/Src/py32f002b_hal_pwr.c ****           (++) PWR_SLEEPENTRY_WFE: Core enters sleep mode with WFE instruction
 154:../../../PY32F002B_Firmware_V1.2.1/PY32F002B_Firmware_V1.2.1/Drivers/PY32F002B_HAL_Driver/Src/py32f002b_hal_pwr.c ****       (+) WFI Exit:
 155:../../../PY32F002B_Firmware_V1.2.1/PY32F002B_Firmware_V1.2.1/Drivers/PY32F002B_HAL_Driver/Src/py32f002b_hal_pwr.c ****         (++) Any interrupt enabled in nested vectored interrupt controller (NVIC)
 156:../../../PY32F002B_Firmware_V1.2.1/PY32F002B_Firmware_V1.2.1/Drivers/PY32F002B_HAL_Driver/Src/py32f002b_hal_pwr.c ****       (+) WFE Exit:
 157:../../../PY32F002B_Firmware_V1.2.1/PY32F002B_Firmware_V1.2.1/Drivers/PY32F002B_HAL_Driver/Src/py32f002b_hal_pwr.c ****         (++) Any wakeup event if cortex is configured with SEVONPEND = 0
 158:../../../PY32F002B_Firmware_V1.2.1/PY32F002B_Firmware_V1.2.1/Drivers/PY32F002B_HAL_Driver/Src/py32f002b_hal_pwr.c ****         (++) Interrupt even when disabled in NVIC if cortex is configured with
 159:../../../PY32F002B_Firmware_V1.2.1/PY32F002B_Firmware_V1.2.1/Drivers/PY32F002B_HAL_Driver/Src/py32f002b_hal_pwr.c ****              SEVONPEND = 1
 160:../../../PY32F002B_Firmware_V1.2.1/PY32F002B_Firmware_V1.2.1/Drivers/PY32F002B_HAL_Driver/Src/py32f002b_hal_pwr.c ****     [..]  When exiting the Low-power Sleep mode by issuing an interrupt or a wakeup event,
 161:../../../PY32F002B_Firmware_V1.2.1/PY32F002B_Firmware_V1.2.1/Drivers/PY32F002B_HAL_Driver/Src/py32f002b_hal_pwr.c ****           the MCU is in Low-power Run mode.
 162:../../../PY32F002B_Firmware_V1.2.1/PY32F002B_Firmware_V1.2.1/Drivers/PY32F002B_HAL_Driver/Src/py32f002b_hal_pwr.c **** 
 163:../../../PY32F002B_Firmware_V1.2.1/PY32F002B_Firmware_V1.2.1/Drivers/PY32F002B_HAL_Driver/Src/py32f002b_hal_pwr.c ****    *** Stop 0 & Stop 1 modes ***
 164:../../../PY32F002B_Firmware_V1.2.1/PY32F002B_Firmware_V1.2.1/Drivers/PY32F002B_HAL_Driver/Src/py32f002b_hal_pwr.c ****    =============================
 165:../../../PY32F002B_Firmware_V1.2.1/PY32F002B_Firmware_V1.2.1/Drivers/PY32F002B_HAL_Driver/Src/py32f002b_hal_pwr.c ****     [..]
 166:../../../PY32F002B_Firmware_V1.2.1/PY32F002B_Firmware_V1.2.1/Drivers/PY32F002B_HAL_Driver/Src/py32f002b_hal_pwr.c ****       (+) Entry:
 167:../../../PY32F002B_Firmware_V1.2.1/PY32F002B_Firmware_V1.2.1/Drivers/PY32F002B_HAL_Driver/Src/py32f002b_hal_pwr.c ****           The Stop modes are entered through the following APIs:
ARM GAS  C:\Users\Gautam\AppData\Local\Temp\cccR5ChD.s 			page 5


 168:../../../PY32F002B_Firmware_V1.2.1/PY32F002B_Firmware_V1.2.1/Drivers/PY32F002B_HAL_Driver/Src/py32f002b_hal_pwr.c ****           (++) HAL_PWR_EnterSTOPMode() with following settings:
 169:../../../PY32F002B_Firmware_V1.2.1/PY32F002B_Firmware_V1.2.1/Drivers/PY32F002B_HAL_Driver/Src/py32f002b_hal_pwr.c ****               (+++) PWR_MAINREGULATOR_ON to enter STOP0 mode.
 170:../../../PY32F002B_Firmware_V1.2.1/PY32F002B_Firmware_V1.2.1/Drivers/PY32F002B_HAL_Driver/Src/py32f002b_hal_pwr.c ****               (+++) PWR_LOWPOWERREGULATOR_ON to enter STOP1 mode.
 171:../../../PY32F002B_Firmware_V1.2.1/PY32F002B_Firmware_V1.2.1/Drivers/PY32F002B_HAL_Driver/Src/py32f002b_hal_pwr.c ****       (+) Exit (interrupt or event-triggered, specified when entering STOP mode):
 172:../../../PY32F002B_Firmware_V1.2.1/PY32F002B_Firmware_V1.2.1/Drivers/PY32F002B_HAL_Driver/Src/py32f002b_hal_pwr.c ****           (++) PWR_STOPENTRY_WFI: enter Stop mode with WFI instruction
 173:../../../PY32F002B_Firmware_V1.2.1/PY32F002B_Firmware_V1.2.1/Drivers/PY32F002B_HAL_Driver/Src/py32f002b_hal_pwr.c ****           (++) PWR_STOPENTRY_WFE: enter Stop mode with WFE instruction
 174:../../../PY32F002B_Firmware_V1.2.1/PY32F002B_Firmware_V1.2.1/Drivers/PY32F002B_HAL_Driver/Src/py32f002b_hal_pwr.c ****       (+) WFI Exit:
 175:../../../PY32F002B_Firmware_V1.2.1/PY32F002B_Firmware_V1.2.1/Drivers/PY32F002B_HAL_Driver/Src/py32f002b_hal_pwr.c ****           (++) Any EXTI line (internal or external) configured in interrupt mode
 176:../../../PY32F002B_Firmware_V1.2.1/PY32F002B_Firmware_V1.2.1/Drivers/PY32F002B_HAL_Driver/Src/py32f002b_hal_pwr.c ****                with corresponding interrupt enable in NVIC
 177:../../../PY32F002B_Firmware_V1.2.1/PY32F002B_Firmware_V1.2.1/Drivers/PY32F002B_HAL_Driver/Src/py32f002b_hal_pwr.c ****       (+) WFE Exit:
 178:../../../PY32F002B_Firmware_V1.2.1/PY32F002B_Firmware_V1.2.1/Drivers/PY32F002B_HAL_Driver/Src/py32f002b_hal_pwr.c ****           (++) Any EXTI line (internal or external) configured in event mode if
 179:../../../PY32F002B_Firmware_V1.2.1/PY32F002B_Firmware_V1.2.1/Drivers/PY32F002B_HAL_Driver/Src/py32f002b_hal_pwr.c ****                cortex is configured with SEVONPEND = 0
 180:../../../PY32F002B_Firmware_V1.2.1/PY32F002B_Firmware_V1.2.1/Drivers/PY32F002B_HAL_Driver/Src/py32f002b_hal_pwr.c ****           (++) Any EXTI line configured in interrupt mode (even if the
 181:../../../PY32F002B_Firmware_V1.2.1/PY32F002B_Firmware_V1.2.1/Drivers/PY32F002B_HAL_Driver/Src/py32f002b_hal_pwr.c ****                corresponding EXTI Interrupt vector is disabled in the NVIC) if
 182:../../../PY32F002B_Firmware_V1.2.1/PY32F002B_Firmware_V1.2.1/Drivers/PY32F002B_HAL_Driver/Src/py32f002b_hal_pwr.c ****                cortex is configured with SEVONPEND = 0. The interrupt source can
 183:../../../PY32F002B_Firmware_V1.2.1/PY32F002B_Firmware_V1.2.1/Drivers/PY32F002B_HAL_Driver/Src/py32f002b_hal_pwr.c ****                be external interrupts or peripherals with wakeup capability.
 184:../../../PY32F002B_Firmware_V1.2.1/PY32F002B_Firmware_V1.2.1/Drivers/PY32F002B_HAL_Driver/Src/py32f002b_hal_pwr.c ****     [..]  When exiting Stop, the MCU is either in Run mode or in Low-power Run mode
 185:../../../PY32F002B_Firmware_V1.2.1/PY32F002B_Firmware_V1.2.1/Drivers/PY32F002B_HAL_Driver/Src/py32f002b_hal_pwr.c ****           depending on the LPR bit setting.
 186:../../../PY32F002B_Firmware_V1.2.1/PY32F002B_Firmware_V1.2.1/Drivers/PY32F002B_HAL_Driver/Src/py32f002b_hal_pwr.c **** 
 187:../../../PY32F002B_Firmware_V1.2.1/PY32F002B_Firmware_V1.2.1/Drivers/PY32F002B_HAL_Driver/Src/py32f002b_hal_pwr.c **** 
 188:../../../PY32F002B_Firmware_V1.2.1/PY32F002B_Firmware_V1.2.1/Drivers/PY32F002B_HAL_Driver/Src/py32f002b_hal_pwr.c **** @endverbatim
 189:../../../PY32F002B_Firmware_V1.2.1/PY32F002B_Firmware_V1.2.1/Drivers/PY32F002B_HAL_Driver/Src/py32f002b_hal_pwr.c ****   * @{
 190:../../../PY32F002B_Firmware_V1.2.1/PY32F002B_Firmware_V1.2.1/Drivers/PY32F002B_HAL_Driver/Src/py32f002b_hal_pwr.c ****   */
 191:../../../PY32F002B_Firmware_V1.2.1/PY32F002B_Firmware_V1.2.1/Drivers/PY32F002B_HAL_Driver/Src/py32f002b_hal_pwr.c **** 
 192:../../../PY32F002B_Firmware_V1.2.1/PY32F002B_Firmware_V1.2.1/Drivers/PY32F002B_HAL_Driver/Src/py32f002b_hal_pwr.c **** /**
 193:../../../PY32F002B_Firmware_V1.2.1/PY32F002B_Firmware_V1.2.1/Drivers/PY32F002B_HAL_Driver/Src/py32f002b_hal_pwr.c ****   * @brief  Configure LPR voltage,sram retention voltage,and wakeup correlation
 194:../../../PY32F002B_Firmware_V1.2.1/PY32F002B_Firmware_V1.2.1/Drivers/PY32F002B_HAL_Driver/Src/py32f002b_hal_pwr.c ****             timing in Stop mode.
 195:../../../PY32F002B_Firmware_V1.2.1/PY32F002B_Firmware_V1.2.1/Drivers/PY32F002B_HAL_Driver/Src/py32f002b_hal_pwr.c ****   * @param  sStopModeConfig pointer to a PWR_StopModeConfigTypeDef structure that
 196:../../../PY32F002B_Firmware_V1.2.1/PY32F002B_Firmware_V1.2.1/Drivers/PY32F002B_HAL_Driver/Src/py32f002b_hal_pwr.c ****             contains the Stop mode configuration information.
 197:../../../PY32F002B_Firmware_V1.2.1/PY32F002B_Firmware_V1.2.1/Drivers/PY32F002B_HAL_Driver/Src/py32f002b_hal_pwr.c ****   * @retval HAL_OK
 198:../../../PY32F002B_Firmware_V1.2.1/PY32F002B_Firmware_V1.2.1/Drivers/PY32F002B_HAL_Driver/Src/py32f002b_hal_pwr.c ****   */
 199:../../../PY32F002B_Firmware_V1.2.1/PY32F002B_Firmware_V1.2.1/Drivers/PY32F002B_HAL_Driver/Src/py32f002b_hal_pwr.c **** HAL_StatusTypeDef HAL_PWR_ConfigStopMode(PWR_StopModeConfigTypeDef *sStopModeConfig)
 200:../../../PY32F002B_Firmware_V1.2.1/PY32F002B_Firmware_V1.2.1/Drivers/PY32F002B_HAL_Driver/Src/py32f002b_hal_pwr.c **** {
  65              		.loc 1 200 1 is_stmt 1 view -0
  66              		.cfi_startproc
  67              		@ args = 0, pretend = 0, frame = 0
  68              		@ frame_needed = 0, uses_anonymous_args = 0
  69              		.loc 1 200 1 is_stmt 0 view .LVU5
  70 0000 10B5     		push	{r4, lr}
  71              	.LCFI0:
  72              		.cfi_def_cfa_offset 8
  73              		.cfi_offset 4, -8
  74              		.cfi_offset 14, -4
 201:../../../PY32F002B_Firmware_V1.2.1/PY32F002B_Firmware_V1.2.1/Drivers/PY32F002B_HAL_Driver/Src/py32f002b_hal_pwr.c ****   /* Check the parameters */
 202:../../../PY32F002B_Firmware_V1.2.1/PY32F002B_Firmware_V1.2.1/Drivers/PY32F002B_HAL_Driver/Src/py32f002b_hal_pwr.c ****   assert_param(IS_PWR_WAKEUP_HSIEN_TIMING(sStopModeConfig->WakeUpHsiEnableTime));
  75              		.loc 1 202 3 is_stmt 1 view .LVU6
 203:../../../PY32F002B_Firmware_V1.2.1/PY32F002B_Firmware_V1.2.1/Drivers/PY32F002B_HAL_Driver/Src/py32f002b_hal_pwr.c **** #if defined(PWR_DEEPSTOP_SUPPORT)
 204:../../../PY32F002B_Firmware_V1.2.1/PY32F002B_Firmware_V1.2.1/Drivers/PY32F002B_HAL_Driver/Src/py32f002b_hal_pwr.c ****   assert_param(IS_PWR_SRAM_RETENTION_VOLT(sStopModeConfig->SramRetentionVoltDlp));
 205:../../../PY32F002B_Firmware_V1.2.1/PY32F002B_Firmware_V1.2.1/Drivers/PY32F002B_HAL_Driver/Src/py32f002b_hal_pwr.c **** #endif /* PWR_DEEPSTOP_SUPPORT */
 206:../../../PY32F002B_Firmware_V1.2.1/PY32F002B_Firmware_V1.2.1/Drivers/PY32F002B_HAL_Driver/Src/py32f002b_hal_pwr.c ****   assert_param(IS_PWR_SRAM_RETENTION_VOLT(sStopModeConfig->SramRetentionVolt));
  76              		.loc 1 206 3 view .LVU7
 207:../../../PY32F002B_Firmware_V1.2.1/PY32F002B_Firmware_V1.2.1/Drivers/PY32F002B_HAL_Driver/Src/py32f002b_hal_pwr.c ****   assert_param(IS_PWR_WAKEUP_FLASH_DELAY(sStopModeConfig->FlashDelay));
  77              		.loc 1 207 3 view .LVU8
 208:../../../PY32F002B_Firmware_V1.2.1/PY32F002B_Firmware_V1.2.1/Drivers/PY32F002B_HAL_Driver/Src/py32f002b_hal_pwr.c **** 
 209:../../../PY32F002B_Firmware_V1.2.1/PY32F002B_Firmware_V1.2.1/Drivers/PY32F002B_HAL_Driver/Src/py32f002b_hal_pwr.c ****   /* Set the STOP mode and STOP wake-up timing related configurations */
 210:../../../PY32F002B_Firmware_V1.2.1/PY32F002B_Firmware_V1.2.1/Drivers/PY32F002B_HAL_Driver/Src/py32f002b_hal_pwr.c **** #if defined(PWR_DEEPSTOP_SUPPORT)
 211:../../../PY32F002B_Firmware_V1.2.1/PY32F002B_Firmware_V1.2.1/Drivers/PY32F002B_HAL_Driver/Src/py32f002b_hal_pwr.c ****   MODIFY_REG(PWR->CR1, PWR_CR1_SRAM_RETV_DLP, (sStopModeConfig->SramRetentionVoltDlp << PWR_CR1_SRA
ARM GAS  C:\Users\Gautam\AppData\Local\Temp\cccR5ChD.s 			page 6


 212:../../../PY32F002B_Firmware_V1.2.1/PY32F002B_Firmware_V1.2.1/Drivers/PY32F002B_HAL_Driver/Src/py32f002b_hal_pwr.c **** #endif /* PWR_DEEPSTOP_SUPPORT */
 213:../../../PY32F002B_Firmware_V1.2.1/PY32F002B_Firmware_V1.2.1/Drivers/PY32F002B_HAL_Driver/Src/py32f002b_hal_pwr.c **** 
 214:../../../PY32F002B_Firmware_V1.2.1/PY32F002B_Firmware_V1.2.1/Drivers/PY32F002B_HAL_Driver/Src/py32f002b_hal_pwr.c ****   MODIFY_REG(PWR->CR1, (PWR_CR1_HSION_CTRL | PWR_CR1_SRAM_RETV | PWR_CR1_FLS_SLPTIME), 
  78              		.loc 1 214 3 view .LVU9
  79 0002 074C     		ldr	r4, .L5
  80 0004 2368     		ldr	r3, [r4]
  81 0006 074A     		ldr	r2, .L5+4
  82 0008 1340     		ands	r3, r2
  83 000a 0268     		ldr	r2, [r0]
  84 000c 4168     		ldr	r1, [r0, #4]
  85 000e 4904     		lsls	r1, r1, #17
  86 0010 0A43     		orrs	r2, r1
  87 0012 8168     		ldr	r1, [r0, #8]
  88 0014 0A43     		orrs	r2, r1
  89 0016 1343     		orrs	r3, r2
  90 0018 2360     		str	r3, [r4]
 215:../../../PY32F002B_Firmware_V1.2.1/PY32F002B_Firmware_V1.2.1/Drivers/PY32F002B_HAL_Driver/Src/py32f002b_hal_pwr.c ****                        (sStopModeConfig->WakeUpHsiEnableTime) | \
 216:../../../PY32F002B_Firmware_V1.2.1/PY32F002B_Firmware_V1.2.1/Drivers/PY32F002B_HAL_Driver/Src/py32f002b_hal_pwr.c ****                        (sStopModeConfig->SramRetentionVolt << PWR_CR1_SRAM_RETV_Pos) | \
 217:../../../PY32F002B_Firmware_V1.2.1/PY32F002B_Firmware_V1.2.1/Drivers/PY32F002B_HAL_Driver/Src/py32f002b_hal_pwr.c ****                        (sStopModeConfig->FlashDelay));
 218:../../../PY32F002B_Firmware_V1.2.1/PY32F002B_Firmware_V1.2.1/Drivers/PY32F002B_HAL_Driver/Src/py32f002b_hal_pwr.c **** 
 219:../../../PY32F002B_Firmware_V1.2.1/PY32F002B_Firmware_V1.2.1/Drivers/PY32F002B_HAL_Driver/Src/py32f002b_hal_pwr.c ****   return HAL_OK;
  91              		.loc 1 219 3 view .LVU10
 220:../../../PY32F002B_Firmware_V1.2.1/PY32F002B_Firmware_V1.2.1/Drivers/PY32F002B_HAL_Driver/Src/py32f002b_hal_pwr.c **** }
  92              		.loc 1 220 1 is_stmt 0 view .LVU11
  93 001a 0020     		movs	r0, #0
  94              	.LVL1:
  95              		.loc 1 220 1 view .LVU12
  96              		@ sp needed
  97 001c 10BD     		pop	{r4, pc}
  98              	.L6:
  99 001e C046     		.align	2
 100              	.L5:
 101 0020 00700040 		.word	1073770496
 102 0024 FFCFF5FF 		.word	-667649
 103              		.cfi_endproc
 104              	.LFE38:
 106              		.section	.text.HAL_PWR_ConfigBIAS,"ax",%progbits
 107              		.align	1
 108              		.global	HAL_PWR_ConfigBIAS
 109              		.syntax unified
 110              		.code	16
 111              		.thumb_func
 113              	HAL_PWR_ConfigBIAS:
 114              	.LVL2:
 115              	.LFB39:
 221:../../../PY32F002B_Firmware_V1.2.1/PY32F002B_Firmware_V1.2.1/Drivers/PY32F002B_HAL_Driver/Src/py32f002b_hal_pwr.c **** 
 222:../../../PY32F002B_Firmware_V1.2.1/PY32F002B_Firmware_V1.2.1/Drivers/PY32F002B_HAL_Driver/Src/py32f002b_hal_pwr.c **** /**
 223:../../../PY32F002B_Firmware_V1.2.1/PY32F002B_Firmware_V1.2.1/Drivers/PY32F002B_HAL_Driver/Src/py32f002b_hal_pwr.c ****   * @brief  Configure the bias current load source and bias current values.
 224:../../../PY32F002B_Firmware_V1.2.1/PY32F002B_Firmware_V1.2.1/Drivers/PY32F002B_HAL_Driver/Src/py32f002b_hal_pwr.c ****   * @param  sBIASConfig pointer to a PWR_BIASConfigTypeDef structure that
 225:../../../PY32F002B_Firmware_V1.2.1/PY32F002B_Firmware_V1.2.1/Drivers/PY32F002B_HAL_Driver/Src/py32f002b_hal_pwr.c ****             contains the bias current configuration information.
 226:../../../PY32F002B_Firmware_V1.2.1/PY32F002B_Firmware_V1.2.1/Drivers/PY32F002B_HAL_Driver/Src/py32f002b_hal_pwr.c ****   * @retval HAL_OK
 227:../../../PY32F002B_Firmware_V1.2.1/PY32F002B_Firmware_V1.2.1/Drivers/PY32F002B_HAL_Driver/Src/py32f002b_hal_pwr.c ****   */
 228:../../../PY32F002B_Firmware_V1.2.1/PY32F002B_Firmware_V1.2.1/Drivers/PY32F002B_HAL_Driver/Src/py32f002b_hal_pwr.c **** HAL_StatusTypeDef HAL_PWR_ConfigBIAS(PWR_BIASConfigTypeDef *sBIASConfig)
 229:../../../PY32F002B_Firmware_V1.2.1/PY32F002B_Firmware_V1.2.1/Drivers/PY32F002B_HAL_Driver/Src/py32f002b_hal_pwr.c **** {
 116              		.loc 1 229 1 is_stmt 1 view -0
 117              		.cfi_startproc
 118              		@ args = 0, pretend = 0, frame = 0
ARM GAS  C:\Users\Gautam\AppData\Local\Temp\cccR5ChD.s 			page 7


 119              		@ frame_needed = 0, uses_anonymous_args = 0
 120              		.loc 1 229 1 is_stmt 0 view .LVU14
 121 0000 10B5     		push	{r4, lr}
 122              	.LCFI1:
 123              		.cfi_def_cfa_offset 8
 124              		.cfi_offset 4, -8
 125              		.cfi_offset 14, -4
 230:../../../PY32F002B_Firmware_V1.2.1/PY32F002B_Firmware_V1.2.1/Drivers/PY32F002B_HAL_Driver/Src/py32f002b_hal_pwr.c ****   /* Check the parameters */
 231:../../../PY32F002B_Firmware_V1.2.1/PY32F002B_Firmware_V1.2.1/Drivers/PY32F002B_HAL_Driver/Src/py32f002b_hal_pwr.c ****   assert_param(IS_BIAS_CURRENTS_SOURCE(sBIASConfig->BiasCurrentSource));
 126              		.loc 1 231 3 is_stmt 1 view .LVU15
 232:../../../PY32F002B_Firmware_V1.2.1/PY32F002B_Firmware_V1.2.1/Drivers/PY32F002B_HAL_Driver/Src/py32f002b_hal_pwr.c ****   
 233:../../../PY32F002B_Firmware_V1.2.1/PY32F002B_Firmware_V1.2.1/Drivers/PY32F002B_HAL_Driver/Src/py32f002b_hal_pwr.c ****   if(((sBIASConfig->BiasCurrentSource) & PWR_BIAS_CURRENTS_FROM_BIAS_CR) == PWR_BIAS_CURRENTS_FROM_
 127              		.loc 1 233 3 view .LVU16
 128              		.loc 1 233 19 is_stmt 0 view .LVU17
 129 0002 0368     		ldr	r3, [r0]
 130              		.loc 1 233 5 view .LVU18
 131 0004 DA06     		lsls	r2, r3, #27
 132 0006 09D5     		bpl	.L8
 234:../../../PY32F002B_Firmware_V1.2.1/PY32F002B_Firmware_V1.2.1/Drivers/PY32F002B_HAL_Driver/Src/py32f002b_hal_pwr.c ****   {
 235:../../../PY32F002B_Firmware_V1.2.1/PY32F002B_Firmware_V1.2.1/Drivers/PY32F002B_HAL_Driver/Src/py32f002b_hal_pwr.c ****     /* Set the bias currents load source and bias currents value*/
 236:../../../PY32F002B_Firmware_V1.2.1/PY32F002B_Firmware_V1.2.1/Drivers/PY32F002B_HAL_Driver/Src/py32f002b_hal_pwr.c ****     MODIFY_REG(PWR->CR1, (PWR_CR1_BIAS_CR_SEL) | (PWR_CR1_BIAS_CR), (sBIASConfig->BiasCurrentSource
 133              		.loc 1 236 5 is_stmt 1 view .LVU19
 134 0008 0849     		ldr	r1, .L10
 135 000a 0A68     		ldr	r2, [r1]
 136 000c 1F24     		movs	r4, #31
 137 000e A243     		bics	r2, r4
 138 0010 4068     		ldr	r0, [r0, #4]
 139              	.LVL3:
 140              		.loc 1 236 5 is_stmt 0 view .LVU20
 141 0012 0343     		orrs	r3, r0
 142 0014 1343     		orrs	r3, r2
 143 0016 0B60     		str	r3, [r1]
 144              	.L9:
 237:../../../PY32F002B_Firmware_V1.2.1/PY32F002B_Firmware_V1.2.1/Drivers/PY32F002B_HAL_Driver/Src/py32f002b_hal_pwr.c ****                                                                     (sBIASConfig->BiasCurrentValue)
 238:../../../PY32F002B_Firmware_V1.2.1/PY32F002B_Firmware_V1.2.1/Drivers/PY32F002B_HAL_Driver/Src/py32f002b_hal_pwr.c ****   }
 239:../../../PY32F002B_Firmware_V1.2.1/PY32F002B_Firmware_V1.2.1/Drivers/PY32F002B_HAL_Driver/Src/py32f002b_hal_pwr.c ****   else
 240:../../../PY32F002B_Firmware_V1.2.1/PY32F002B_Firmware_V1.2.1/Drivers/PY32F002B_HAL_Driver/Src/py32f002b_hal_pwr.c ****   {
 241:../../../PY32F002B_Firmware_V1.2.1/PY32F002B_Firmware_V1.2.1/Drivers/PY32F002B_HAL_Driver/Src/py32f002b_hal_pwr.c ****     /* Set the bias currents load source */
 242:../../../PY32F002B_Firmware_V1.2.1/PY32F002B_Firmware_V1.2.1/Drivers/PY32F002B_HAL_Driver/Src/py32f002b_hal_pwr.c ****     MODIFY_REG(PWR->CR1, PWR_CR1_BIAS_CR_SEL, (sBIASConfig->BiasCurrentSource));
 243:../../../PY32F002B_Firmware_V1.2.1/PY32F002B_Firmware_V1.2.1/Drivers/PY32F002B_HAL_Driver/Src/py32f002b_hal_pwr.c ****   }
 244:../../../PY32F002B_Firmware_V1.2.1/PY32F002B_Firmware_V1.2.1/Drivers/PY32F002B_HAL_Driver/Src/py32f002b_hal_pwr.c ****   return HAL_OK;
 145              		.loc 1 244 3 is_stmt 1 view .LVU21
 245:../../../PY32F002B_Firmware_V1.2.1/PY32F002B_Firmware_V1.2.1/Drivers/PY32F002B_HAL_Driver/Src/py32f002b_hal_pwr.c **** }
 146              		.loc 1 245 1 is_stmt 0 view .LVU22
 147 0018 0020     		movs	r0, #0
 148              		@ sp needed
 149 001a 10BD     		pop	{r4, pc}
 150              	.LVL4:
 151              	.L8:
 242:../../../PY32F002B_Firmware_V1.2.1/PY32F002B_Firmware_V1.2.1/Drivers/PY32F002B_HAL_Driver/Src/py32f002b_hal_pwr.c ****   }
 152              		.loc 1 242 5 is_stmt 1 view .LVU23
 153 001c 0349     		ldr	r1, .L10
 154 001e 0A68     		ldr	r2, [r1]
 155 0020 1020     		movs	r0, #16
 156              	.LVL5:
 242:../../../PY32F002B_Firmware_V1.2.1/PY32F002B_Firmware_V1.2.1/Drivers/PY32F002B_HAL_Driver/Src/py32f002b_hal_pwr.c ****   }
 157              		.loc 1 242 5 is_stmt 0 view .LVU24
ARM GAS  C:\Users\Gautam\AppData\Local\Temp\cccR5ChD.s 			page 8


 158 0022 8243     		bics	r2, r0
 159 0024 1343     		orrs	r3, r2
 160 0026 0B60     		str	r3, [r1]
 161 0028 F6E7     		b	.L9
 162              	.L11:
 163 002a C046     		.align	2
 164              	.L10:
 165 002c 00700040 		.word	1073770496
 166              		.cfi_endproc
 167              	.LFE39:
 169              		.section	.text.HAL_PWR_EnterSLEEPMode,"ax",%progbits
 170              		.align	1
 171              		.global	HAL_PWR_EnterSLEEPMode
 172              		.syntax unified
 173              		.code	16
 174              		.thumb_func
 176              	HAL_PWR_EnterSLEEPMode:
 177              	.LVL6:
 178              	.LFB40:
 246:../../../PY32F002B_Firmware_V1.2.1/PY32F002B_Firmware_V1.2.1/Drivers/PY32F002B_HAL_Driver/Src/py32f002b_hal_pwr.c **** 
 247:../../../PY32F002B_Firmware_V1.2.1/PY32F002B_Firmware_V1.2.1/Drivers/PY32F002B_HAL_Driver/Src/py32f002b_hal_pwr.c **** /**
 248:../../../PY32F002B_Firmware_V1.2.1/PY32F002B_Firmware_V1.2.1/Drivers/PY32F002B_HAL_Driver/Src/py32f002b_hal_pwr.c ****   * @brief  Enter Sleep or Low-power Sleep mode.
 249:../../../PY32F002B_Firmware_V1.2.1/PY32F002B_Firmware_V1.2.1/Drivers/PY32F002B_HAL_Driver/Src/py32f002b_hal_pwr.c ****   * @note   In Sleep/Low-power Sleep mode, all I/O pins keep the same state as
 250:../../../PY32F002B_Firmware_V1.2.1/PY32F002B_Firmware_V1.2.1/Drivers/PY32F002B_HAL_Driver/Src/py32f002b_hal_pwr.c ****   *         in Run mode.
 251:../../../PY32F002B_Firmware_V1.2.1/PY32F002B_Firmware_V1.2.1/Drivers/PY32F002B_HAL_Driver/Src/py32f002b_hal_pwr.c ****   * @param  SLEEPEntry Specifies if Sleep mode is entered with WFI or WFE
 252:../../../PY32F002B_Firmware_V1.2.1/PY32F002B_Firmware_V1.2.1/Drivers/PY32F002B_HAL_Driver/Src/py32f002b_hal_pwr.c ****   *         instruction. This parameter can be one of the following values:
 253:../../../PY32F002B_Firmware_V1.2.1/PY32F002B_Firmware_V1.2.1/Drivers/PY32F002B_HAL_Driver/Src/py32f002b_hal_pwr.c ****   *           @arg @ref PWR_SLEEPENTRY_WFI enter Sleep or Low-power Sleep
 254:../../../PY32F002B_Firmware_V1.2.1/PY32F002B_Firmware_V1.2.1/Drivers/PY32F002B_HAL_Driver/Src/py32f002b_hal_pwr.c ****   *                     mode with WFI instruction
 255:../../../PY32F002B_Firmware_V1.2.1/PY32F002B_Firmware_V1.2.1/Drivers/PY32F002B_HAL_Driver/Src/py32f002b_hal_pwr.c ****   *           @arg @ref PWR_SLEEPENTRY_WFE enter Sleep or Low-power Sleep
 256:../../../PY32F002B_Firmware_V1.2.1/PY32F002B_Firmware_V1.2.1/Drivers/PY32F002B_HAL_Driver/Src/py32f002b_hal_pwr.c ****   *                     mode with WFE instruction
 257:../../../PY32F002B_Firmware_V1.2.1/PY32F002B_Firmware_V1.2.1/Drivers/PY32F002B_HAL_Driver/Src/py32f002b_hal_pwr.c ****   * @note   When WFI entry is used, tick interrupt have to be disabled if not
 258:../../../PY32F002B_Firmware_V1.2.1/PY32F002B_Firmware_V1.2.1/Drivers/PY32F002B_HAL_Driver/Src/py32f002b_hal_pwr.c ****   *         desired as the interrupt wake up source.
 259:../../../PY32F002B_Firmware_V1.2.1/PY32F002B_Firmware_V1.2.1/Drivers/PY32F002B_HAL_Driver/Src/py32f002b_hal_pwr.c ****   * @retval None
 260:../../../PY32F002B_Firmware_V1.2.1/PY32F002B_Firmware_V1.2.1/Drivers/PY32F002B_HAL_Driver/Src/py32f002b_hal_pwr.c ****   */
 261:../../../PY32F002B_Firmware_V1.2.1/PY32F002B_Firmware_V1.2.1/Drivers/PY32F002B_HAL_Driver/Src/py32f002b_hal_pwr.c **** void HAL_PWR_EnterSLEEPMode(uint8_t SLEEPEntry)
 262:../../../PY32F002B_Firmware_V1.2.1/PY32F002B_Firmware_V1.2.1/Drivers/PY32F002B_HAL_Driver/Src/py32f002b_hal_pwr.c **** {
 179              		.loc 1 262 1 is_stmt 1 view -0
 180              		.cfi_startproc
 181              		@ args = 0, pretend = 0, frame = 0
 182              		@ frame_needed = 0, uses_anonymous_args = 0
 183              		@ link register save eliminated.
 263:../../../PY32F002B_Firmware_V1.2.1/PY32F002B_Firmware_V1.2.1/Drivers/PY32F002B_HAL_Driver/Src/py32f002b_hal_pwr.c ****   /* Check the parameters */
 264:../../../PY32F002B_Firmware_V1.2.1/PY32F002B_Firmware_V1.2.1/Drivers/PY32F002B_HAL_Driver/Src/py32f002b_hal_pwr.c ****   assert_param(IS_PWR_SLEEP_ENTRY(SLEEPEntry));
 184              		.loc 1 264 3 view .LVU26
 265:../../../PY32F002B_Firmware_V1.2.1/PY32F002B_Firmware_V1.2.1/Drivers/PY32F002B_HAL_Driver/Src/py32f002b_hal_pwr.c **** 
 266:../../../PY32F002B_Firmware_V1.2.1/PY32F002B_Firmware_V1.2.1/Drivers/PY32F002B_HAL_Driver/Src/py32f002b_hal_pwr.c ****   /* Clear SLEEPDEEP bit of Cortex System Control Register */
 267:../../../PY32F002B_Firmware_V1.2.1/PY32F002B_Firmware_V1.2.1/Drivers/PY32F002B_HAL_Driver/Src/py32f002b_hal_pwr.c ****   CLEAR_BIT(SCB->SCR, ((uint32_t)SCB_SCR_SLEEPDEEP_Msk));
 185              		.loc 1 267 3 view .LVU27
 186 0000 064A     		ldr	r2, .L16
 187 0002 1369     		ldr	r3, [r2, #16]
 188 0004 0421     		movs	r1, #4
 189 0006 8B43     		bics	r3, r1
 190 0008 1361     		str	r3, [r2, #16]
 268:../../../PY32F002B_Firmware_V1.2.1/PY32F002B_Firmware_V1.2.1/Drivers/PY32F002B_HAL_Driver/Src/py32f002b_hal_pwr.c **** 
 269:../../../PY32F002B_Firmware_V1.2.1/PY32F002B_Firmware_V1.2.1/Drivers/PY32F002B_HAL_Driver/Src/py32f002b_hal_pwr.c ****   /* Select SLEEP mode entry -------------------------------------------------*/
 270:../../../PY32F002B_Firmware_V1.2.1/PY32F002B_Firmware_V1.2.1/Drivers/PY32F002B_HAL_Driver/Src/py32f002b_hal_pwr.c ****   if(SLEEPEntry == PWR_SLEEPENTRY_WFI)
 191              		.loc 1 270 3 view .LVU28
ARM GAS  C:\Users\Gautam\AppData\Local\Temp\cccR5ChD.s 			page 9


 192              		.loc 1 270 5 is_stmt 0 view .LVU29
 193 000a 0128     		cmp	r0, #1
 194 000c 03D0     		beq	.L15
 271:../../../PY32F002B_Firmware_V1.2.1/PY32F002B_Firmware_V1.2.1/Drivers/PY32F002B_HAL_Driver/Src/py32f002b_hal_pwr.c ****   {
 272:../../../PY32F002B_Firmware_V1.2.1/PY32F002B_Firmware_V1.2.1/Drivers/PY32F002B_HAL_Driver/Src/py32f002b_hal_pwr.c ****     /* Request Wait For Interrupt */
 273:../../../PY32F002B_Firmware_V1.2.1/PY32F002B_Firmware_V1.2.1/Drivers/PY32F002B_HAL_Driver/Src/py32f002b_hal_pwr.c ****     __WFI();
 274:../../../PY32F002B_Firmware_V1.2.1/PY32F002B_Firmware_V1.2.1/Drivers/PY32F002B_HAL_Driver/Src/py32f002b_hal_pwr.c ****   }
 275:../../../PY32F002B_Firmware_V1.2.1/PY32F002B_Firmware_V1.2.1/Drivers/PY32F002B_HAL_Driver/Src/py32f002b_hal_pwr.c ****   else
 276:../../../PY32F002B_Firmware_V1.2.1/PY32F002B_Firmware_V1.2.1/Drivers/PY32F002B_HAL_Driver/Src/py32f002b_hal_pwr.c ****   {
 277:../../../PY32F002B_Firmware_V1.2.1/PY32F002B_Firmware_V1.2.1/Drivers/PY32F002B_HAL_Driver/Src/py32f002b_hal_pwr.c ****     /* Request Wait For Event */
 278:../../../PY32F002B_Firmware_V1.2.1/PY32F002B_Firmware_V1.2.1/Drivers/PY32F002B_HAL_Driver/Src/py32f002b_hal_pwr.c ****     __SEV();
 195              		.loc 1 278 5 is_stmt 1 view .LVU30
 196              	.LBB18:
 197              	.LBI18:
 198              		.file 2 "../../../PY32F002B_Firmware_V1.2.1/PY32F002B_Firmware_V1.2.1/Drivers/CMSIS/Include/cmsis_
   1:../../../PY32F002B_Firmware_V1.2.1/PY32F002B_Firmware_V1.2.1/Drivers/CMSIS/Include/cmsis_gcc.h **** /**************************************************************************//**
   2:../../../PY32F002B_Firmware_V1.2.1/PY32F002B_Firmware_V1.2.1/Drivers/CMSIS/Include/cmsis_gcc.h ****  * @file     cmsis_gcc.h
   3:../../../PY32F002B_Firmware_V1.2.1/PY32F002B_Firmware_V1.2.1/Drivers/CMSIS/Include/cmsis_gcc.h ****  * @brief    CMSIS Cortex-M Core Function/Instruction Header File
   4:../../../PY32F002B_Firmware_V1.2.1/PY32F002B_Firmware_V1.2.1/Drivers/CMSIS/Include/cmsis_gcc.h ****  * @version  V4.30
   5:../../../PY32F002B_Firmware_V1.2.1/PY32F002B_Firmware_V1.2.1/Drivers/CMSIS/Include/cmsis_gcc.h ****  * @date     20. October 2015
   6:../../../PY32F002B_Firmware_V1.2.1/PY32F002B_Firmware_V1.2.1/Drivers/CMSIS/Include/cmsis_gcc.h ****  ******************************************************************************/
   7:../../../PY32F002B_Firmware_V1.2.1/PY32F002B_Firmware_V1.2.1/Drivers/CMSIS/Include/cmsis_gcc.h **** /* Copyright (c) 2009 - 2015 ARM LIMITED
   8:../../../PY32F002B_Firmware_V1.2.1/PY32F002B_Firmware_V1.2.1/Drivers/CMSIS/Include/cmsis_gcc.h **** 
   9:../../../PY32F002B_Firmware_V1.2.1/PY32F002B_Firmware_V1.2.1/Drivers/CMSIS/Include/cmsis_gcc.h ****    All rights reserved.
  10:../../../PY32F002B_Firmware_V1.2.1/PY32F002B_Firmware_V1.2.1/Drivers/CMSIS/Include/cmsis_gcc.h ****    Redistribution and use in source and binary forms, with or without
  11:../../../PY32F002B_Firmware_V1.2.1/PY32F002B_Firmware_V1.2.1/Drivers/CMSIS/Include/cmsis_gcc.h ****    modification, are permitted provided that the following conditions are met:
  12:../../../PY32F002B_Firmware_V1.2.1/PY32F002B_Firmware_V1.2.1/Drivers/CMSIS/Include/cmsis_gcc.h ****    - Redistributions of source code must retain the above copyright
  13:../../../PY32F002B_Firmware_V1.2.1/PY32F002B_Firmware_V1.2.1/Drivers/CMSIS/Include/cmsis_gcc.h ****      notice, this list of conditions and the following disclaimer.
  14:../../../PY32F002B_Firmware_V1.2.1/PY32F002B_Firmware_V1.2.1/Drivers/CMSIS/Include/cmsis_gcc.h ****    - Redistributions in binary form must reproduce the above copyright
  15:../../../PY32F002B_Firmware_V1.2.1/PY32F002B_Firmware_V1.2.1/Drivers/CMSIS/Include/cmsis_gcc.h ****      notice, this list of conditions and the following disclaimer in the
  16:../../../PY32F002B_Firmware_V1.2.1/PY32F002B_Firmware_V1.2.1/Drivers/CMSIS/Include/cmsis_gcc.h ****      documentation and/or other materials provided with the distribution.
  17:../../../PY32F002B_Firmware_V1.2.1/PY32F002B_Firmware_V1.2.1/Drivers/CMSIS/Include/cmsis_gcc.h ****    - Neither the name of ARM nor the names of its contributors may be used
  18:../../../PY32F002B_Firmware_V1.2.1/PY32F002B_Firmware_V1.2.1/Drivers/CMSIS/Include/cmsis_gcc.h ****      to endorse or promote products derived from this software without
  19:../../../PY32F002B_Firmware_V1.2.1/PY32F002B_Firmware_V1.2.1/Drivers/CMSIS/Include/cmsis_gcc.h ****      specific prior written permission.
  20:../../../PY32F002B_Firmware_V1.2.1/PY32F002B_Firmware_V1.2.1/Drivers/CMSIS/Include/cmsis_gcc.h ****    *
  21:../../../PY32F002B_Firmware_V1.2.1/PY32F002B_Firmware_V1.2.1/Drivers/CMSIS/Include/cmsis_gcc.h ****    THIS SOFTWARE IS PROVIDED BY THE COPYRIGHT HOLDERS AND CONTRIBUTORS "AS IS"
  22:../../../PY32F002B_Firmware_V1.2.1/PY32F002B_Firmware_V1.2.1/Drivers/CMSIS/Include/cmsis_gcc.h ****    AND ANY EXPRESS OR IMPLIED WARRANTIES, INCLUDING, BUT NOT LIMITED TO, THE
  23:../../../PY32F002B_Firmware_V1.2.1/PY32F002B_Firmware_V1.2.1/Drivers/CMSIS/Include/cmsis_gcc.h ****    IMPLIED WARRANTIES OF MERCHANTABILITY AND FITNESS FOR A PARTICULAR PURPOSE
  24:../../../PY32F002B_Firmware_V1.2.1/PY32F002B_Firmware_V1.2.1/Drivers/CMSIS/Include/cmsis_gcc.h ****    ARE DISCLAIMED. IN NO EVENT SHALL COPYRIGHT HOLDERS AND CONTRIBUTORS BE
  25:../../../PY32F002B_Firmware_V1.2.1/PY32F002B_Firmware_V1.2.1/Drivers/CMSIS/Include/cmsis_gcc.h ****    LIABLE FOR ANY DIRECT, INDIRECT, INCIDENTAL, SPECIAL, EXEMPLARY, OR
  26:../../../PY32F002B_Firmware_V1.2.1/PY32F002B_Firmware_V1.2.1/Drivers/CMSIS/Include/cmsis_gcc.h ****    CONSEQUENTIAL DAMAGES (INCLUDING, BUT NOT LIMITED TO, PROCUREMENT OF
  27:../../../PY32F002B_Firmware_V1.2.1/PY32F002B_Firmware_V1.2.1/Drivers/CMSIS/Include/cmsis_gcc.h ****    SUBSTITUTE GOODS OR SERVICES; LOSS OF USE, DATA, OR PROFITS; OR BUSINESS
  28:../../../PY32F002B_Firmware_V1.2.1/PY32F002B_Firmware_V1.2.1/Drivers/CMSIS/Include/cmsis_gcc.h ****    INTERRUPTION) HOWEVER CAUSED AND ON ANY THEORY OF LIABILITY, WHETHER IN
  29:../../../PY32F002B_Firmware_V1.2.1/PY32F002B_Firmware_V1.2.1/Drivers/CMSIS/Include/cmsis_gcc.h ****    CONTRACT, STRICT LIABILITY, OR TORT (INCLUDING NEGLIGENCE OR OTHERWISE)
  30:../../../PY32F002B_Firmware_V1.2.1/PY32F002B_Firmware_V1.2.1/Drivers/CMSIS/Include/cmsis_gcc.h ****    ARISING IN ANY WAY OUT OF THE USE OF THIS SOFTWARE, EVEN IF ADVISED OF THE
  31:../../../PY32F002B_Firmware_V1.2.1/PY32F002B_Firmware_V1.2.1/Drivers/CMSIS/Include/cmsis_gcc.h ****    POSSIBILITY OF SUCH DAMAGE.
  32:../../../PY32F002B_Firmware_V1.2.1/PY32F002B_Firmware_V1.2.1/Drivers/CMSIS/Include/cmsis_gcc.h ****    ---------------------------------------------------------------------------*/
  33:../../../PY32F002B_Firmware_V1.2.1/PY32F002B_Firmware_V1.2.1/Drivers/CMSIS/Include/cmsis_gcc.h **** 
  34:../../../PY32F002B_Firmware_V1.2.1/PY32F002B_Firmware_V1.2.1/Drivers/CMSIS/Include/cmsis_gcc.h **** 
  35:../../../PY32F002B_Firmware_V1.2.1/PY32F002B_Firmware_V1.2.1/Drivers/CMSIS/Include/cmsis_gcc.h **** #ifndef __CMSIS_GCC_H
  36:../../../PY32F002B_Firmware_V1.2.1/PY32F002B_Firmware_V1.2.1/Drivers/CMSIS/Include/cmsis_gcc.h **** #define __CMSIS_GCC_H
  37:../../../PY32F002B_Firmware_V1.2.1/PY32F002B_Firmware_V1.2.1/Drivers/CMSIS/Include/cmsis_gcc.h **** 
  38:../../../PY32F002B_Firmware_V1.2.1/PY32F002B_Firmware_V1.2.1/Drivers/CMSIS/Include/cmsis_gcc.h **** /* ignore some GCC warnings */
  39:../../../PY32F002B_Firmware_V1.2.1/PY32F002B_Firmware_V1.2.1/Drivers/CMSIS/Include/cmsis_gcc.h **** #if defined ( __GNUC__ )
  40:../../../PY32F002B_Firmware_V1.2.1/PY32F002B_Firmware_V1.2.1/Drivers/CMSIS/Include/cmsis_gcc.h **** #pragma GCC diagnostic push
  41:../../../PY32F002B_Firmware_V1.2.1/PY32F002B_Firmware_V1.2.1/Drivers/CMSIS/Include/cmsis_gcc.h **** #pragma GCC diagnostic ignored "-Wsign-conversion"
  42:../../../PY32F002B_Firmware_V1.2.1/PY32F002B_Firmware_V1.2.1/Drivers/CMSIS/Include/cmsis_gcc.h **** #pragma GCC diagnostic ignored "-Wconversion"
ARM GAS  C:\Users\Gautam\AppData\Local\Temp\cccR5ChD.s 			page 10


  43:../../../PY32F002B_Firmware_V1.2.1/PY32F002B_Firmware_V1.2.1/Drivers/CMSIS/Include/cmsis_gcc.h **** #pragma GCC diagnostic ignored "-Wunused-parameter"
  44:../../../PY32F002B_Firmware_V1.2.1/PY32F002B_Firmware_V1.2.1/Drivers/CMSIS/Include/cmsis_gcc.h **** #endif
  45:../../../PY32F002B_Firmware_V1.2.1/PY32F002B_Firmware_V1.2.1/Drivers/CMSIS/Include/cmsis_gcc.h **** 
  46:../../../PY32F002B_Firmware_V1.2.1/PY32F002B_Firmware_V1.2.1/Drivers/CMSIS/Include/cmsis_gcc.h **** 
  47:../../../PY32F002B_Firmware_V1.2.1/PY32F002B_Firmware_V1.2.1/Drivers/CMSIS/Include/cmsis_gcc.h **** /* ###########################  Core Function Access  ########################### */
  48:../../../PY32F002B_Firmware_V1.2.1/PY32F002B_Firmware_V1.2.1/Drivers/CMSIS/Include/cmsis_gcc.h **** /** \ingroup  CMSIS_Core_FunctionInterface
  49:../../../PY32F002B_Firmware_V1.2.1/PY32F002B_Firmware_V1.2.1/Drivers/CMSIS/Include/cmsis_gcc.h ****     \defgroup CMSIS_Core_RegAccFunctions CMSIS Core Register Access Functions
  50:../../../PY32F002B_Firmware_V1.2.1/PY32F002B_Firmware_V1.2.1/Drivers/CMSIS/Include/cmsis_gcc.h ****   @{
  51:../../../PY32F002B_Firmware_V1.2.1/PY32F002B_Firmware_V1.2.1/Drivers/CMSIS/Include/cmsis_gcc.h ****  */
  52:../../../PY32F002B_Firmware_V1.2.1/PY32F002B_Firmware_V1.2.1/Drivers/CMSIS/Include/cmsis_gcc.h **** 
  53:../../../PY32F002B_Firmware_V1.2.1/PY32F002B_Firmware_V1.2.1/Drivers/CMSIS/Include/cmsis_gcc.h **** /**
  54:../../../PY32F002B_Firmware_V1.2.1/PY32F002B_Firmware_V1.2.1/Drivers/CMSIS/Include/cmsis_gcc.h ****   \brief   Enable IRQ Interrupts
  55:../../../PY32F002B_Firmware_V1.2.1/PY32F002B_Firmware_V1.2.1/Drivers/CMSIS/Include/cmsis_gcc.h ****   \details Enables IRQ interrupts by clearing the I-bit in the CPSR.
  56:../../../PY32F002B_Firmware_V1.2.1/PY32F002B_Firmware_V1.2.1/Drivers/CMSIS/Include/cmsis_gcc.h ****            Can only be executed in Privileged modes.
  57:../../../PY32F002B_Firmware_V1.2.1/PY32F002B_Firmware_V1.2.1/Drivers/CMSIS/Include/cmsis_gcc.h ****  */
  58:../../../PY32F002B_Firmware_V1.2.1/PY32F002B_Firmware_V1.2.1/Drivers/CMSIS/Include/cmsis_gcc.h **** __attribute__( ( always_inline ) ) __STATIC_INLINE void __enable_irq(void)
  59:../../../PY32F002B_Firmware_V1.2.1/PY32F002B_Firmware_V1.2.1/Drivers/CMSIS/Include/cmsis_gcc.h **** {
  60:../../../PY32F002B_Firmware_V1.2.1/PY32F002B_Firmware_V1.2.1/Drivers/CMSIS/Include/cmsis_gcc.h ****   __ASM volatile ("cpsie i" : : : "memory");
  61:../../../PY32F002B_Firmware_V1.2.1/PY32F002B_Firmware_V1.2.1/Drivers/CMSIS/Include/cmsis_gcc.h **** }
  62:../../../PY32F002B_Firmware_V1.2.1/PY32F002B_Firmware_V1.2.1/Drivers/CMSIS/Include/cmsis_gcc.h **** 
  63:../../../PY32F002B_Firmware_V1.2.1/PY32F002B_Firmware_V1.2.1/Drivers/CMSIS/Include/cmsis_gcc.h **** 
  64:../../../PY32F002B_Firmware_V1.2.1/PY32F002B_Firmware_V1.2.1/Drivers/CMSIS/Include/cmsis_gcc.h **** /**
  65:../../../PY32F002B_Firmware_V1.2.1/PY32F002B_Firmware_V1.2.1/Drivers/CMSIS/Include/cmsis_gcc.h ****   \brief   Disable IRQ Interrupts
  66:../../../PY32F002B_Firmware_V1.2.1/PY32F002B_Firmware_V1.2.1/Drivers/CMSIS/Include/cmsis_gcc.h ****   \details Disables IRQ interrupts by setting the I-bit in the CPSR.
  67:../../../PY32F002B_Firmware_V1.2.1/PY32F002B_Firmware_V1.2.1/Drivers/CMSIS/Include/cmsis_gcc.h ****   Can only be executed in Privileged modes.
  68:../../../PY32F002B_Firmware_V1.2.1/PY32F002B_Firmware_V1.2.1/Drivers/CMSIS/Include/cmsis_gcc.h ****  */
  69:../../../PY32F002B_Firmware_V1.2.1/PY32F002B_Firmware_V1.2.1/Drivers/CMSIS/Include/cmsis_gcc.h **** __attribute__( ( always_inline ) ) __STATIC_INLINE void __disable_irq(void)
  70:../../../PY32F002B_Firmware_V1.2.1/PY32F002B_Firmware_V1.2.1/Drivers/CMSIS/Include/cmsis_gcc.h **** {
  71:../../../PY32F002B_Firmware_V1.2.1/PY32F002B_Firmware_V1.2.1/Drivers/CMSIS/Include/cmsis_gcc.h ****   __ASM volatile ("cpsid i" : : : "memory");
  72:../../../PY32F002B_Firmware_V1.2.1/PY32F002B_Firmware_V1.2.1/Drivers/CMSIS/Include/cmsis_gcc.h **** }
  73:../../../PY32F002B_Firmware_V1.2.1/PY32F002B_Firmware_V1.2.1/Drivers/CMSIS/Include/cmsis_gcc.h **** 
  74:../../../PY32F002B_Firmware_V1.2.1/PY32F002B_Firmware_V1.2.1/Drivers/CMSIS/Include/cmsis_gcc.h **** 
  75:../../../PY32F002B_Firmware_V1.2.1/PY32F002B_Firmware_V1.2.1/Drivers/CMSIS/Include/cmsis_gcc.h **** /**
  76:../../../PY32F002B_Firmware_V1.2.1/PY32F002B_Firmware_V1.2.1/Drivers/CMSIS/Include/cmsis_gcc.h ****   \brief   Get Control Register
  77:../../../PY32F002B_Firmware_V1.2.1/PY32F002B_Firmware_V1.2.1/Drivers/CMSIS/Include/cmsis_gcc.h ****   \details Returns the content of the Control Register.
  78:../../../PY32F002B_Firmware_V1.2.1/PY32F002B_Firmware_V1.2.1/Drivers/CMSIS/Include/cmsis_gcc.h ****   \return               Control Register value
  79:../../../PY32F002B_Firmware_V1.2.1/PY32F002B_Firmware_V1.2.1/Drivers/CMSIS/Include/cmsis_gcc.h ****  */
  80:../../../PY32F002B_Firmware_V1.2.1/PY32F002B_Firmware_V1.2.1/Drivers/CMSIS/Include/cmsis_gcc.h **** __attribute__( ( always_inline ) ) __STATIC_INLINE uint32_t __get_CONTROL(void)
  81:../../../PY32F002B_Firmware_V1.2.1/PY32F002B_Firmware_V1.2.1/Drivers/CMSIS/Include/cmsis_gcc.h **** {
  82:../../../PY32F002B_Firmware_V1.2.1/PY32F002B_Firmware_V1.2.1/Drivers/CMSIS/Include/cmsis_gcc.h ****   uint32_t result;
  83:../../../PY32F002B_Firmware_V1.2.1/PY32F002B_Firmware_V1.2.1/Drivers/CMSIS/Include/cmsis_gcc.h **** 
  84:../../../PY32F002B_Firmware_V1.2.1/PY32F002B_Firmware_V1.2.1/Drivers/CMSIS/Include/cmsis_gcc.h ****   __ASM volatile ("MRS %0, control" : "=r" (result) );
  85:../../../PY32F002B_Firmware_V1.2.1/PY32F002B_Firmware_V1.2.1/Drivers/CMSIS/Include/cmsis_gcc.h ****   return(result);
  86:../../../PY32F002B_Firmware_V1.2.1/PY32F002B_Firmware_V1.2.1/Drivers/CMSIS/Include/cmsis_gcc.h **** }
  87:../../../PY32F002B_Firmware_V1.2.1/PY32F002B_Firmware_V1.2.1/Drivers/CMSIS/Include/cmsis_gcc.h **** 
  88:../../../PY32F002B_Firmware_V1.2.1/PY32F002B_Firmware_V1.2.1/Drivers/CMSIS/Include/cmsis_gcc.h **** 
  89:../../../PY32F002B_Firmware_V1.2.1/PY32F002B_Firmware_V1.2.1/Drivers/CMSIS/Include/cmsis_gcc.h **** /**
  90:../../../PY32F002B_Firmware_V1.2.1/PY32F002B_Firmware_V1.2.1/Drivers/CMSIS/Include/cmsis_gcc.h ****   \brief   Set Control Register
  91:../../../PY32F002B_Firmware_V1.2.1/PY32F002B_Firmware_V1.2.1/Drivers/CMSIS/Include/cmsis_gcc.h ****   \details Writes the given value to the Control Register.
  92:../../../PY32F002B_Firmware_V1.2.1/PY32F002B_Firmware_V1.2.1/Drivers/CMSIS/Include/cmsis_gcc.h ****   \param [in]    control  Control Register value to set
  93:../../../PY32F002B_Firmware_V1.2.1/PY32F002B_Firmware_V1.2.1/Drivers/CMSIS/Include/cmsis_gcc.h ****  */
  94:../../../PY32F002B_Firmware_V1.2.1/PY32F002B_Firmware_V1.2.1/Drivers/CMSIS/Include/cmsis_gcc.h **** __attribute__( ( always_inline ) ) __STATIC_INLINE void __set_CONTROL(uint32_t control)
  95:../../../PY32F002B_Firmware_V1.2.1/PY32F002B_Firmware_V1.2.1/Drivers/CMSIS/Include/cmsis_gcc.h **** {
  96:../../../PY32F002B_Firmware_V1.2.1/PY32F002B_Firmware_V1.2.1/Drivers/CMSIS/Include/cmsis_gcc.h ****   __ASM volatile ("MSR control, %0" : : "r" (control) : "memory");
  97:../../../PY32F002B_Firmware_V1.2.1/PY32F002B_Firmware_V1.2.1/Drivers/CMSIS/Include/cmsis_gcc.h **** }
  98:../../../PY32F002B_Firmware_V1.2.1/PY32F002B_Firmware_V1.2.1/Drivers/CMSIS/Include/cmsis_gcc.h **** 
  99:../../../PY32F002B_Firmware_V1.2.1/PY32F002B_Firmware_V1.2.1/Drivers/CMSIS/Include/cmsis_gcc.h **** 
ARM GAS  C:\Users\Gautam\AppData\Local\Temp\cccR5ChD.s 			page 11


 100:../../../PY32F002B_Firmware_V1.2.1/PY32F002B_Firmware_V1.2.1/Drivers/CMSIS/Include/cmsis_gcc.h **** /**
 101:../../../PY32F002B_Firmware_V1.2.1/PY32F002B_Firmware_V1.2.1/Drivers/CMSIS/Include/cmsis_gcc.h ****   \brief   Get IPSR Register
 102:../../../PY32F002B_Firmware_V1.2.1/PY32F002B_Firmware_V1.2.1/Drivers/CMSIS/Include/cmsis_gcc.h ****   \details Returns the content of the IPSR Register.
 103:../../../PY32F002B_Firmware_V1.2.1/PY32F002B_Firmware_V1.2.1/Drivers/CMSIS/Include/cmsis_gcc.h ****   \return               IPSR Register value
 104:../../../PY32F002B_Firmware_V1.2.1/PY32F002B_Firmware_V1.2.1/Drivers/CMSIS/Include/cmsis_gcc.h ****  */
 105:../../../PY32F002B_Firmware_V1.2.1/PY32F002B_Firmware_V1.2.1/Drivers/CMSIS/Include/cmsis_gcc.h **** __attribute__( ( always_inline ) ) __STATIC_INLINE uint32_t __get_IPSR(void)
 106:../../../PY32F002B_Firmware_V1.2.1/PY32F002B_Firmware_V1.2.1/Drivers/CMSIS/Include/cmsis_gcc.h **** {
 107:../../../PY32F002B_Firmware_V1.2.1/PY32F002B_Firmware_V1.2.1/Drivers/CMSIS/Include/cmsis_gcc.h ****   uint32_t result;
 108:../../../PY32F002B_Firmware_V1.2.1/PY32F002B_Firmware_V1.2.1/Drivers/CMSIS/Include/cmsis_gcc.h **** 
 109:../../../PY32F002B_Firmware_V1.2.1/PY32F002B_Firmware_V1.2.1/Drivers/CMSIS/Include/cmsis_gcc.h ****   __ASM volatile ("MRS %0, ipsr" : "=r" (result) );
 110:../../../PY32F002B_Firmware_V1.2.1/PY32F002B_Firmware_V1.2.1/Drivers/CMSIS/Include/cmsis_gcc.h ****   return(result);
 111:../../../PY32F002B_Firmware_V1.2.1/PY32F002B_Firmware_V1.2.1/Drivers/CMSIS/Include/cmsis_gcc.h **** }
 112:../../../PY32F002B_Firmware_V1.2.1/PY32F002B_Firmware_V1.2.1/Drivers/CMSIS/Include/cmsis_gcc.h **** 
 113:../../../PY32F002B_Firmware_V1.2.1/PY32F002B_Firmware_V1.2.1/Drivers/CMSIS/Include/cmsis_gcc.h **** 
 114:../../../PY32F002B_Firmware_V1.2.1/PY32F002B_Firmware_V1.2.1/Drivers/CMSIS/Include/cmsis_gcc.h **** /**
 115:../../../PY32F002B_Firmware_V1.2.1/PY32F002B_Firmware_V1.2.1/Drivers/CMSIS/Include/cmsis_gcc.h ****   \brief   Get APSR Register
 116:../../../PY32F002B_Firmware_V1.2.1/PY32F002B_Firmware_V1.2.1/Drivers/CMSIS/Include/cmsis_gcc.h ****   \details Returns the content of the APSR Register.
 117:../../../PY32F002B_Firmware_V1.2.1/PY32F002B_Firmware_V1.2.1/Drivers/CMSIS/Include/cmsis_gcc.h ****   \return               APSR Register value
 118:../../../PY32F002B_Firmware_V1.2.1/PY32F002B_Firmware_V1.2.1/Drivers/CMSIS/Include/cmsis_gcc.h ****  */
 119:../../../PY32F002B_Firmware_V1.2.1/PY32F002B_Firmware_V1.2.1/Drivers/CMSIS/Include/cmsis_gcc.h **** __attribute__( ( always_inline ) ) __STATIC_INLINE uint32_t __get_APSR(void)
 120:../../../PY32F002B_Firmware_V1.2.1/PY32F002B_Firmware_V1.2.1/Drivers/CMSIS/Include/cmsis_gcc.h **** {
 121:../../../PY32F002B_Firmware_V1.2.1/PY32F002B_Firmware_V1.2.1/Drivers/CMSIS/Include/cmsis_gcc.h ****   uint32_t result;
 122:../../../PY32F002B_Firmware_V1.2.1/PY32F002B_Firmware_V1.2.1/Drivers/CMSIS/Include/cmsis_gcc.h **** 
 123:../../../PY32F002B_Firmware_V1.2.1/PY32F002B_Firmware_V1.2.1/Drivers/CMSIS/Include/cmsis_gcc.h ****   __ASM volatile ("MRS %0, apsr" : "=r" (result) );
 124:../../../PY32F002B_Firmware_V1.2.1/PY32F002B_Firmware_V1.2.1/Drivers/CMSIS/Include/cmsis_gcc.h ****   return(result);
 125:../../../PY32F002B_Firmware_V1.2.1/PY32F002B_Firmware_V1.2.1/Drivers/CMSIS/Include/cmsis_gcc.h **** }
 126:../../../PY32F002B_Firmware_V1.2.1/PY32F002B_Firmware_V1.2.1/Drivers/CMSIS/Include/cmsis_gcc.h **** 
 127:../../../PY32F002B_Firmware_V1.2.1/PY32F002B_Firmware_V1.2.1/Drivers/CMSIS/Include/cmsis_gcc.h **** 
 128:../../../PY32F002B_Firmware_V1.2.1/PY32F002B_Firmware_V1.2.1/Drivers/CMSIS/Include/cmsis_gcc.h **** /**
 129:../../../PY32F002B_Firmware_V1.2.1/PY32F002B_Firmware_V1.2.1/Drivers/CMSIS/Include/cmsis_gcc.h ****   \brief   Get xPSR Register
 130:../../../PY32F002B_Firmware_V1.2.1/PY32F002B_Firmware_V1.2.1/Drivers/CMSIS/Include/cmsis_gcc.h ****   \details Returns the content of the xPSR Register.
 131:../../../PY32F002B_Firmware_V1.2.1/PY32F002B_Firmware_V1.2.1/Drivers/CMSIS/Include/cmsis_gcc.h **** 
 132:../../../PY32F002B_Firmware_V1.2.1/PY32F002B_Firmware_V1.2.1/Drivers/CMSIS/Include/cmsis_gcc.h ****     \return               xPSR Register value
 133:../../../PY32F002B_Firmware_V1.2.1/PY32F002B_Firmware_V1.2.1/Drivers/CMSIS/Include/cmsis_gcc.h ****  */
 134:../../../PY32F002B_Firmware_V1.2.1/PY32F002B_Firmware_V1.2.1/Drivers/CMSIS/Include/cmsis_gcc.h **** __attribute__( ( always_inline ) ) __STATIC_INLINE uint32_t __get_xPSR(void)
 135:../../../PY32F002B_Firmware_V1.2.1/PY32F002B_Firmware_V1.2.1/Drivers/CMSIS/Include/cmsis_gcc.h **** {
 136:../../../PY32F002B_Firmware_V1.2.1/PY32F002B_Firmware_V1.2.1/Drivers/CMSIS/Include/cmsis_gcc.h ****   uint32_t result;
 137:../../../PY32F002B_Firmware_V1.2.1/PY32F002B_Firmware_V1.2.1/Drivers/CMSIS/Include/cmsis_gcc.h **** 
 138:../../../PY32F002B_Firmware_V1.2.1/PY32F002B_Firmware_V1.2.1/Drivers/CMSIS/Include/cmsis_gcc.h ****   __ASM volatile ("MRS %0, xpsr" : "=r" (result) );
 139:../../../PY32F002B_Firmware_V1.2.1/PY32F002B_Firmware_V1.2.1/Drivers/CMSIS/Include/cmsis_gcc.h ****   return(result);
 140:../../../PY32F002B_Firmware_V1.2.1/PY32F002B_Firmware_V1.2.1/Drivers/CMSIS/Include/cmsis_gcc.h **** }
 141:../../../PY32F002B_Firmware_V1.2.1/PY32F002B_Firmware_V1.2.1/Drivers/CMSIS/Include/cmsis_gcc.h **** 
 142:../../../PY32F002B_Firmware_V1.2.1/PY32F002B_Firmware_V1.2.1/Drivers/CMSIS/Include/cmsis_gcc.h **** 
 143:../../../PY32F002B_Firmware_V1.2.1/PY32F002B_Firmware_V1.2.1/Drivers/CMSIS/Include/cmsis_gcc.h **** /**
 144:../../../PY32F002B_Firmware_V1.2.1/PY32F002B_Firmware_V1.2.1/Drivers/CMSIS/Include/cmsis_gcc.h ****   \brief   Get Process Stack Pointer
 145:../../../PY32F002B_Firmware_V1.2.1/PY32F002B_Firmware_V1.2.1/Drivers/CMSIS/Include/cmsis_gcc.h ****   \details Returns the current value of the Process Stack Pointer (PSP).
 146:../../../PY32F002B_Firmware_V1.2.1/PY32F002B_Firmware_V1.2.1/Drivers/CMSIS/Include/cmsis_gcc.h ****   \return               PSP Register value
 147:../../../PY32F002B_Firmware_V1.2.1/PY32F002B_Firmware_V1.2.1/Drivers/CMSIS/Include/cmsis_gcc.h ****  */
 148:../../../PY32F002B_Firmware_V1.2.1/PY32F002B_Firmware_V1.2.1/Drivers/CMSIS/Include/cmsis_gcc.h **** __attribute__( ( always_inline ) ) __STATIC_INLINE uint32_t __get_PSP(void)
 149:../../../PY32F002B_Firmware_V1.2.1/PY32F002B_Firmware_V1.2.1/Drivers/CMSIS/Include/cmsis_gcc.h **** {
 150:../../../PY32F002B_Firmware_V1.2.1/PY32F002B_Firmware_V1.2.1/Drivers/CMSIS/Include/cmsis_gcc.h ****   register uint32_t result;
 151:../../../PY32F002B_Firmware_V1.2.1/PY32F002B_Firmware_V1.2.1/Drivers/CMSIS/Include/cmsis_gcc.h **** 
 152:../../../PY32F002B_Firmware_V1.2.1/PY32F002B_Firmware_V1.2.1/Drivers/CMSIS/Include/cmsis_gcc.h ****   __ASM volatile ("MRS %0, psp\n"  : "=r" (result) );
 153:../../../PY32F002B_Firmware_V1.2.1/PY32F002B_Firmware_V1.2.1/Drivers/CMSIS/Include/cmsis_gcc.h ****   return(result);
 154:../../../PY32F002B_Firmware_V1.2.1/PY32F002B_Firmware_V1.2.1/Drivers/CMSIS/Include/cmsis_gcc.h **** }
 155:../../../PY32F002B_Firmware_V1.2.1/PY32F002B_Firmware_V1.2.1/Drivers/CMSIS/Include/cmsis_gcc.h **** 
 156:../../../PY32F002B_Firmware_V1.2.1/PY32F002B_Firmware_V1.2.1/Drivers/CMSIS/Include/cmsis_gcc.h **** 
ARM GAS  C:\Users\Gautam\AppData\Local\Temp\cccR5ChD.s 			page 12


 157:../../../PY32F002B_Firmware_V1.2.1/PY32F002B_Firmware_V1.2.1/Drivers/CMSIS/Include/cmsis_gcc.h **** /**
 158:../../../PY32F002B_Firmware_V1.2.1/PY32F002B_Firmware_V1.2.1/Drivers/CMSIS/Include/cmsis_gcc.h ****   \brief   Set Process Stack Pointer
 159:../../../PY32F002B_Firmware_V1.2.1/PY32F002B_Firmware_V1.2.1/Drivers/CMSIS/Include/cmsis_gcc.h ****   \details Assigns the given value to the Process Stack Pointer (PSP).
 160:../../../PY32F002B_Firmware_V1.2.1/PY32F002B_Firmware_V1.2.1/Drivers/CMSIS/Include/cmsis_gcc.h ****   \param [in]    topOfProcStack  Process Stack Pointer value to set
 161:../../../PY32F002B_Firmware_V1.2.1/PY32F002B_Firmware_V1.2.1/Drivers/CMSIS/Include/cmsis_gcc.h ****  */
 162:../../../PY32F002B_Firmware_V1.2.1/PY32F002B_Firmware_V1.2.1/Drivers/CMSIS/Include/cmsis_gcc.h **** __attribute__( ( always_inline ) ) __STATIC_INLINE void __set_PSP(uint32_t topOfProcStack)
 163:../../../PY32F002B_Firmware_V1.2.1/PY32F002B_Firmware_V1.2.1/Drivers/CMSIS/Include/cmsis_gcc.h **** {
 164:../../../PY32F002B_Firmware_V1.2.1/PY32F002B_Firmware_V1.2.1/Drivers/CMSIS/Include/cmsis_gcc.h ****   __ASM volatile ("MSR psp, %0\n" : : "r" (topOfProcStack) : "sp");
 165:../../../PY32F002B_Firmware_V1.2.1/PY32F002B_Firmware_V1.2.1/Drivers/CMSIS/Include/cmsis_gcc.h **** }
 166:../../../PY32F002B_Firmware_V1.2.1/PY32F002B_Firmware_V1.2.1/Drivers/CMSIS/Include/cmsis_gcc.h **** 
 167:../../../PY32F002B_Firmware_V1.2.1/PY32F002B_Firmware_V1.2.1/Drivers/CMSIS/Include/cmsis_gcc.h **** 
 168:../../../PY32F002B_Firmware_V1.2.1/PY32F002B_Firmware_V1.2.1/Drivers/CMSIS/Include/cmsis_gcc.h **** /**
 169:../../../PY32F002B_Firmware_V1.2.1/PY32F002B_Firmware_V1.2.1/Drivers/CMSIS/Include/cmsis_gcc.h ****   \brief   Get Main Stack Pointer
 170:../../../PY32F002B_Firmware_V1.2.1/PY32F002B_Firmware_V1.2.1/Drivers/CMSIS/Include/cmsis_gcc.h ****   \details Returns the current value of the Main Stack Pointer (MSP).
 171:../../../PY32F002B_Firmware_V1.2.1/PY32F002B_Firmware_V1.2.1/Drivers/CMSIS/Include/cmsis_gcc.h ****   \return               MSP Register value
 172:../../../PY32F002B_Firmware_V1.2.1/PY32F002B_Firmware_V1.2.1/Drivers/CMSIS/Include/cmsis_gcc.h ****  */
 173:../../../PY32F002B_Firmware_V1.2.1/PY32F002B_Firmware_V1.2.1/Drivers/CMSIS/Include/cmsis_gcc.h **** __attribute__( ( always_inline ) ) __STATIC_INLINE uint32_t __get_MSP(void)
 174:../../../PY32F002B_Firmware_V1.2.1/PY32F002B_Firmware_V1.2.1/Drivers/CMSIS/Include/cmsis_gcc.h **** {
 175:../../../PY32F002B_Firmware_V1.2.1/PY32F002B_Firmware_V1.2.1/Drivers/CMSIS/Include/cmsis_gcc.h ****   register uint32_t result;
 176:../../../PY32F002B_Firmware_V1.2.1/PY32F002B_Firmware_V1.2.1/Drivers/CMSIS/Include/cmsis_gcc.h **** 
 177:../../../PY32F002B_Firmware_V1.2.1/PY32F002B_Firmware_V1.2.1/Drivers/CMSIS/Include/cmsis_gcc.h ****   __ASM volatile ("MRS %0, msp\n" : "=r" (result) );
 178:../../../PY32F002B_Firmware_V1.2.1/PY32F002B_Firmware_V1.2.1/Drivers/CMSIS/Include/cmsis_gcc.h ****   return(result);
 179:../../../PY32F002B_Firmware_V1.2.1/PY32F002B_Firmware_V1.2.1/Drivers/CMSIS/Include/cmsis_gcc.h **** }
 180:../../../PY32F002B_Firmware_V1.2.1/PY32F002B_Firmware_V1.2.1/Drivers/CMSIS/Include/cmsis_gcc.h **** 
 181:../../../PY32F002B_Firmware_V1.2.1/PY32F002B_Firmware_V1.2.1/Drivers/CMSIS/Include/cmsis_gcc.h **** 
 182:../../../PY32F002B_Firmware_V1.2.1/PY32F002B_Firmware_V1.2.1/Drivers/CMSIS/Include/cmsis_gcc.h **** /**
 183:../../../PY32F002B_Firmware_V1.2.1/PY32F002B_Firmware_V1.2.1/Drivers/CMSIS/Include/cmsis_gcc.h ****   \brief   Set Main Stack Pointer
 184:../../../PY32F002B_Firmware_V1.2.1/PY32F002B_Firmware_V1.2.1/Drivers/CMSIS/Include/cmsis_gcc.h ****   \details Assigns the given value to the Main Stack Pointer (MSP).
 185:../../../PY32F002B_Firmware_V1.2.1/PY32F002B_Firmware_V1.2.1/Drivers/CMSIS/Include/cmsis_gcc.h **** 
 186:../../../PY32F002B_Firmware_V1.2.1/PY32F002B_Firmware_V1.2.1/Drivers/CMSIS/Include/cmsis_gcc.h ****     \param [in]    topOfMainStack  Main Stack Pointer value to set
 187:../../../PY32F002B_Firmware_V1.2.1/PY32F002B_Firmware_V1.2.1/Drivers/CMSIS/Include/cmsis_gcc.h ****  */
 188:../../../PY32F002B_Firmware_V1.2.1/PY32F002B_Firmware_V1.2.1/Drivers/CMSIS/Include/cmsis_gcc.h **** __attribute__( ( always_inline ) ) __STATIC_INLINE void __set_MSP(uint32_t topOfMainStack)
 189:../../../PY32F002B_Firmware_V1.2.1/PY32F002B_Firmware_V1.2.1/Drivers/CMSIS/Include/cmsis_gcc.h **** {
 190:../../../PY32F002B_Firmware_V1.2.1/PY32F002B_Firmware_V1.2.1/Drivers/CMSIS/Include/cmsis_gcc.h ****   __ASM volatile ("MSR msp, %0\n" : : "r" (topOfMainStack) : "sp");
 191:../../../PY32F002B_Firmware_V1.2.1/PY32F002B_Firmware_V1.2.1/Drivers/CMSIS/Include/cmsis_gcc.h **** }
 192:../../../PY32F002B_Firmware_V1.2.1/PY32F002B_Firmware_V1.2.1/Drivers/CMSIS/Include/cmsis_gcc.h **** 
 193:../../../PY32F002B_Firmware_V1.2.1/PY32F002B_Firmware_V1.2.1/Drivers/CMSIS/Include/cmsis_gcc.h **** 
 194:../../../PY32F002B_Firmware_V1.2.1/PY32F002B_Firmware_V1.2.1/Drivers/CMSIS/Include/cmsis_gcc.h **** /**
 195:../../../PY32F002B_Firmware_V1.2.1/PY32F002B_Firmware_V1.2.1/Drivers/CMSIS/Include/cmsis_gcc.h ****   \brief   Get Priority Mask
 196:../../../PY32F002B_Firmware_V1.2.1/PY32F002B_Firmware_V1.2.1/Drivers/CMSIS/Include/cmsis_gcc.h ****   \details Returns the current state of the priority mask bit from the Priority Mask Register.
 197:../../../PY32F002B_Firmware_V1.2.1/PY32F002B_Firmware_V1.2.1/Drivers/CMSIS/Include/cmsis_gcc.h ****   \return               Priority Mask value
 198:../../../PY32F002B_Firmware_V1.2.1/PY32F002B_Firmware_V1.2.1/Drivers/CMSIS/Include/cmsis_gcc.h ****  */
 199:../../../PY32F002B_Firmware_V1.2.1/PY32F002B_Firmware_V1.2.1/Drivers/CMSIS/Include/cmsis_gcc.h **** __attribute__( ( always_inline ) ) __STATIC_INLINE uint32_t __get_PRIMASK(void)
 200:../../../PY32F002B_Firmware_V1.2.1/PY32F002B_Firmware_V1.2.1/Drivers/CMSIS/Include/cmsis_gcc.h **** {
 201:../../../PY32F002B_Firmware_V1.2.1/PY32F002B_Firmware_V1.2.1/Drivers/CMSIS/Include/cmsis_gcc.h ****   uint32_t result;
 202:../../../PY32F002B_Firmware_V1.2.1/PY32F002B_Firmware_V1.2.1/Drivers/CMSIS/Include/cmsis_gcc.h **** 
 203:../../../PY32F002B_Firmware_V1.2.1/PY32F002B_Firmware_V1.2.1/Drivers/CMSIS/Include/cmsis_gcc.h ****   __ASM volatile ("MRS %0, primask" : "=r" (result) );
 204:../../../PY32F002B_Firmware_V1.2.1/PY32F002B_Firmware_V1.2.1/Drivers/CMSIS/Include/cmsis_gcc.h ****   return(result);
 205:../../../PY32F002B_Firmware_V1.2.1/PY32F002B_Firmware_V1.2.1/Drivers/CMSIS/Include/cmsis_gcc.h **** }
 206:../../../PY32F002B_Firmware_V1.2.1/PY32F002B_Firmware_V1.2.1/Drivers/CMSIS/Include/cmsis_gcc.h **** 
 207:../../../PY32F002B_Firmware_V1.2.1/PY32F002B_Firmware_V1.2.1/Drivers/CMSIS/Include/cmsis_gcc.h **** 
 208:../../../PY32F002B_Firmware_V1.2.1/PY32F002B_Firmware_V1.2.1/Drivers/CMSIS/Include/cmsis_gcc.h **** /**
 209:../../../PY32F002B_Firmware_V1.2.1/PY32F002B_Firmware_V1.2.1/Drivers/CMSIS/Include/cmsis_gcc.h ****   \brief   Set Priority Mask
 210:../../../PY32F002B_Firmware_V1.2.1/PY32F002B_Firmware_V1.2.1/Drivers/CMSIS/Include/cmsis_gcc.h ****   \details Assigns the given value to the Priority Mask Register.
 211:../../../PY32F002B_Firmware_V1.2.1/PY32F002B_Firmware_V1.2.1/Drivers/CMSIS/Include/cmsis_gcc.h ****   \param [in]    priMask  Priority Mask
 212:../../../PY32F002B_Firmware_V1.2.1/PY32F002B_Firmware_V1.2.1/Drivers/CMSIS/Include/cmsis_gcc.h ****  */
 213:../../../PY32F002B_Firmware_V1.2.1/PY32F002B_Firmware_V1.2.1/Drivers/CMSIS/Include/cmsis_gcc.h **** __attribute__( ( always_inline ) ) __STATIC_INLINE void __set_PRIMASK(uint32_t priMask)
ARM GAS  C:\Users\Gautam\AppData\Local\Temp\cccR5ChD.s 			page 13


 214:../../../PY32F002B_Firmware_V1.2.1/PY32F002B_Firmware_V1.2.1/Drivers/CMSIS/Include/cmsis_gcc.h **** {
 215:../../../PY32F002B_Firmware_V1.2.1/PY32F002B_Firmware_V1.2.1/Drivers/CMSIS/Include/cmsis_gcc.h ****   __ASM volatile ("MSR primask, %0" : : "r" (priMask) : "memory");
 216:../../../PY32F002B_Firmware_V1.2.1/PY32F002B_Firmware_V1.2.1/Drivers/CMSIS/Include/cmsis_gcc.h **** }
 217:../../../PY32F002B_Firmware_V1.2.1/PY32F002B_Firmware_V1.2.1/Drivers/CMSIS/Include/cmsis_gcc.h **** 
 218:../../../PY32F002B_Firmware_V1.2.1/PY32F002B_Firmware_V1.2.1/Drivers/CMSIS/Include/cmsis_gcc.h **** 
 219:../../../PY32F002B_Firmware_V1.2.1/PY32F002B_Firmware_V1.2.1/Drivers/CMSIS/Include/cmsis_gcc.h **** #if       (__CORTEX_M >= 0x03U)
 220:../../../PY32F002B_Firmware_V1.2.1/PY32F002B_Firmware_V1.2.1/Drivers/CMSIS/Include/cmsis_gcc.h **** 
 221:../../../PY32F002B_Firmware_V1.2.1/PY32F002B_Firmware_V1.2.1/Drivers/CMSIS/Include/cmsis_gcc.h **** /**
 222:../../../PY32F002B_Firmware_V1.2.1/PY32F002B_Firmware_V1.2.1/Drivers/CMSIS/Include/cmsis_gcc.h ****   \brief   Enable FIQ
 223:../../../PY32F002B_Firmware_V1.2.1/PY32F002B_Firmware_V1.2.1/Drivers/CMSIS/Include/cmsis_gcc.h ****   \details Enables FIQ interrupts by clearing the F-bit in the CPSR.
 224:../../../PY32F002B_Firmware_V1.2.1/PY32F002B_Firmware_V1.2.1/Drivers/CMSIS/Include/cmsis_gcc.h ****            Can only be executed in Privileged modes.
 225:../../../PY32F002B_Firmware_V1.2.1/PY32F002B_Firmware_V1.2.1/Drivers/CMSIS/Include/cmsis_gcc.h ****  */
 226:../../../PY32F002B_Firmware_V1.2.1/PY32F002B_Firmware_V1.2.1/Drivers/CMSIS/Include/cmsis_gcc.h **** __attribute__( ( always_inline ) ) __STATIC_INLINE void __enable_fault_irq(void)
 227:../../../PY32F002B_Firmware_V1.2.1/PY32F002B_Firmware_V1.2.1/Drivers/CMSIS/Include/cmsis_gcc.h **** {
 228:../../../PY32F002B_Firmware_V1.2.1/PY32F002B_Firmware_V1.2.1/Drivers/CMSIS/Include/cmsis_gcc.h ****   __ASM volatile ("cpsie f" : : : "memory");
 229:../../../PY32F002B_Firmware_V1.2.1/PY32F002B_Firmware_V1.2.1/Drivers/CMSIS/Include/cmsis_gcc.h **** }
 230:../../../PY32F002B_Firmware_V1.2.1/PY32F002B_Firmware_V1.2.1/Drivers/CMSIS/Include/cmsis_gcc.h **** 
 231:../../../PY32F002B_Firmware_V1.2.1/PY32F002B_Firmware_V1.2.1/Drivers/CMSIS/Include/cmsis_gcc.h **** 
 232:../../../PY32F002B_Firmware_V1.2.1/PY32F002B_Firmware_V1.2.1/Drivers/CMSIS/Include/cmsis_gcc.h **** /**
 233:../../../PY32F002B_Firmware_V1.2.1/PY32F002B_Firmware_V1.2.1/Drivers/CMSIS/Include/cmsis_gcc.h ****   \brief   Disable FIQ
 234:../../../PY32F002B_Firmware_V1.2.1/PY32F002B_Firmware_V1.2.1/Drivers/CMSIS/Include/cmsis_gcc.h ****   \details Disables FIQ interrupts by setting the F-bit in the CPSR.
 235:../../../PY32F002B_Firmware_V1.2.1/PY32F002B_Firmware_V1.2.1/Drivers/CMSIS/Include/cmsis_gcc.h ****            Can only be executed in Privileged modes.
 236:../../../PY32F002B_Firmware_V1.2.1/PY32F002B_Firmware_V1.2.1/Drivers/CMSIS/Include/cmsis_gcc.h ****  */
 237:../../../PY32F002B_Firmware_V1.2.1/PY32F002B_Firmware_V1.2.1/Drivers/CMSIS/Include/cmsis_gcc.h **** __attribute__( ( always_inline ) ) __STATIC_INLINE void __disable_fault_irq(void)
 238:../../../PY32F002B_Firmware_V1.2.1/PY32F002B_Firmware_V1.2.1/Drivers/CMSIS/Include/cmsis_gcc.h **** {
 239:../../../PY32F002B_Firmware_V1.2.1/PY32F002B_Firmware_V1.2.1/Drivers/CMSIS/Include/cmsis_gcc.h ****   __ASM volatile ("cpsid f" : : : "memory");
 240:../../../PY32F002B_Firmware_V1.2.1/PY32F002B_Firmware_V1.2.1/Drivers/CMSIS/Include/cmsis_gcc.h **** }
 241:../../../PY32F002B_Firmware_V1.2.1/PY32F002B_Firmware_V1.2.1/Drivers/CMSIS/Include/cmsis_gcc.h **** 
 242:../../../PY32F002B_Firmware_V1.2.1/PY32F002B_Firmware_V1.2.1/Drivers/CMSIS/Include/cmsis_gcc.h **** 
 243:../../../PY32F002B_Firmware_V1.2.1/PY32F002B_Firmware_V1.2.1/Drivers/CMSIS/Include/cmsis_gcc.h **** /**
 244:../../../PY32F002B_Firmware_V1.2.1/PY32F002B_Firmware_V1.2.1/Drivers/CMSIS/Include/cmsis_gcc.h ****   \brief   Get Base Priority
 245:../../../PY32F002B_Firmware_V1.2.1/PY32F002B_Firmware_V1.2.1/Drivers/CMSIS/Include/cmsis_gcc.h ****   \details Returns the current value of the Base Priority register.
 246:../../../PY32F002B_Firmware_V1.2.1/PY32F002B_Firmware_V1.2.1/Drivers/CMSIS/Include/cmsis_gcc.h ****   \return               Base Priority register value
 247:../../../PY32F002B_Firmware_V1.2.1/PY32F002B_Firmware_V1.2.1/Drivers/CMSIS/Include/cmsis_gcc.h ****  */
 248:../../../PY32F002B_Firmware_V1.2.1/PY32F002B_Firmware_V1.2.1/Drivers/CMSIS/Include/cmsis_gcc.h **** __attribute__( ( always_inline ) ) __STATIC_INLINE uint32_t __get_BASEPRI(void)
 249:../../../PY32F002B_Firmware_V1.2.1/PY32F002B_Firmware_V1.2.1/Drivers/CMSIS/Include/cmsis_gcc.h **** {
 250:../../../PY32F002B_Firmware_V1.2.1/PY32F002B_Firmware_V1.2.1/Drivers/CMSIS/Include/cmsis_gcc.h ****   uint32_t result;
 251:../../../PY32F002B_Firmware_V1.2.1/PY32F002B_Firmware_V1.2.1/Drivers/CMSIS/Include/cmsis_gcc.h **** 
 252:../../../PY32F002B_Firmware_V1.2.1/PY32F002B_Firmware_V1.2.1/Drivers/CMSIS/Include/cmsis_gcc.h ****   __ASM volatile ("MRS %0, basepri" : "=r" (result) );
 253:../../../PY32F002B_Firmware_V1.2.1/PY32F002B_Firmware_V1.2.1/Drivers/CMSIS/Include/cmsis_gcc.h ****   return(result);
 254:../../../PY32F002B_Firmware_V1.2.1/PY32F002B_Firmware_V1.2.1/Drivers/CMSIS/Include/cmsis_gcc.h **** }
 255:../../../PY32F002B_Firmware_V1.2.1/PY32F002B_Firmware_V1.2.1/Drivers/CMSIS/Include/cmsis_gcc.h **** 
 256:../../../PY32F002B_Firmware_V1.2.1/PY32F002B_Firmware_V1.2.1/Drivers/CMSIS/Include/cmsis_gcc.h **** 
 257:../../../PY32F002B_Firmware_V1.2.1/PY32F002B_Firmware_V1.2.1/Drivers/CMSIS/Include/cmsis_gcc.h **** /**
 258:../../../PY32F002B_Firmware_V1.2.1/PY32F002B_Firmware_V1.2.1/Drivers/CMSIS/Include/cmsis_gcc.h ****   \brief   Set Base Priority
 259:../../../PY32F002B_Firmware_V1.2.1/PY32F002B_Firmware_V1.2.1/Drivers/CMSIS/Include/cmsis_gcc.h ****   \details Assigns the given value to the Base Priority register.
 260:../../../PY32F002B_Firmware_V1.2.1/PY32F002B_Firmware_V1.2.1/Drivers/CMSIS/Include/cmsis_gcc.h ****   \param [in]    basePri  Base Priority value to set
 261:../../../PY32F002B_Firmware_V1.2.1/PY32F002B_Firmware_V1.2.1/Drivers/CMSIS/Include/cmsis_gcc.h ****  */
 262:../../../PY32F002B_Firmware_V1.2.1/PY32F002B_Firmware_V1.2.1/Drivers/CMSIS/Include/cmsis_gcc.h **** __attribute__( ( always_inline ) ) __STATIC_INLINE void __set_BASEPRI(uint32_t value)
 263:../../../PY32F002B_Firmware_V1.2.1/PY32F002B_Firmware_V1.2.1/Drivers/CMSIS/Include/cmsis_gcc.h **** {
 264:../../../PY32F002B_Firmware_V1.2.1/PY32F002B_Firmware_V1.2.1/Drivers/CMSIS/Include/cmsis_gcc.h ****   __ASM volatile ("MSR basepri, %0" : : "r" (value) : "memory");
 265:../../../PY32F002B_Firmware_V1.2.1/PY32F002B_Firmware_V1.2.1/Drivers/CMSIS/Include/cmsis_gcc.h **** }
 266:../../../PY32F002B_Firmware_V1.2.1/PY32F002B_Firmware_V1.2.1/Drivers/CMSIS/Include/cmsis_gcc.h **** 
 267:../../../PY32F002B_Firmware_V1.2.1/PY32F002B_Firmware_V1.2.1/Drivers/CMSIS/Include/cmsis_gcc.h **** 
 268:../../../PY32F002B_Firmware_V1.2.1/PY32F002B_Firmware_V1.2.1/Drivers/CMSIS/Include/cmsis_gcc.h **** /**
 269:../../../PY32F002B_Firmware_V1.2.1/PY32F002B_Firmware_V1.2.1/Drivers/CMSIS/Include/cmsis_gcc.h ****   \brief   Set Base Priority with condition
 270:../../../PY32F002B_Firmware_V1.2.1/PY32F002B_Firmware_V1.2.1/Drivers/CMSIS/Include/cmsis_gcc.h ****   \details Assigns the given value to the Base Priority register only if BASEPRI masking is disable
ARM GAS  C:\Users\Gautam\AppData\Local\Temp\cccR5ChD.s 			page 14


 271:../../../PY32F002B_Firmware_V1.2.1/PY32F002B_Firmware_V1.2.1/Drivers/CMSIS/Include/cmsis_gcc.h ****            or the new value increases the BASEPRI priority level.
 272:../../../PY32F002B_Firmware_V1.2.1/PY32F002B_Firmware_V1.2.1/Drivers/CMSIS/Include/cmsis_gcc.h ****   \param [in]    basePri  Base Priority value to set
 273:../../../PY32F002B_Firmware_V1.2.1/PY32F002B_Firmware_V1.2.1/Drivers/CMSIS/Include/cmsis_gcc.h ****  */
 274:../../../PY32F002B_Firmware_V1.2.1/PY32F002B_Firmware_V1.2.1/Drivers/CMSIS/Include/cmsis_gcc.h **** __attribute__( ( always_inline ) ) __STATIC_INLINE void __set_BASEPRI_MAX(uint32_t value)
 275:../../../PY32F002B_Firmware_V1.2.1/PY32F002B_Firmware_V1.2.1/Drivers/CMSIS/Include/cmsis_gcc.h **** {
 276:../../../PY32F002B_Firmware_V1.2.1/PY32F002B_Firmware_V1.2.1/Drivers/CMSIS/Include/cmsis_gcc.h ****   __ASM volatile ("MSR basepri_max, %0" : : "r" (value) : "memory");
 277:../../../PY32F002B_Firmware_V1.2.1/PY32F002B_Firmware_V1.2.1/Drivers/CMSIS/Include/cmsis_gcc.h **** }
 278:../../../PY32F002B_Firmware_V1.2.1/PY32F002B_Firmware_V1.2.1/Drivers/CMSIS/Include/cmsis_gcc.h **** 
 279:../../../PY32F002B_Firmware_V1.2.1/PY32F002B_Firmware_V1.2.1/Drivers/CMSIS/Include/cmsis_gcc.h **** 
 280:../../../PY32F002B_Firmware_V1.2.1/PY32F002B_Firmware_V1.2.1/Drivers/CMSIS/Include/cmsis_gcc.h **** /**
 281:../../../PY32F002B_Firmware_V1.2.1/PY32F002B_Firmware_V1.2.1/Drivers/CMSIS/Include/cmsis_gcc.h ****   \brief   Get Fault Mask
 282:../../../PY32F002B_Firmware_V1.2.1/PY32F002B_Firmware_V1.2.1/Drivers/CMSIS/Include/cmsis_gcc.h ****   \details Returns the current value of the Fault Mask register.
 283:../../../PY32F002B_Firmware_V1.2.1/PY32F002B_Firmware_V1.2.1/Drivers/CMSIS/Include/cmsis_gcc.h ****   \return               Fault Mask register value
 284:../../../PY32F002B_Firmware_V1.2.1/PY32F002B_Firmware_V1.2.1/Drivers/CMSIS/Include/cmsis_gcc.h ****  */
 285:../../../PY32F002B_Firmware_V1.2.1/PY32F002B_Firmware_V1.2.1/Drivers/CMSIS/Include/cmsis_gcc.h **** __attribute__( ( always_inline ) ) __STATIC_INLINE uint32_t __get_FAULTMASK(void)
 286:../../../PY32F002B_Firmware_V1.2.1/PY32F002B_Firmware_V1.2.1/Drivers/CMSIS/Include/cmsis_gcc.h **** {
 287:../../../PY32F002B_Firmware_V1.2.1/PY32F002B_Firmware_V1.2.1/Drivers/CMSIS/Include/cmsis_gcc.h ****   uint32_t result;
 288:../../../PY32F002B_Firmware_V1.2.1/PY32F002B_Firmware_V1.2.1/Drivers/CMSIS/Include/cmsis_gcc.h **** 
 289:../../../PY32F002B_Firmware_V1.2.1/PY32F002B_Firmware_V1.2.1/Drivers/CMSIS/Include/cmsis_gcc.h ****   __ASM volatile ("MRS %0, faultmask" : "=r" (result) );
 290:../../../PY32F002B_Firmware_V1.2.1/PY32F002B_Firmware_V1.2.1/Drivers/CMSIS/Include/cmsis_gcc.h ****   return(result);
 291:../../../PY32F002B_Firmware_V1.2.1/PY32F002B_Firmware_V1.2.1/Drivers/CMSIS/Include/cmsis_gcc.h **** }
 292:../../../PY32F002B_Firmware_V1.2.1/PY32F002B_Firmware_V1.2.1/Drivers/CMSIS/Include/cmsis_gcc.h **** 
 293:../../../PY32F002B_Firmware_V1.2.1/PY32F002B_Firmware_V1.2.1/Drivers/CMSIS/Include/cmsis_gcc.h **** 
 294:../../../PY32F002B_Firmware_V1.2.1/PY32F002B_Firmware_V1.2.1/Drivers/CMSIS/Include/cmsis_gcc.h **** /**
 295:../../../PY32F002B_Firmware_V1.2.1/PY32F002B_Firmware_V1.2.1/Drivers/CMSIS/Include/cmsis_gcc.h ****   \brief   Set Fault Mask
 296:../../../PY32F002B_Firmware_V1.2.1/PY32F002B_Firmware_V1.2.1/Drivers/CMSIS/Include/cmsis_gcc.h ****   \details Assigns the given value to the Fault Mask register.
 297:../../../PY32F002B_Firmware_V1.2.1/PY32F002B_Firmware_V1.2.1/Drivers/CMSIS/Include/cmsis_gcc.h ****   \param [in]    faultMask  Fault Mask value to set
 298:../../../PY32F002B_Firmware_V1.2.1/PY32F002B_Firmware_V1.2.1/Drivers/CMSIS/Include/cmsis_gcc.h ****  */
 299:../../../PY32F002B_Firmware_V1.2.1/PY32F002B_Firmware_V1.2.1/Drivers/CMSIS/Include/cmsis_gcc.h **** __attribute__( ( always_inline ) ) __STATIC_INLINE void __set_FAULTMASK(uint32_t faultMask)
 300:../../../PY32F002B_Firmware_V1.2.1/PY32F002B_Firmware_V1.2.1/Drivers/CMSIS/Include/cmsis_gcc.h **** {
 301:../../../PY32F002B_Firmware_V1.2.1/PY32F002B_Firmware_V1.2.1/Drivers/CMSIS/Include/cmsis_gcc.h ****   __ASM volatile ("MSR faultmask, %0" : : "r" (faultMask) : "memory");
 302:../../../PY32F002B_Firmware_V1.2.1/PY32F002B_Firmware_V1.2.1/Drivers/CMSIS/Include/cmsis_gcc.h **** }
 303:../../../PY32F002B_Firmware_V1.2.1/PY32F002B_Firmware_V1.2.1/Drivers/CMSIS/Include/cmsis_gcc.h **** 
 304:../../../PY32F002B_Firmware_V1.2.1/PY32F002B_Firmware_V1.2.1/Drivers/CMSIS/Include/cmsis_gcc.h **** #endif /* (__CORTEX_M >= 0x03U) */
 305:../../../PY32F002B_Firmware_V1.2.1/PY32F002B_Firmware_V1.2.1/Drivers/CMSIS/Include/cmsis_gcc.h **** 
 306:../../../PY32F002B_Firmware_V1.2.1/PY32F002B_Firmware_V1.2.1/Drivers/CMSIS/Include/cmsis_gcc.h **** 
 307:../../../PY32F002B_Firmware_V1.2.1/PY32F002B_Firmware_V1.2.1/Drivers/CMSIS/Include/cmsis_gcc.h **** #if       (__CORTEX_M == 0x04U) || (__CORTEX_M == 0x07U)
 308:../../../PY32F002B_Firmware_V1.2.1/PY32F002B_Firmware_V1.2.1/Drivers/CMSIS/Include/cmsis_gcc.h **** 
 309:../../../PY32F002B_Firmware_V1.2.1/PY32F002B_Firmware_V1.2.1/Drivers/CMSIS/Include/cmsis_gcc.h **** /**
 310:../../../PY32F002B_Firmware_V1.2.1/PY32F002B_Firmware_V1.2.1/Drivers/CMSIS/Include/cmsis_gcc.h ****   \brief   Get FPSCR
 311:../../../PY32F002B_Firmware_V1.2.1/PY32F002B_Firmware_V1.2.1/Drivers/CMSIS/Include/cmsis_gcc.h ****   \details Returns the current value of the Floating Point Status/Control register.
 312:../../../PY32F002B_Firmware_V1.2.1/PY32F002B_Firmware_V1.2.1/Drivers/CMSIS/Include/cmsis_gcc.h ****   \return               Floating Point Status/Control register value
 313:../../../PY32F002B_Firmware_V1.2.1/PY32F002B_Firmware_V1.2.1/Drivers/CMSIS/Include/cmsis_gcc.h ****  */
 314:../../../PY32F002B_Firmware_V1.2.1/PY32F002B_Firmware_V1.2.1/Drivers/CMSIS/Include/cmsis_gcc.h **** __attribute__( ( always_inline ) ) __STATIC_INLINE uint32_t __get_FPSCR(void)
 315:../../../PY32F002B_Firmware_V1.2.1/PY32F002B_Firmware_V1.2.1/Drivers/CMSIS/Include/cmsis_gcc.h **** {
 316:../../../PY32F002B_Firmware_V1.2.1/PY32F002B_Firmware_V1.2.1/Drivers/CMSIS/Include/cmsis_gcc.h **** #if (__FPU_PRESENT == 1U) && (__FPU_USED == 1U)
 317:../../../PY32F002B_Firmware_V1.2.1/PY32F002B_Firmware_V1.2.1/Drivers/CMSIS/Include/cmsis_gcc.h ****   uint32_t result;
 318:../../../PY32F002B_Firmware_V1.2.1/PY32F002B_Firmware_V1.2.1/Drivers/CMSIS/Include/cmsis_gcc.h **** 
 319:../../../PY32F002B_Firmware_V1.2.1/PY32F002B_Firmware_V1.2.1/Drivers/CMSIS/Include/cmsis_gcc.h ****   /* Empty asm statement works as a scheduling barrier */
 320:../../../PY32F002B_Firmware_V1.2.1/PY32F002B_Firmware_V1.2.1/Drivers/CMSIS/Include/cmsis_gcc.h ****   __ASM volatile ("");
 321:../../../PY32F002B_Firmware_V1.2.1/PY32F002B_Firmware_V1.2.1/Drivers/CMSIS/Include/cmsis_gcc.h ****   __ASM volatile ("VMRS %0, fpscr" : "=r" (result) );
 322:../../../PY32F002B_Firmware_V1.2.1/PY32F002B_Firmware_V1.2.1/Drivers/CMSIS/Include/cmsis_gcc.h ****   __ASM volatile ("");
 323:../../../PY32F002B_Firmware_V1.2.1/PY32F002B_Firmware_V1.2.1/Drivers/CMSIS/Include/cmsis_gcc.h ****   return(result);
 324:../../../PY32F002B_Firmware_V1.2.1/PY32F002B_Firmware_V1.2.1/Drivers/CMSIS/Include/cmsis_gcc.h **** #else
 325:../../../PY32F002B_Firmware_V1.2.1/PY32F002B_Firmware_V1.2.1/Drivers/CMSIS/Include/cmsis_gcc.h ****    return(0);
 326:../../../PY32F002B_Firmware_V1.2.1/PY32F002B_Firmware_V1.2.1/Drivers/CMSIS/Include/cmsis_gcc.h **** #endif
 327:../../../PY32F002B_Firmware_V1.2.1/PY32F002B_Firmware_V1.2.1/Drivers/CMSIS/Include/cmsis_gcc.h **** }
ARM GAS  C:\Users\Gautam\AppData\Local\Temp\cccR5ChD.s 			page 15


 328:../../../PY32F002B_Firmware_V1.2.1/PY32F002B_Firmware_V1.2.1/Drivers/CMSIS/Include/cmsis_gcc.h **** 
 329:../../../PY32F002B_Firmware_V1.2.1/PY32F002B_Firmware_V1.2.1/Drivers/CMSIS/Include/cmsis_gcc.h **** 
 330:../../../PY32F002B_Firmware_V1.2.1/PY32F002B_Firmware_V1.2.1/Drivers/CMSIS/Include/cmsis_gcc.h **** /**
 331:../../../PY32F002B_Firmware_V1.2.1/PY32F002B_Firmware_V1.2.1/Drivers/CMSIS/Include/cmsis_gcc.h ****   \brief   Set FPSCR
 332:../../../PY32F002B_Firmware_V1.2.1/PY32F002B_Firmware_V1.2.1/Drivers/CMSIS/Include/cmsis_gcc.h ****   \details Assigns the given value to the Floating Point Status/Control register.
 333:../../../PY32F002B_Firmware_V1.2.1/PY32F002B_Firmware_V1.2.1/Drivers/CMSIS/Include/cmsis_gcc.h ****   \param [in]    fpscr  Floating Point Status/Control value to set
 334:../../../PY32F002B_Firmware_V1.2.1/PY32F002B_Firmware_V1.2.1/Drivers/CMSIS/Include/cmsis_gcc.h ****  */
 335:../../../PY32F002B_Firmware_V1.2.1/PY32F002B_Firmware_V1.2.1/Drivers/CMSIS/Include/cmsis_gcc.h **** __attribute__( ( always_inline ) ) __STATIC_INLINE void __set_FPSCR(uint32_t fpscr)
 336:../../../PY32F002B_Firmware_V1.2.1/PY32F002B_Firmware_V1.2.1/Drivers/CMSIS/Include/cmsis_gcc.h **** {
 337:../../../PY32F002B_Firmware_V1.2.1/PY32F002B_Firmware_V1.2.1/Drivers/CMSIS/Include/cmsis_gcc.h **** #if (__FPU_PRESENT == 1U) && (__FPU_USED == 1U)
 338:../../../PY32F002B_Firmware_V1.2.1/PY32F002B_Firmware_V1.2.1/Drivers/CMSIS/Include/cmsis_gcc.h ****   /* Empty asm statement works as a scheduling barrier */
 339:../../../PY32F002B_Firmware_V1.2.1/PY32F002B_Firmware_V1.2.1/Drivers/CMSIS/Include/cmsis_gcc.h ****   __ASM volatile ("");
 340:../../../PY32F002B_Firmware_V1.2.1/PY32F002B_Firmware_V1.2.1/Drivers/CMSIS/Include/cmsis_gcc.h ****   __ASM volatile ("VMSR fpscr, %0" : : "r" (fpscr) : "vfpcc");
 341:../../../PY32F002B_Firmware_V1.2.1/PY32F002B_Firmware_V1.2.1/Drivers/CMSIS/Include/cmsis_gcc.h ****   __ASM volatile ("");
 342:../../../PY32F002B_Firmware_V1.2.1/PY32F002B_Firmware_V1.2.1/Drivers/CMSIS/Include/cmsis_gcc.h **** #endif
 343:../../../PY32F002B_Firmware_V1.2.1/PY32F002B_Firmware_V1.2.1/Drivers/CMSIS/Include/cmsis_gcc.h **** }
 344:../../../PY32F002B_Firmware_V1.2.1/PY32F002B_Firmware_V1.2.1/Drivers/CMSIS/Include/cmsis_gcc.h **** 
 345:../../../PY32F002B_Firmware_V1.2.1/PY32F002B_Firmware_V1.2.1/Drivers/CMSIS/Include/cmsis_gcc.h **** #endif /* (__CORTEX_M == 0x04U) || (__CORTEX_M == 0x07U) */
 346:../../../PY32F002B_Firmware_V1.2.1/PY32F002B_Firmware_V1.2.1/Drivers/CMSIS/Include/cmsis_gcc.h **** 
 347:../../../PY32F002B_Firmware_V1.2.1/PY32F002B_Firmware_V1.2.1/Drivers/CMSIS/Include/cmsis_gcc.h **** 
 348:../../../PY32F002B_Firmware_V1.2.1/PY32F002B_Firmware_V1.2.1/Drivers/CMSIS/Include/cmsis_gcc.h **** 
 349:../../../PY32F002B_Firmware_V1.2.1/PY32F002B_Firmware_V1.2.1/Drivers/CMSIS/Include/cmsis_gcc.h **** /*@} end of CMSIS_Core_RegAccFunctions */
 350:../../../PY32F002B_Firmware_V1.2.1/PY32F002B_Firmware_V1.2.1/Drivers/CMSIS/Include/cmsis_gcc.h **** 
 351:../../../PY32F002B_Firmware_V1.2.1/PY32F002B_Firmware_V1.2.1/Drivers/CMSIS/Include/cmsis_gcc.h **** 
 352:../../../PY32F002B_Firmware_V1.2.1/PY32F002B_Firmware_V1.2.1/Drivers/CMSIS/Include/cmsis_gcc.h **** /* ##########################  Core Instruction Access  ######################### */
 353:../../../PY32F002B_Firmware_V1.2.1/PY32F002B_Firmware_V1.2.1/Drivers/CMSIS/Include/cmsis_gcc.h **** /** \defgroup CMSIS_Core_InstructionInterface CMSIS Core Instruction Interface
 354:../../../PY32F002B_Firmware_V1.2.1/PY32F002B_Firmware_V1.2.1/Drivers/CMSIS/Include/cmsis_gcc.h ****   Access to dedicated instructions
 355:../../../PY32F002B_Firmware_V1.2.1/PY32F002B_Firmware_V1.2.1/Drivers/CMSIS/Include/cmsis_gcc.h ****   @{
 356:../../../PY32F002B_Firmware_V1.2.1/PY32F002B_Firmware_V1.2.1/Drivers/CMSIS/Include/cmsis_gcc.h **** */
 357:../../../PY32F002B_Firmware_V1.2.1/PY32F002B_Firmware_V1.2.1/Drivers/CMSIS/Include/cmsis_gcc.h **** 
 358:../../../PY32F002B_Firmware_V1.2.1/PY32F002B_Firmware_V1.2.1/Drivers/CMSIS/Include/cmsis_gcc.h **** /* Define macros for porting to both thumb1 and thumb2.
 359:../../../PY32F002B_Firmware_V1.2.1/PY32F002B_Firmware_V1.2.1/Drivers/CMSIS/Include/cmsis_gcc.h ****  * For thumb1, use low register (r0-r7), specified by constraint "l"
 360:../../../PY32F002B_Firmware_V1.2.1/PY32F002B_Firmware_V1.2.1/Drivers/CMSIS/Include/cmsis_gcc.h ****  * Otherwise, use general registers, specified by constraint "r" */
 361:../../../PY32F002B_Firmware_V1.2.1/PY32F002B_Firmware_V1.2.1/Drivers/CMSIS/Include/cmsis_gcc.h **** #if defined (__thumb__) && !defined (__thumb2__)
 362:../../../PY32F002B_Firmware_V1.2.1/PY32F002B_Firmware_V1.2.1/Drivers/CMSIS/Include/cmsis_gcc.h **** #define __CMSIS_GCC_OUT_REG(r) "=l" (r)
 363:../../../PY32F002B_Firmware_V1.2.1/PY32F002B_Firmware_V1.2.1/Drivers/CMSIS/Include/cmsis_gcc.h **** #define __CMSIS_GCC_USE_REG(r) "l" (r)
 364:../../../PY32F002B_Firmware_V1.2.1/PY32F002B_Firmware_V1.2.1/Drivers/CMSIS/Include/cmsis_gcc.h **** #else
 365:../../../PY32F002B_Firmware_V1.2.1/PY32F002B_Firmware_V1.2.1/Drivers/CMSIS/Include/cmsis_gcc.h **** #define __CMSIS_GCC_OUT_REG(r) "=r" (r)
 366:../../../PY32F002B_Firmware_V1.2.1/PY32F002B_Firmware_V1.2.1/Drivers/CMSIS/Include/cmsis_gcc.h **** #define __CMSIS_GCC_USE_REG(r) "r" (r)
 367:../../../PY32F002B_Firmware_V1.2.1/PY32F002B_Firmware_V1.2.1/Drivers/CMSIS/Include/cmsis_gcc.h **** #endif
 368:../../../PY32F002B_Firmware_V1.2.1/PY32F002B_Firmware_V1.2.1/Drivers/CMSIS/Include/cmsis_gcc.h **** 
 369:../../../PY32F002B_Firmware_V1.2.1/PY32F002B_Firmware_V1.2.1/Drivers/CMSIS/Include/cmsis_gcc.h **** /**
 370:../../../PY32F002B_Firmware_V1.2.1/PY32F002B_Firmware_V1.2.1/Drivers/CMSIS/Include/cmsis_gcc.h ****   \brief   No Operation
 371:../../../PY32F002B_Firmware_V1.2.1/PY32F002B_Firmware_V1.2.1/Drivers/CMSIS/Include/cmsis_gcc.h ****   \details No Operation does nothing. This instruction can be used for code alignment purposes.
 372:../../../PY32F002B_Firmware_V1.2.1/PY32F002B_Firmware_V1.2.1/Drivers/CMSIS/Include/cmsis_gcc.h ****  */
 373:../../../PY32F002B_Firmware_V1.2.1/PY32F002B_Firmware_V1.2.1/Drivers/CMSIS/Include/cmsis_gcc.h **** __attribute__((always_inline)) __STATIC_INLINE void __NOP(void)
 374:../../../PY32F002B_Firmware_V1.2.1/PY32F002B_Firmware_V1.2.1/Drivers/CMSIS/Include/cmsis_gcc.h **** {
 375:../../../PY32F002B_Firmware_V1.2.1/PY32F002B_Firmware_V1.2.1/Drivers/CMSIS/Include/cmsis_gcc.h ****   __ASM volatile ("nop");
 376:../../../PY32F002B_Firmware_V1.2.1/PY32F002B_Firmware_V1.2.1/Drivers/CMSIS/Include/cmsis_gcc.h **** }
 377:../../../PY32F002B_Firmware_V1.2.1/PY32F002B_Firmware_V1.2.1/Drivers/CMSIS/Include/cmsis_gcc.h **** 
 378:../../../PY32F002B_Firmware_V1.2.1/PY32F002B_Firmware_V1.2.1/Drivers/CMSIS/Include/cmsis_gcc.h **** 
 379:../../../PY32F002B_Firmware_V1.2.1/PY32F002B_Firmware_V1.2.1/Drivers/CMSIS/Include/cmsis_gcc.h **** /**
 380:../../../PY32F002B_Firmware_V1.2.1/PY32F002B_Firmware_V1.2.1/Drivers/CMSIS/Include/cmsis_gcc.h ****   \brief   Wait For Interrupt
 381:../../../PY32F002B_Firmware_V1.2.1/PY32F002B_Firmware_V1.2.1/Drivers/CMSIS/Include/cmsis_gcc.h ****   \details Wait For Interrupt is a hint instruction that suspends execution until one of a number o
 382:../../../PY32F002B_Firmware_V1.2.1/PY32F002B_Firmware_V1.2.1/Drivers/CMSIS/Include/cmsis_gcc.h ****  */
 383:../../../PY32F002B_Firmware_V1.2.1/PY32F002B_Firmware_V1.2.1/Drivers/CMSIS/Include/cmsis_gcc.h **** __attribute__((always_inline)) __STATIC_INLINE void __WFI(void)
 384:../../../PY32F002B_Firmware_V1.2.1/PY32F002B_Firmware_V1.2.1/Drivers/CMSIS/Include/cmsis_gcc.h **** {
ARM GAS  C:\Users\Gautam\AppData\Local\Temp\cccR5ChD.s 			page 16


 385:../../../PY32F002B_Firmware_V1.2.1/PY32F002B_Firmware_V1.2.1/Drivers/CMSIS/Include/cmsis_gcc.h ****   __ASM volatile ("wfi");
 386:../../../PY32F002B_Firmware_V1.2.1/PY32F002B_Firmware_V1.2.1/Drivers/CMSIS/Include/cmsis_gcc.h **** }
 387:../../../PY32F002B_Firmware_V1.2.1/PY32F002B_Firmware_V1.2.1/Drivers/CMSIS/Include/cmsis_gcc.h **** 
 388:../../../PY32F002B_Firmware_V1.2.1/PY32F002B_Firmware_V1.2.1/Drivers/CMSIS/Include/cmsis_gcc.h **** 
 389:../../../PY32F002B_Firmware_V1.2.1/PY32F002B_Firmware_V1.2.1/Drivers/CMSIS/Include/cmsis_gcc.h **** /**
 390:../../../PY32F002B_Firmware_V1.2.1/PY32F002B_Firmware_V1.2.1/Drivers/CMSIS/Include/cmsis_gcc.h ****   \brief   Wait For Event
 391:../../../PY32F002B_Firmware_V1.2.1/PY32F002B_Firmware_V1.2.1/Drivers/CMSIS/Include/cmsis_gcc.h ****   \details Wait For Event is a hint instruction that permits the processor to enter
 392:../../../PY32F002B_Firmware_V1.2.1/PY32F002B_Firmware_V1.2.1/Drivers/CMSIS/Include/cmsis_gcc.h ****     a low-power state until one of a number of events occurs.
 393:../../../PY32F002B_Firmware_V1.2.1/PY32F002B_Firmware_V1.2.1/Drivers/CMSIS/Include/cmsis_gcc.h ****  */
 394:../../../PY32F002B_Firmware_V1.2.1/PY32F002B_Firmware_V1.2.1/Drivers/CMSIS/Include/cmsis_gcc.h **** __attribute__((always_inline)) __STATIC_INLINE void __WFE(void)
 395:../../../PY32F002B_Firmware_V1.2.1/PY32F002B_Firmware_V1.2.1/Drivers/CMSIS/Include/cmsis_gcc.h **** {
 396:../../../PY32F002B_Firmware_V1.2.1/PY32F002B_Firmware_V1.2.1/Drivers/CMSIS/Include/cmsis_gcc.h ****   __ASM volatile ("wfe");
 397:../../../PY32F002B_Firmware_V1.2.1/PY32F002B_Firmware_V1.2.1/Drivers/CMSIS/Include/cmsis_gcc.h **** }
 398:../../../PY32F002B_Firmware_V1.2.1/PY32F002B_Firmware_V1.2.1/Drivers/CMSIS/Include/cmsis_gcc.h **** 
 399:../../../PY32F002B_Firmware_V1.2.1/PY32F002B_Firmware_V1.2.1/Drivers/CMSIS/Include/cmsis_gcc.h **** 
 400:../../../PY32F002B_Firmware_V1.2.1/PY32F002B_Firmware_V1.2.1/Drivers/CMSIS/Include/cmsis_gcc.h **** /**
 401:../../../PY32F002B_Firmware_V1.2.1/PY32F002B_Firmware_V1.2.1/Drivers/CMSIS/Include/cmsis_gcc.h ****   \brief   Send Event
 402:../../../PY32F002B_Firmware_V1.2.1/PY32F002B_Firmware_V1.2.1/Drivers/CMSIS/Include/cmsis_gcc.h ****   \details Send Event is a hint instruction. It causes an event to be signaled to the CPU.
 403:../../../PY32F002B_Firmware_V1.2.1/PY32F002B_Firmware_V1.2.1/Drivers/CMSIS/Include/cmsis_gcc.h ****  */
 404:../../../PY32F002B_Firmware_V1.2.1/PY32F002B_Firmware_V1.2.1/Drivers/CMSIS/Include/cmsis_gcc.h **** __attribute__((always_inline)) __STATIC_INLINE void __SEV(void)
 199              		.loc 2 404 53 view .LVU31
 200              	.LBB19:
 405:../../../PY32F002B_Firmware_V1.2.1/PY32F002B_Firmware_V1.2.1/Drivers/CMSIS/Include/cmsis_gcc.h **** {
 406:../../../PY32F002B_Firmware_V1.2.1/PY32F002B_Firmware_V1.2.1/Drivers/CMSIS/Include/cmsis_gcc.h ****   __ASM volatile ("sev");
 201              		.loc 2 406 3 view .LVU32
 202              		.syntax divided
 203              	@ 406 "../../../PY32F002B_Firmware_V1.2.1/PY32F002B_Firmware_V1.2.1/Drivers/CMSIS/Include/cmsis_gcc
 204 000e 40BF     		sev
 205              	@ 0 "" 2
 206              		.thumb
 207              		.syntax unified
 208              	.LBE19:
 209              	.LBE18:
 279:../../../PY32F002B_Firmware_V1.2.1/PY32F002B_Firmware_V1.2.1/Drivers/PY32F002B_HAL_Driver/Src/py32f002b_hal_pwr.c ****     __WFE();
 210              		.loc 1 279 5 view .LVU33
 211              	.LBB20:
 212              	.LBI20:
 394:../../../PY32F002B_Firmware_V1.2.1/PY32F002B_Firmware_V1.2.1/Drivers/CMSIS/Include/cmsis_gcc.h **** {
 213              		.loc 2 394 53 view .LVU34
 214              	.LBB21:
 396:../../../PY32F002B_Firmware_V1.2.1/PY32F002B_Firmware_V1.2.1/Drivers/CMSIS/Include/cmsis_gcc.h **** }
 215              		.loc 2 396 3 view .LVU35
 216              		.syntax divided
 217              	@ 396 "../../../PY32F002B_Firmware_V1.2.1/PY32F002B_Firmware_V1.2.1/Drivers/CMSIS/Include/cmsis_gcc
 218 0010 20BF     		wfe
 219              	@ 0 "" 2
 220              		.thumb
 221              		.syntax unified
 222              	.LBE21:
 223              	.LBE20:
 280:../../../PY32F002B_Firmware_V1.2.1/PY32F002B_Firmware_V1.2.1/Drivers/PY32F002B_HAL_Driver/Src/py32f002b_hal_pwr.c ****     __WFE();
 224              		.loc 1 280 5 view .LVU36
 225              	.LBB22:
 226              	.LBI22:
 394:../../../PY32F002B_Firmware_V1.2.1/PY32F002B_Firmware_V1.2.1/Drivers/CMSIS/Include/cmsis_gcc.h **** {
 227              		.loc 2 394 53 view .LVU37
 228              	.LBB23:
ARM GAS  C:\Users\Gautam\AppData\Local\Temp\cccR5ChD.s 			page 17


 396:../../../PY32F002B_Firmware_V1.2.1/PY32F002B_Firmware_V1.2.1/Drivers/CMSIS/Include/cmsis_gcc.h **** }
 229              		.loc 2 396 3 view .LVU38
 230              		.syntax divided
 231              	@ 396 "../../../PY32F002B_Firmware_V1.2.1/PY32F002B_Firmware_V1.2.1/Drivers/CMSIS/Include/cmsis_gcc
 232 0012 20BF     		wfe
 233              	@ 0 "" 2
 234              		.thumb
 235              		.syntax unified
 236              	.L12:
 237              	.LBE23:
 238              	.LBE22:
 281:../../../PY32F002B_Firmware_V1.2.1/PY32F002B_Firmware_V1.2.1/Drivers/PY32F002B_HAL_Driver/Src/py32f002b_hal_pwr.c ****   }
 282:../../../PY32F002B_Firmware_V1.2.1/PY32F002B_Firmware_V1.2.1/Drivers/PY32F002B_HAL_Driver/Src/py32f002b_hal_pwr.c **** }
 239              		.loc 1 282 1 is_stmt 0 view .LVU39
 240              		@ sp needed
 241 0014 7047     		bx	lr
 242              	.L15:
 273:../../../PY32F002B_Firmware_V1.2.1/PY32F002B_Firmware_V1.2.1/Drivers/PY32F002B_HAL_Driver/Src/py32f002b_hal_pwr.c ****   }
 243              		.loc 1 273 5 is_stmt 1 view .LVU40
 244              	.LBB24:
 245              	.LBI24:
 383:../../../PY32F002B_Firmware_V1.2.1/PY32F002B_Firmware_V1.2.1/Drivers/CMSIS/Include/cmsis_gcc.h **** {
 246              		.loc 2 383 53 view .LVU41
 247              	.LBB25:
 385:../../../PY32F002B_Firmware_V1.2.1/PY32F002B_Firmware_V1.2.1/Drivers/CMSIS/Include/cmsis_gcc.h **** }
 248              		.loc 2 385 3 view .LVU42
 249              		.syntax divided
 250              	@ 385 "../../../PY32F002B_Firmware_V1.2.1/PY32F002B_Firmware_V1.2.1/Drivers/CMSIS/Include/cmsis_gcc
 251 0016 30BF     		wfi
 252              	@ 0 "" 2
 386:../../../PY32F002B_Firmware_V1.2.1/PY32F002B_Firmware_V1.2.1/Drivers/CMSIS/Include/cmsis_gcc.h **** 
 253              		.loc 2 386 1 is_stmt 0 view .LVU43
 254              		.thumb
 255              		.syntax unified
 256 0018 FCE7     		b	.L12
 257              	.L17:
 258 001a C046     		.align	2
 259              	.L16:
 260 001c 00ED00E0 		.word	-536810240
 261              	.LBE25:
 262              	.LBE24:
 263              		.cfi_endproc
 264              	.LFE40:
 266              		.section	.text.HAL_PWR_EnterSTOPMode,"ax",%progbits
 267              		.align	1
 268              		.global	HAL_PWR_EnterSTOPMode
 269              		.syntax unified
 270              		.code	16
 271              		.thumb_func
 273              	HAL_PWR_EnterSTOPMode:
 274              	.LVL7:
 275              	.LFB41:
 283:../../../PY32F002B_Firmware_V1.2.1/PY32F002B_Firmware_V1.2.1/Drivers/PY32F002B_HAL_Driver/Src/py32f002b_hal_pwr.c **** 
 284:../../../PY32F002B_Firmware_V1.2.1/PY32F002B_Firmware_V1.2.1/Drivers/PY32F002B_HAL_Driver/Src/py32f002b_hal_pwr.c **** 
 285:../../../PY32F002B_Firmware_V1.2.1/PY32F002B_Firmware_V1.2.1/Drivers/PY32F002B_HAL_Driver/Src/py32f002b_hal_pwr.c **** /**
 286:../../../PY32F002B_Firmware_V1.2.1/PY32F002B_Firmware_V1.2.1/Drivers/PY32F002B_HAL_Driver/Src/py32f002b_hal_pwr.c ****   * @brief  Enter Stop mode
 287:../../../PY32F002B_Firmware_V1.2.1/PY32F002B_Firmware_V1.2.1/Drivers/PY32F002B_HAL_Driver/Src/py32f002b_hal_pwr.c ****   * @param  Regulator Specifies the regulator state in Stop mode
ARM GAS  C:\Users\Gautam\AppData\Local\Temp\cccR5ChD.s 			page 18


 288:../../../PY32F002B_Firmware_V1.2.1/PY32F002B_Firmware_V1.2.1/Drivers/PY32F002B_HAL_Driver/Src/py32f002b_hal_pwr.c ****   *         This parameter can be one of the following values:
 289:../../../PY32F002B_Firmware_V1.2.1/PY32F002B_Firmware_V1.2.1/Drivers/PY32F002B_HAL_Driver/Src/py32f002b_hal_pwr.c ****   *            @arg @ref PWR_MAINREGULATOR_ON  Stop 0 mode (main regulator ON)
 290:../../../PY32F002B_Firmware_V1.2.1/PY32F002B_Firmware_V1.2.1/Drivers/PY32F002B_HAL_Driver/Src/py32f002b_hal_pwr.c ****   *            @arg @ref PWR_LOWPOWERREGULATOR_ON  Stop 1 mode (low power regulator ON)
 291:../../../PY32F002B_Firmware_V1.2.1/PY32F002B_Firmware_V1.2.1/Drivers/PY32F002B_HAL_Driver/Src/py32f002b_hal_pwr.c ****   *            @arg @ref PWR_DEEPLOWPOWERREGULATOR_ON  Stop 2 mode (deep low power regulator ON)
 292:../../../PY32F002B_Firmware_V1.2.1/PY32F002B_Firmware_V1.2.1/Drivers/PY32F002B_HAL_Driver/Src/py32f002b_hal_pwr.c ****   * @param  STOPEntry Specifies Stop 0 、Stop 1 or Stop 2 mode is entered with WFI or
 293:../../../PY32F002B_Firmware_V1.2.1/PY32F002B_Firmware_V1.2.1/Drivers/PY32F002B_HAL_Driver/Src/py32f002b_hal_pwr.c ****   *         WFE instruction. This parameter can be one of the following values:
 294:../../../PY32F002B_Firmware_V1.2.1/PY32F002B_Firmware_V1.2.1/Drivers/PY32F002B_HAL_Driver/Src/py32f002b_hal_pwr.c ****   *            @arg @ref PWR_STOPENTRY_WFI  Enter  Stop 0 、Stop 1 or Stop 2 mode with WFI
 295:../../../PY32F002B_Firmware_V1.2.1/PY32F002B_Firmware_V1.2.1/Drivers/PY32F002B_HAL_Driver/Src/py32f002b_hal_pwr.c ****   *                                         instruction.
 296:../../../PY32F002B_Firmware_V1.2.1/PY32F002B_Firmware_V1.2.1/Drivers/PY32F002B_HAL_Driver/Src/py32f002b_hal_pwr.c ****   *            @arg @ref PWR_STOPENTRY_WFE  Enter  Stop 0 、Stop 1 or Stop 2 mode with WFE
 297:../../../PY32F002B_Firmware_V1.2.1/PY32F002B_Firmware_V1.2.1/Drivers/PY32F002B_HAL_Driver/Src/py32f002b_hal_pwr.c ****   *                                         instruction.
 298:../../../PY32F002B_Firmware_V1.2.1/PY32F002B_Firmware_V1.2.1/Drivers/PY32F002B_HAL_Driver/Src/py32f002b_hal_pwr.c ****   * @note   Depending on devices and packages, some Stop modes may not be available.
 299:../../../PY32F002B_Firmware_V1.2.1/PY32F002B_Firmware_V1.2.1/Drivers/PY32F002B_HAL_Driver/Src/py32f002b_hal_pwr.c ****   *         Refer to device datasheet for Stop modes availability.
 300:../../../PY32F002B_Firmware_V1.2.1/PY32F002B_Firmware_V1.2.1/Drivers/PY32F002B_HAL_Driver/Src/py32f002b_hal_pwr.c ****   * @retval None
 301:../../../PY32F002B_Firmware_V1.2.1/PY32F002B_Firmware_V1.2.1/Drivers/PY32F002B_HAL_Driver/Src/py32f002b_hal_pwr.c ****   */
 302:../../../PY32F002B_Firmware_V1.2.1/PY32F002B_Firmware_V1.2.1/Drivers/PY32F002B_HAL_Driver/Src/py32f002b_hal_pwr.c **** void HAL_PWR_EnterSTOPMode(uint32_t Regulator, uint8_t STOPEntry)
 303:../../../PY32F002B_Firmware_V1.2.1/PY32F002B_Firmware_V1.2.1/Drivers/PY32F002B_HAL_Driver/Src/py32f002b_hal_pwr.c **** {
 276              		.loc 1 303 1 is_stmt 1 view -0
 277              		.cfi_startproc
 278              		@ args = 0, pretend = 0, frame = 0
 279              		@ frame_needed = 0, uses_anonymous_args = 0
 280              		.loc 1 303 1 is_stmt 0 view .LVU45
 281 0000 10B5     		push	{r4, lr}
 282              	.LCFI2:
 283              		.cfi_def_cfa_offset 8
 284              		.cfi_offset 4, -8
 285              		.cfi_offset 14, -4
 304:../../../PY32F002B_Firmware_V1.2.1/PY32F002B_Firmware_V1.2.1/Drivers/PY32F002B_HAL_Driver/Src/py32f002b_hal_pwr.c ****   /* Check the parameters */
 305:../../../PY32F002B_Firmware_V1.2.1/PY32F002B_Firmware_V1.2.1/Drivers/PY32F002B_HAL_Driver/Src/py32f002b_hal_pwr.c ****   assert_param(IS_PWR_REGULATOR(Regulator));
 286              		.loc 1 305 3 is_stmt 1 view .LVU46
 306:../../../PY32F002B_Firmware_V1.2.1/PY32F002B_Firmware_V1.2.1/Drivers/PY32F002B_HAL_Driver/Src/py32f002b_hal_pwr.c ****   assert_param(IS_PWR_STOP_ENTRY(STOPEntry));
 287              		.loc 1 306 3 view .LVU47
 307:../../../PY32F002B_Firmware_V1.2.1/PY32F002B_Firmware_V1.2.1/Drivers/PY32F002B_HAL_Driver/Src/py32f002b_hal_pwr.c ****   
 308:../../../PY32F002B_Firmware_V1.2.1/PY32F002B_Firmware_V1.2.1/Drivers/PY32F002B_HAL_Driver/Src/py32f002b_hal_pwr.c ****   
 309:../../../PY32F002B_Firmware_V1.2.1/PY32F002B_Firmware_V1.2.1/Drivers/PY32F002B_HAL_Driver/Src/py32f002b_hal_pwr.c ****   /* Config Regulator */
 310:../../../PY32F002B_Firmware_V1.2.1/PY32F002B_Firmware_V1.2.1/Drivers/PY32F002B_HAL_Driver/Src/py32f002b_hal_pwr.c ****   MODIFY_REG(PWR->CR1, PWR_CR1_LPR, Regulator);
 288              		.loc 1 310 3 view .LVU48
 289 0002 0C4A     		ldr	r2, .L22
 290 0004 1368     		ldr	r3, [r2]
 291 0006 0C4C     		ldr	r4, .L22+4
 292 0008 2340     		ands	r3, r4
 293 000a 0343     		orrs	r3, r0
 294 000c 1360     		str	r3, [r2]
 311:../../../PY32F002B_Firmware_V1.2.1/PY32F002B_Firmware_V1.2.1/Drivers/PY32F002B_HAL_Driver/Src/py32f002b_hal_pwr.c **** 
 312:../../../PY32F002B_Firmware_V1.2.1/PY32F002B_Firmware_V1.2.1/Drivers/PY32F002B_HAL_Driver/Src/py32f002b_hal_pwr.c ****   /* Set SLEEPDEEP bit of Cortex System Control Register */
 313:../../../PY32F002B_Firmware_V1.2.1/PY32F002B_Firmware_V1.2.1/Drivers/PY32F002B_HAL_Driver/Src/py32f002b_hal_pwr.c ****   SET_BIT(SCB->SCR, ((uint32_t)SCB_SCR_SLEEPDEEP_Msk));
 295              		.loc 1 313 3 view .LVU49
 296 000e 0B4A     		ldr	r2, .L22+8
 297 0010 1369     		ldr	r3, [r2, #16]
 298 0012 0420     		movs	r0, #4
 299              	.LVL8:
 300              		.loc 1 313 3 is_stmt 0 view .LVU50
 301 0014 0343     		orrs	r3, r0
 302 0016 1361     		str	r3, [r2, #16]
 314:../../../PY32F002B_Firmware_V1.2.1/PY32F002B_Firmware_V1.2.1/Drivers/PY32F002B_HAL_Driver/Src/py32f002b_hal_pwr.c **** 
 315:../../../PY32F002B_Firmware_V1.2.1/PY32F002B_Firmware_V1.2.1/Drivers/PY32F002B_HAL_Driver/Src/py32f002b_hal_pwr.c ****   /* Select Stop mode entry --------------------------------------------------*/
 316:../../../PY32F002B_Firmware_V1.2.1/PY32F002B_Firmware_V1.2.1/Drivers/PY32F002B_HAL_Driver/Src/py32f002b_hal_pwr.c ****   if(STOPEntry == PWR_STOPENTRY_WFI)
 303              		.loc 1 316 3 is_stmt 1 view .LVU51
ARM GAS  C:\Users\Gautam\AppData\Local\Temp\cccR5ChD.s 			page 19


 304              		.loc 1 316 5 is_stmt 0 view .LVU52
 305 0018 0129     		cmp	r1, #1
 306 001a 08D0     		beq	.L21
 317:../../../PY32F002B_Firmware_V1.2.1/PY32F002B_Firmware_V1.2.1/Drivers/PY32F002B_HAL_Driver/Src/py32f002b_hal_pwr.c ****   {
 318:../../../PY32F002B_Firmware_V1.2.1/PY32F002B_Firmware_V1.2.1/Drivers/PY32F002B_HAL_Driver/Src/py32f002b_hal_pwr.c ****     /* Request Wait For Interrupt */
 319:../../../PY32F002B_Firmware_V1.2.1/PY32F002B_Firmware_V1.2.1/Drivers/PY32F002B_HAL_Driver/Src/py32f002b_hal_pwr.c ****     __WFI();
 320:../../../PY32F002B_Firmware_V1.2.1/PY32F002B_Firmware_V1.2.1/Drivers/PY32F002B_HAL_Driver/Src/py32f002b_hal_pwr.c ****   }
 321:../../../PY32F002B_Firmware_V1.2.1/PY32F002B_Firmware_V1.2.1/Drivers/PY32F002B_HAL_Driver/Src/py32f002b_hal_pwr.c ****   else
 322:../../../PY32F002B_Firmware_V1.2.1/PY32F002B_Firmware_V1.2.1/Drivers/PY32F002B_HAL_Driver/Src/py32f002b_hal_pwr.c ****   {
 323:../../../PY32F002B_Firmware_V1.2.1/PY32F002B_Firmware_V1.2.1/Drivers/PY32F002B_HAL_Driver/Src/py32f002b_hal_pwr.c ****     /* Request Wait For Event */
 324:../../../PY32F002B_Firmware_V1.2.1/PY32F002B_Firmware_V1.2.1/Drivers/PY32F002B_HAL_Driver/Src/py32f002b_hal_pwr.c ****     __SEV();
 307              		.loc 1 324 5 is_stmt 1 view .LVU53
 308              	.LBB26:
 309              	.LBI26:
 404:../../../PY32F002B_Firmware_V1.2.1/PY32F002B_Firmware_V1.2.1/Drivers/CMSIS/Include/cmsis_gcc.h **** {
 310              		.loc 2 404 53 view .LVU54
 311              	.LBB27:
 312              		.loc 2 406 3 view .LVU55
 313              		.syntax divided
 314              	@ 406 "../../../PY32F002B_Firmware_V1.2.1/PY32F002B_Firmware_V1.2.1/Drivers/CMSIS/Include/cmsis_gcc
 315 001c 40BF     		sev
 316              	@ 0 "" 2
 317              		.thumb
 318              		.syntax unified
 319              	.LBE27:
 320              	.LBE26:
 325:../../../PY32F002B_Firmware_V1.2.1/PY32F002B_Firmware_V1.2.1/Drivers/PY32F002B_HAL_Driver/Src/py32f002b_hal_pwr.c ****     __WFE();
 321              		.loc 1 325 5 view .LVU56
 322              	.LBB28:
 323              	.LBI28:
 394:../../../PY32F002B_Firmware_V1.2.1/PY32F002B_Firmware_V1.2.1/Drivers/CMSIS/Include/cmsis_gcc.h **** {
 324              		.loc 2 394 53 view .LVU57
 325              	.LBB29:
 396:../../../PY32F002B_Firmware_V1.2.1/PY32F002B_Firmware_V1.2.1/Drivers/CMSIS/Include/cmsis_gcc.h **** }
 326              		.loc 2 396 3 view .LVU58
 327              		.syntax divided
 328              	@ 396 "../../../PY32F002B_Firmware_V1.2.1/PY32F002B_Firmware_V1.2.1/Drivers/CMSIS/Include/cmsis_gcc
 329 001e 20BF     		wfe
 330              	@ 0 "" 2
 331              		.thumb
 332              		.syntax unified
 333              	.LBE29:
 334              	.LBE28:
 326:../../../PY32F002B_Firmware_V1.2.1/PY32F002B_Firmware_V1.2.1/Drivers/PY32F002B_HAL_Driver/Src/py32f002b_hal_pwr.c ****     __WFE();
 335              		.loc 1 326 5 view .LVU59
 336              	.LBB30:
 337              	.LBI30:
 394:../../../PY32F002B_Firmware_V1.2.1/PY32F002B_Firmware_V1.2.1/Drivers/CMSIS/Include/cmsis_gcc.h **** {
 338              		.loc 2 394 53 view .LVU60
 339              	.LBB31:
 396:../../../PY32F002B_Firmware_V1.2.1/PY32F002B_Firmware_V1.2.1/Drivers/CMSIS/Include/cmsis_gcc.h **** }
 340              		.loc 2 396 3 view .LVU61
 341              		.syntax divided
 342              	@ 396 "../../../PY32F002B_Firmware_V1.2.1/PY32F002B_Firmware_V1.2.1/Drivers/CMSIS/Include/cmsis_gcc
 343 0020 20BF     		wfe
 344              	@ 0 "" 2
 345              		.thumb
ARM GAS  C:\Users\Gautam\AppData\Local\Temp\cccR5ChD.s 			page 20


 346              		.syntax unified
 347              	.L20:
 348              	.LBE31:
 349              	.LBE30:
 327:../../../PY32F002B_Firmware_V1.2.1/PY32F002B_Firmware_V1.2.1/Drivers/PY32F002B_HAL_Driver/Src/py32f002b_hal_pwr.c ****   }
 328:../../../PY32F002B_Firmware_V1.2.1/PY32F002B_Firmware_V1.2.1/Drivers/PY32F002B_HAL_Driver/Src/py32f002b_hal_pwr.c **** 
 329:../../../PY32F002B_Firmware_V1.2.1/PY32F002B_Firmware_V1.2.1/Drivers/PY32F002B_HAL_Driver/Src/py32f002b_hal_pwr.c ****   /* Reset SLEEPDEEP bit of Cortex System Control Register */
 330:../../../PY32F002B_Firmware_V1.2.1/PY32F002B_Firmware_V1.2.1/Drivers/PY32F002B_HAL_Driver/Src/py32f002b_hal_pwr.c ****   CLEAR_BIT(SCB->SCR, ((uint32_t)SCB_SCR_SLEEPDEEP_Msk));
 350              		.loc 1 330 3 view .LVU62
 351 0022 064A     		ldr	r2, .L22+8
 352 0024 1369     		ldr	r3, [r2, #16]
 353 0026 0421     		movs	r1, #4
 354              	.LVL9:
 355              		.loc 1 330 3 is_stmt 0 view .LVU63
 356 0028 8B43     		bics	r3, r1
 357 002a 1361     		str	r3, [r2, #16]
 331:../../../PY32F002B_Firmware_V1.2.1/PY32F002B_Firmware_V1.2.1/Drivers/PY32F002B_HAL_Driver/Src/py32f002b_hal_pwr.c **** }
 358              		.loc 1 331 1 view .LVU64
 359              		@ sp needed
 360 002c 10BD     		pop	{r4, pc}
 361              	.LVL10:
 362              	.L21:
 319:../../../PY32F002B_Firmware_V1.2.1/PY32F002B_Firmware_V1.2.1/Drivers/PY32F002B_HAL_Driver/Src/py32f002b_hal_pwr.c ****   }
 363              		.loc 1 319 5 is_stmt 1 view .LVU65
 364              	.LBB32:
 365              	.LBI32:
 383:../../../PY32F002B_Firmware_V1.2.1/PY32F002B_Firmware_V1.2.1/Drivers/CMSIS/Include/cmsis_gcc.h **** {
 366              		.loc 2 383 53 view .LVU66
 367              	.LBB33:
 385:../../../PY32F002B_Firmware_V1.2.1/PY32F002B_Firmware_V1.2.1/Drivers/CMSIS/Include/cmsis_gcc.h **** }
 368              		.loc 2 385 3 view .LVU67
 369              		.syntax divided
 370              	@ 385 "../../../PY32F002B_Firmware_V1.2.1/PY32F002B_Firmware_V1.2.1/Drivers/CMSIS/Include/cmsis_gcc
 371 002e 30BF     		wfi
 372              	@ 0 "" 2
 386:../../../PY32F002B_Firmware_V1.2.1/PY32F002B_Firmware_V1.2.1/Drivers/CMSIS/Include/cmsis_gcc.h **** 
 373              		.loc 2 386 1 is_stmt 0 view .LVU68
 374              		.thumb
 375              		.syntax unified
 376 0030 F7E7     		b	.L20
 377              	.L23:
 378 0032 C046     		.align	2
 379              	.L22:
 380 0034 00700040 		.word	1073770496
 381 0038 FF3FFFFF 		.word	-49153
 382 003c 00ED00E0 		.word	-536810240
 383              	.LBE33:
 384              	.LBE32:
 385              		.cfi_endproc
 386              	.LFE41:
 388              		.section	.text.HAL_PWR_EnableSleepOnExit,"ax",%progbits
 389              		.align	1
 390              		.global	HAL_PWR_EnableSleepOnExit
 391              		.syntax unified
 392              		.code	16
 393              		.thumb_func
 395              	HAL_PWR_EnableSleepOnExit:
ARM GAS  C:\Users\Gautam\AppData\Local\Temp\cccR5ChD.s 			page 21


 396              	.LFB42:
 332:../../../PY32F002B_Firmware_V1.2.1/PY32F002B_Firmware_V1.2.1/Drivers/PY32F002B_HAL_Driver/Src/py32f002b_hal_pwr.c **** 
 333:../../../PY32F002B_Firmware_V1.2.1/PY32F002B_Firmware_V1.2.1/Drivers/PY32F002B_HAL_Driver/Src/py32f002b_hal_pwr.c **** 
 334:../../../PY32F002B_Firmware_V1.2.1/PY32F002B_Firmware_V1.2.1/Drivers/PY32F002B_HAL_Driver/Src/py32f002b_hal_pwr.c **** 
 335:../../../PY32F002B_Firmware_V1.2.1/PY32F002B_Firmware_V1.2.1/Drivers/PY32F002B_HAL_Driver/Src/py32f002b_hal_pwr.c **** /**
 336:../../../PY32F002B_Firmware_V1.2.1/PY32F002B_Firmware_V1.2.1/Drivers/PY32F002B_HAL_Driver/Src/py32f002b_hal_pwr.c ****   * @brief  Enable Sleep-On-Exit Cortex feature
 337:../../../PY32F002B_Firmware_V1.2.1/PY32F002B_Firmware_V1.2.1/Drivers/PY32F002B_HAL_Driver/Src/py32f002b_hal_pwr.c ****   * @note   Set SLEEPONEXIT bit of SCR register. When this bit is set, the
 338:../../../PY32F002B_Firmware_V1.2.1/PY32F002B_Firmware_V1.2.1/Drivers/PY32F002B_HAL_Driver/Src/py32f002b_hal_pwr.c ****   *         processor enters SLEEP or DEEPSLEEP mode when an interruption
 339:../../../PY32F002B_Firmware_V1.2.1/PY32F002B_Firmware_V1.2.1/Drivers/PY32F002B_HAL_Driver/Src/py32f002b_hal_pwr.c ****   *         handling is over returning to thread mode. Setting this bit is
 340:../../../PY32F002B_Firmware_V1.2.1/PY32F002B_Firmware_V1.2.1/Drivers/PY32F002B_HAL_Driver/Src/py32f002b_hal_pwr.c ****   *         useful when the processor is expected to run only on interruptions
 341:../../../PY32F002B_Firmware_V1.2.1/PY32F002B_Firmware_V1.2.1/Drivers/PY32F002B_HAL_Driver/Src/py32f002b_hal_pwr.c ****   *         handling.
 342:../../../PY32F002B_Firmware_V1.2.1/PY32F002B_Firmware_V1.2.1/Drivers/PY32F002B_HAL_Driver/Src/py32f002b_hal_pwr.c ****   * @retval None
 343:../../../PY32F002B_Firmware_V1.2.1/PY32F002B_Firmware_V1.2.1/Drivers/PY32F002B_HAL_Driver/Src/py32f002b_hal_pwr.c ****   */
 344:../../../PY32F002B_Firmware_V1.2.1/PY32F002B_Firmware_V1.2.1/Drivers/PY32F002B_HAL_Driver/Src/py32f002b_hal_pwr.c **** void HAL_PWR_EnableSleepOnExit(void)
 345:../../../PY32F002B_Firmware_V1.2.1/PY32F002B_Firmware_V1.2.1/Drivers/PY32F002B_HAL_Driver/Src/py32f002b_hal_pwr.c **** {
 397              		.loc 1 345 1 is_stmt 1 view -0
 398              		.cfi_startproc
 399              		@ args = 0, pretend = 0, frame = 0
 400              		@ frame_needed = 0, uses_anonymous_args = 0
 401              		@ link register save eliminated.
 346:../../../PY32F002B_Firmware_V1.2.1/PY32F002B_Firmware_V1.2.1/Drivers/PY32F002B_HAL_Driver/Src/py32f002b_hal_pwr.c ****   /* Set SLEEPONEXIT bit of Cortex System Control Register */
 347:../../../PY32F002B_Firmware_V1.2.1/PY32F002B_Firmware_V1.2.1/Drivers/PY32F002B_HAL_Driver/Src/py32f002b_hal_pwr.c ****   SET_BIT(SCB->SCR, ((uint32_t)SCB_SCR_SLEEPONEXIT_Msk));
 402              		.loc 1 347 3 view .LVU70
 403 0000 024A     		ldr	r2, .L25
 404 0002 1369     		ldr	r3, [r2, #16]
 405 0004 0221     		movs	r1, #2
 406 0006 0B43     		orrs	r3, r1
 407 0008 1361     		str	r3, [r2, #16]
 348:../../../PY32F002B_Firmware_V1.2.1/PY32F002B_Firmware_V1.2.1/Drivers/PY32F002B_HAL_Driver/Src/py32f002b_hal_pwr.c **** }
 408              		.loc 1 348 1 is_stmt 0 view .LVU71
 409              		@ sp needed
 410 000a 7047     		bx	lr
 411              	.L26:
 412              		.align	2
 413              	.L25:
 414 000c 00ED00E0 		.word	-536810240
 415              		.cfi_endproc
 416              	.LFE42:
 418              		.section	.text.HAL_PWR_DisableSleepOnExit,"ax",%progbits
 419              		.align	1
 420              		.global	HAL_PWR_DisableSleepOnExit
 421              		.syntax unified
 422              		.code	16
 423              		.thumb_func
 425              	HAL_PWR_DisableSleepOnExit:
 426              	.LFB43:
 349:../../../PY32F002B_Firmware_V1.2.1/PY32F002B_Firmware_V1.2.1/Drivers/PY32F002B_HAL_Driver/Src/py32f002b_hal_pwr.c **** 
 350:../../../PY32F002B_Firmware_V1.2.1/PY32F002B_Firmware_V1.2.1/Drivers/PY32F002B_HAL_Driver/Src/py32f002b_hal_pwr.c **** 
 351:../../../PY32F002B_Firmware_V1.2.1/PY32F002B_Firmware_V1.2.1/Drivers/PY32F002B_HAL_Driver/Src/py32f002b_hal_pwr.c **** /**
 352:../../../PY32F002B_Firmware_V1.2.1/PY32F002B_Firmware_V1.2.1/Drivers/PY32F002B_HAL_Driver/Src/py32f002b_hal_pwr.c ****   * @brief  Disable Sleep-On-Exit Cortex feature
 353:../../../PY32F002B_Firmware_V1.2.1/PY32F002B_Firmware_V1.2.1/Drivers/PY32F002B_HAL_Driver/Src/py32f002b_hal_pwr.c ****   * @note   Clear SLEEPONEXIT bit of SCR register. When this bit is set, the
 354:../../../PY32F002B_Firmware_V1.2.1/PY32F002B_Firmware_V1.2.1/Drivers/PY32F002B_HAL_Driver/Src/py32f002b_hal_pwr.c ****   *         processor enters SLEEP or DEEPSLEEP mode when an interruption
 355:../../../PY32F002B_Firmware_V1.2.1/PY32F002B_Firmware_V1.2.1/Drivers/PY32F002B_HAL_Driver/Src/py32f002b_hal_pwr.c ****   *         handling is over.
 356:../../../PY32F002B_Firmware_V1.2.1/PY32F002B_Firmware_V1.2.1/Drivers/PY32F002B_HAL_Driver/Src/py32f002b_hal_pwr.c ****   * @retval None
 357:../../../PY32F002B_Firmware_V1.2.1/PY32F002B_Firmware_V1.2.1/Drivers/PY32F002B_HAL_Driver/Src/py32f002b_hal_pwr.c ****   */
 358:../../../PY32F002B_Firmware_V1.2.1/PY32F002B_Firmware_V1.2.1/Drivers/PY32F002B_HAL_Driver/Src/py32f002b_hal_pwr.c **** void HAL_PWR_DisableSleepOnExit(void)
 359:../../../PY32F002B_Firmware_V1.2.1/PY32F002B_Firmware_V1.2.1/Drivers/PY32F002B_HAL_Driver/Src/py32f002b_hal_pwr.c **** {
ARM GAS  C:\Users\Gautam\AppData\Local\Temp\cccR5ChD.s 			page 22


 427              		.loc 1 359 1 is_stmt 1 view -0
 428              		.cfi_startproc
 429              		@ args = 0, pretend = 0, frame = 0
 430              		@ frame_needed = 0, uses_anonymous_args = 0
 431              		@ link register save eliminated.
 360:../../../PY32F002B_Firmware_V1.2.1/PY32F002B_Firmware_V1.2.1/Drivers/PY32F002B_HAL_Driver/Src/py32f002b_hal_pwr.c ****   /* Clear SLEEPONEXIT bit of Cortex System Control Register */
 361:../../../PY32F002B_Firmware_V1.2.1/PY32F002B_Firmware_V1.2.1/Drivers/PY32F002B_HAL_Driver/Src/py32f002b_hal_pwr.c ****   CLEAR_BIT(SCB->SCR, ((uint32_t)SCB_SCR_SLEEPONEXIT_Msk));
 432              		.loc 1 361 3 view .LVU73
 433 0000 024A     		ldr	r2, .L28
 434 0002 1369     		ldr	r3, [r2, #16]
 435 0004 0221     		movs	r1, #2
 436 0006 8B43     		bics	r3, r1
 437 0008 1361     		str	r3, [r2, #16]
 362:../../../PY32F002B_Firmware_V1.2.1/PY32F002B_Firmware_V1.2.1/Drivers/PY32F002B_HAL_Driver/Src/py32f002b_hal_pwr.c **** }
 438              		.loc 1 362 1 is_stmt 0 view .LVU74
 439              		@ sp needed
 440 000a 7047     		bx	lr
 441              	.L29:
 442              		.align	2
 443              	.L28:
 444 000c 00ED00E0 		.word	-536810240
 445              		.cfi_endproc
 446              	.LFE43:
 448              		.section	.text.HAL_PWR_EnableSEVOnPend,"ax",%progbits
 449              		.align	1
 450              		.global	HAL_PWR_EnableSEVOnPend
 451              		.syntax unified
 452              		.code	16
 453              		.thumb_func
 455              	HAL_PWR_EnableSEVOnPend:
 456              	.LFB44:
 363:../../../PY32F002B_Firmware_V1.2.1/PY32F002B_Firmware_V1.2.1/Drivers/PY32F002B_HAL_Driver/Src/py32f002b_hal_pwr.c **** 
 364:../../../PY32F002B_Firmware_V1.2.1/PY32F002B_Firmware_V1.2.1/Drivers/PY32F002B_HAL_Driver/Src/py32f002b_hal_pwr.c **** 
 365:../../../PY32F002B_Firmware_V1.2.1/PY32F002B_Firmware_V1.2.1/Drivers/PY32F002B_HAL_Driver/Src/py32f002b_hal_pwr.c **** /**
 366:../../../PY32F002B_Firmware_V1.2.1/PY32F002B_Firmware_V1.2.1/Drivers/PY32F002B_HAL_Driver/Src/py32f002b_hal_pwr.c ****   * @brief  Enable Cortex Sev On Pending feature.
 367:../../../PY32F002B_Firmware_V1.2.1/PY32F002B_Firmware_V1.2.1/Drivers/PY32F002B_HAL_Driver/Src/py32f002b_hal_pwr.c ****   * @note   Set SEVONPEND bit of SCR register. When this bit is set, enabled
 368:../../../PY32F002B_Firmware_V1.2.1/PY32F002B_Firmware_V1.2.1/Drivers/PY32F002B_HAL_Driver/Src/py32f002b_hal_pwr.c ****   *         events and all interrupts, including disabled ones can wakeup
 369:../../../PY32F002B_Firmware_V1.2.1/PY32F002B_Firmware_V1.2.1/Drivers/PY32F002B_HAL_Driver/Src/py32f002b_hal_pwr.c ****   *         processor from WFE.
 370:../../../PY32F002B_Firmware_V1.2.1/PY32F002B_Firmware_V1.2.1/Drivers/PY32F002B_HAL_Driver/Src/py32f002b_hal_pwr.c ****   * @retval None
 371:../../../PY32F002B_Firmware_V1.2.1/PY32F002B_Firmware_V1.2.1/Drivers/PY32F002B_HAL_Driver/Src/py32f002b_hal_pwr.c ****   */
 372:../../../PY32F002B_Firmware_V1.2.1/PY32F002B_Firmware_V1.2.1/Drivers/PY32F002B_HAL_Driver/Src/py32f002b_hal_pwr.c **** void HAL_PWR_EnableSEVOnPend(void)
 373:../../../PY32F002B_Firmware_V1.2.1/PY32F002B_Firmware_V1.2.1/Drivers/PY32F002B_HAL_Driver/Src/py32f002b_hal_pwr.c **** {
 457              		.loc 1 373 1 is_stmt 1 view -0
 458              		.cfi_startproc
 459              		@ args = 0, pretend = 0, frame = 0
 460              		@ frame_needed = 0, uses_anonymous_args = 0
 461              		@ link register save eliminated.
 374:../../../PY32F002B_Firmware_V1.2.1/PY32F002B_Firmware_V1.2.1/Drivers/PY32F002B_HAL_Driver/Src/py32f002b_hal_pwr.c ****   /* Set SEVONPEND bit of Cortex System Control Register */
 375:../../../PY32F002B_Firmware_V1.2.1/PY32F002B_Firmware_V1.2.1/Drivers/PY32F002B_HAL_Driver/Src/py32f002b_hal_pwr.c ****   SET_BIT(SCB->SCR, ((uint32_t)SCB_SCR_SEVONPEND_Msk));
 462              		.loc 1 375 3 view .LVU76
 463 0000 024A     		ldr	r2, .L31
 464 0002 1369     		ldr	r3, [r2, #16]
 465 0004 1021     		movs	r1, #16
 466 0006 0B43     		orrs	r3, r1
 467 0008 1361     		str	r3, [r2, #16]
 376:../../../PY32F002B_Firmware_V1.2.1/PY32F002B_Firmware_V1.2.1/Drivers/PY32F002B_HAL_Driver/Src/py32f002b_hal_pwr.c **** }
 468              		.loc 1 376 1 is_stmt 0 view .LVU77
ARM GAS  C:\Users\Gautam\AppData\Local\Temp\cccR5ChD.s 			page 23


 469              		@ sp needed
 470 000a 7047     		bx	lr
 471              	.L32:
 472              		.align	2
 473              	.L31:
 474 000c 00ED00E0 		.word	-536810240
 475              		.cfi_endproc
 476              	.LFE44:
 478              		.section	.text.HAL_PWR_DisableSEVOnPend,"ax",%progbits
 479              		.align	1
 480              		.global	HAL_PWR_DisableSEVOnPend
 481              		.syntax unified
 482              		.code	16
 483              		.thumb_func
 485              	HAL_PWR_DisableSEVOnPend:
 486              	.LFB45:
 377:../../../PY32F002B_Firmware_V1.2.1/PY32F002B_Firmware_V1.2.1/Drivers/PY32F002B_HAL_Driver/Src/py32f002b_hal_pwr.c **** 
 378:../../../PY32F002B_Firmware_V1.2.1/PY32F002B_Firmware_V1.2.1/Drivers/PY32F002B_HAL_Driver/Src/py32f002b_hal_pwr.c **** 
 379:../../../PY32F002B_Firmware_V1.2.1/PY32F002B_Firmware_V1.2.1/Drivers/PY32F002B_HAL_Driver/Src/py32f002b_hal_pwr.c **** /**
 380:../../../PY32F002B_Firmware_V1.2.1/PY32F002B_Firmware_V1.2.1/Drivers/PY32F002B_HAL_Driver/Src/py32f002b_hal_pwr.c ****   * @brief  Disable Cortex Sev On Pending feature.
 381:../../../PY32F002B_Firmware_V1.2.1/PY32F002B_Firmware_V1.2.1/Drivers/PY32F002B_HAL_Driver/Src/py32f002b_hal_pwr.c ****   * @note   Clear SEVONPEND bit of SCR register. When this bit is clear, only
 382:../../../PY32F002B_Firmware_V1.2.1/PY32F002B_Firmware_V1.2.1/Drivers/PY32F002B_HAL_Driver/Src/py32f002b_hal_pwr.c ****   *         enable interrupts or events can wakeup processor from WFE
 383:../../../PY32F002B_Firmware_V1.2.1/PY32F002B_Firmware_V1.2.1/Drivers/PY32F002B_HAL_Driver/Src/py32f002b_hal_pwr.c ****   * @retval None
 384:../../../PY32F002B_Firmware_V1.2.1/PY32F002B_Firmware_V1.2.1/Drivers/PY32F002B_HAL_Driver/Src/py32f002b_hal_pwr.c ****   */
 385:../../../PY32F002B_Firmware_V1.2.1/PY32F002B_Firmware_V1.2.1/Drivers/PY32F002B_HAL_Driver/Src/py32f002b_hal_pwr.c **** void HAL_PWR_DisableSEVOnPend(void)
 386:../../../PY32F002B_Firmware_V1.2.1/PY32F002B_Firmware_V1.2.1/Drivers/PY32F002B_HAL_Driver/Src/py32f002b_hal_pwr.c **** {
 487              		.loc 1 386 1 is_stmt 1 view -0
 488              		.cfi_startproc
 489              		@ args = 0, pretend = 0, frame = 0
 490              		@ frame_needed = 0, uses_anonymous_args = 0
 491              		@ link register save eliminated.
 387:../../../PY32F002B_Firmware_V1.2.1/PY32F002B_Firmware_V1.2.1/Drivers/PY32F002B_HAL_Driver/Src/py32f002b_hal_pwr.c ****   /* Clear SEVONPEND bit of Cortex System Control Register */
 388:../../../PY32F002B_Firmware_V1.2.1/PY32F002B_Firmware_V1.2.1/Drivers/PY32F002B_HAL_Driver/Src/py32f002b_hal_pwr.c ****   CLEAR_BIT(SCB->SCR, ((uint32_t)SCB_SCR_SEVONPEND_Msk));
 492              		.loc 1 388 3 view .LVU79
 493 0000 024A     		ldr	r2, .L34
 494 0002 1369     		ldr	r3, [r2, #16]
 495 0004 1021     		movs	r1, #16
 496 0006 8B43     		bics	r3, r1
 497 0008 1361     		str	r3, [r2, #16]
 389:../../../PY32F002B_Firmware_V1.2.1/PY32F002B_Firmware_V1.2.1/Drivers/PY32F002B_HAL_Driver/Src/py32f002b_hal_pwr.c **** }
 498              		.loc 1 389 1 is_stmt 0 view .LVU80
 499              		@ sp needed
 500 000a 7047     		bx	lr
 501              	.L35:
 502              		.align	2
 503              	.L34:
 504 000c 00ED00E0 		.word	-536810240
 505              		.cfi_endproc
 506              	.LFE45:
 508              		.text
 509              	.Letext0:
 510              		.file 3 "C:/Program Files (x86)/Arm GNU Toolchain arm-none-eabi/14.3 rel1/arm-none-eabi/include/ma
 511              		.file 4 "C:/Program Files (x86)/Arm GNU Toolchain arm-none-eabi/14.3 rel1/arm-none-eabi/include/sy
 512              		.file 5 "../../../PY32F002B_Firmware_V1.2.1/PY32F002B_Firmware_V1.2.1/Drivers/CMSIS/Include/core_c
 513              		.file 6 "../../../PY32F002B_Firmware_V1.2.1/PY32F002B_Firmware_V1.2.1/Drivers/CMSIS/Device/PY32F0x
 514              		.file 7 "../../../PY32F002B_Firmware_V1.2.1/PY32F002B_Firmware_V1.2.1/Drivers/PY32F002B_HAL_Driver
 515              		.file 8 "../../../PY32F002B_Firmware_V1.2.1/PY32F002B_Firmware_V1.2.1/Drivers/PY32F002B_HAL_Driver
ARM GAS  C:\Users\Gautam\AppData\Local\Temp\cccR5ChD.s 			page 24


ARM GAS  C:\Users\Gautam\AppData\Local\Temp\cccR5ChD.s 			page 25

