ARM GAS  C:\Users\Gautam\AppData\Local\Temp\cc3TcbwT.s 			page 1


   1              		.cpu cortex-m0plus
   2              		.arch armv6s-m
   3              		.fpu softvfp
   4              		.eabi_attribute 20, 1
   5              		.eabi_attribute 21, 1
   6              		.eabi_attribute 23, 3
   7              		.eabi_attribute 24, 1
   8              		.eabi_attribute 25, 1
   9              		.eabi_attribute 26, 1
  10              		.eabi_attribute 30, 1
  11              		.eabi_attribute 34, 0
  12              		.eabi_attribute 18, 4
  13              		.file	"system_py32f002b.c"
  14              		.text
  15              	.Ltext0:
  16              		.cfi_sections	.debug_frame
  17              		.file 1 "../Src/system_py32f002b.c"
  18              		.section	.text.DelayTime,"ax",%progbits
  19              		.align	1
  20              		.syntax unified
  21              		.code	16
  22              		.thumb_func
  24              	DelayTime:
  25              	.LVL0:
  26              	.LFB39:
   1:../Src/system_py32f002b.c **** /**
   2:../Src/system_py32f002b.c ****   ******************************************************************************
   3:../Src/system_py32f002b.c ****   * @file    system_py32f002b.c
   4:../Src/system_py32f002b.c ****   * @author  MCU Application Team
   5:../Src/system_py32f002b.c ****   * @Version V1.0.0
   6:../Src/system_py32f002b.c ****   * @Date    2020-10-19
   7:../Src/system_py32f002b.c ****   * @brief   CMSIS Cortex-M0+ Device Peripheral Access Layer System Source File.
   8:../Src/system_py32f002b.c ****   ******************************************************************************
   9:../Src/system_py32f002b.c ****   * @attention
  10:../Src/system_py32f002b.c ****   *
  11:../Src/system_py32f002b.c ****   * <h2><center>&copy; Copyright (c) 2023 Puya Semiconductor Co.
  12:../Src/system_py32f002b.c ****   * All rights reserved.</center></h2>
  13:../Src/system_py32f002b.c ****   *
  14:../Src/system_py32f002b.c ****   * This software component is licensed by Puya under BSD 3-Clause license,
  15:../Src/system_py32f002b.c ****   * the "License"; You may not use this file except in compliance with the
  16:../Src/system_py32f002b.c ****   * License. You may obtain a copy of the License at:
  17:../Src/system_py32f002b.c ****   *                        opensource.org/licenses/BSD-3-Clause
  18:../Src/system_py32f002b.c ****   *
  19:../Src/system_py32f002b.c ****   ******************************************************************************
  20:../Src/system_py32f002b.c ****   * @attention
  21:../Src/system_py32f002b.c ****   *
  22:../Src/system_py32f002b.c ****   * <h2><center>&copy; Copyright (c) 2016 STMicroelectronics.
  23:../Src/system_py32f002b.c ****   * All rights reserved.</center></h2>
  24:../Src/system_py32f002b.c ****   *
  25:../Src/system_py32f002b.c ****   * This software component is licensed by ST under BSD 3-Clause license,
  26:../Src/system_py32f002b.c ****   * the "License"; You may not use this file except in compliance with the
  27:../Src/system_py32f002b.c ****   * License. You may obtain a copy of the License at:
  28:../Src/system_py32f002b.c ****   *                        opensource.org/licenses/BSD-3-Clause
  29:../Src/system_py32f002b.c ****   *
  30:../Src/system_py32f002b.c ****   ******************************************************************************
  31:../Src/system_py32f002b.c ****   */
  32:../Src/system_py32f002b.c **** 
ARM GAS  C:\Users\Gautam\AppData\Local\Temp\cc3TcbwT.s 			page 2


  33:../Src/system_py32f002b.c **** #include "py32f0xx.h"
  34:../Src/system_py32f002b.c **** 
  35:../Src/system_py32f002b.c **** #if !defined  (HSE_VALUE)
  36:../Src/system_py32f002b.c **** #define HSE_VALUE    24000000U    /*!< Value of the External oscillator in Hz */
  37:../Src/system_py32f002b.c **** #endif /* HSE_VALUE */
  38:../Src/system_py32f002b.c **** 
  39:../Src/system_py32f002b.c **** #if !defined  (HSI_VALUE)
  40:../Src/system_py32f002b.c **** #define HSI_VALUE  24000000U   /*!< Value of the Internal oscillator in Hz*/
  41:../Src/system_py32f002b.c **** #endif /* HSI_VALUE */
  42:../Src/system_py32f002b.c **** 
  43:../Src/system_py32f002b.c **** #if !defined  (LSI_VALUE)
  44:../Src/system_py32f002b.c **** #define LSI_VALUE   32768U      /*!< Value of LSI in Hz*/
  45:../Src/system_py32f002b.c **** #endif /* LSI_VALUE */
  46:../Src/system_py32f002b.c **** 
  47:../Src/system_py32f002b.c **** #if !defined  (LSE_VALUE)
  48:../Src/system_py32f002b.c **** #define LSE_VALUE  32768U      /*!< Value of LSE in Hz*/
  49:../Src/system_py32f002b.c **** #endif /* LSE_VALUE */
  50:../Src/system_py32f002b.c **** 
  51:../Src/system_py32f002b.c **** 
  52:../Src/system_py32f002b.c **** /************************* Miscellaneous Configuration ************************/
  53:../Src/system_py32f002b.c **** /*!< Uncomment the following line if you need to relocate your vector Table in
  54:../Src/system_py32f002b.c ****      Internal SRAM. */
  55:../Src/system_py32f002b.c **** /* #define FORBID_VECT_TAB_MIGRATION */
  56:../Src/system_py32f002b.c **** /* #define VECT_TAB_SRAM */
  57:../Src/system_py32f002b.c **** #define VECT_TAB_OFFSET  0x00 /*!< Vector Table base offset field.
  58:../Src/system_py32f002b.c ****                                    This value must be a multiple of 0x100. */
  59:../Src/system_py32f002b.c **** /******************************************************************************/
  60:../Src/system_py32f002b.c **** /*----------------------------------------------------------------------------
  61:../Src/system_py32f002b.c ****   Clock Variable definitions
  62:../Src/system_py32f002b.c ****  *----------------------------------------------------------------------------*/
  63:../Src/system_py32f002b.c **** /* This variable is updated in three ways:
  64:../Src/system_py32f002b.c ****     1) by calling CMSIS function SystemCoreClockUpdate()
  65:../Src/system_py32f002b.c ****     2) by calling HAL API function HAL_RCC_GetHCLKFreq()
  66:../Src/system_py32f002b.c ****     3) each time HAL_RCC_ClockConfig() is called to configure the system clock frequency
  67:../Src/system_py32f002b.c ****        Note: If you use this function to configure the system clock; then there
  68:../Src/system_py32f002b.c ****              is no need to call the 2 first functions listed above, since SystemCoreClock
  69:../Src/system_py32f002b.c ****              variable is updated automatically.
  70:../Src/system_py32f002b.c **** */
  71:../Src/system_py32f002b.c **** uint32_t SystemCoreClock = HSI_VALUE;
  72:../Src/system_py32f002b.c **** 
  73:../Src/system_py32f002b.c **** const uint32_t AHBPrescTable[16] = {0, 0, 0, 0, 0, 0, 0, 0, 1, 2, 3, 4, 6, 7, 8, 9};
  74:../Src/system_py32f002b.c **** const uint32_t APBPrescTable[8] =  {0, 0, 0, 0, 1, 2, 3, 4};
  75:../Src/system_py32f002b.c **** #if defined(RCC_HSI48M_SUPPORT)
  76:../Src/system_py32f002b.c **** const uint32_t HSIFreqTable[8] = {4000000U, 8000000U, 0U, 0U, 24000000U, 48000000U, 0U, 0U};
  77:../Src/system_py32f002b.c **** #else
  78:../Src/system_py32f002b.c **** const uint32_t HSIFreqTable[8] = {4000000U, 8000000U, 0U, 0U, 24000000U, 0U, 0U, 0U};
  79:../Src/system_py32f002b.c **** #endif
  80:../Src/system_py32f002b.c **** 
  81:../Src/system_py32f002b.c **** /* Private function prototypes -----------------------------------------------*/
  82:../Src/system_py32f002b.c **** #ifndef SWD_DELAY
  83:../Src/system_py32f002b.c **** static void DelayTime(uint32_t mdelay);
  84:../Src/system_py32f002b.c **** #endif /* SWD_DELAY */
  85:../Src/system_py32f002b.c **** 
  86:../Src/system_py32f002b.c **** /**
  87:../Src/system_py32f002b.c ****  * @brief  Clock functions.
  88:../Src/system_py32f002b.c ****  * @param  none
  89:../Src/system_py32f002b.c ****  * @return none
ARM GAS  C:\Users\Gautam\AppData\Local\Temp\cc3TcbwT.s 			page 3


  90:../Src/system_py32f002b.c ****  */
  91:../Src/system_py32f002b.c **** void SystemCoreClockUpdate(void)             /* Get Core Clock Frequency      */
  92:../Src/system_py32f002b.c **** {
  93:../Src/system_py32f002b.c ****   uint32_t tmp;
  94:../Src/system_py32f002b.c ****   uint32_t hsidiv;
  95:../Src/system_py32f002b.c ****   uint32_t hsifs;
  96:../Src/system_py32f002b.c **** 
  97:../Src/system_py32f002b.c ****   /* Get SYSCLK source -------------------------------------------------------*/
  98:../Src/system_py32f002b.c ****   switch (RCC->CFGR & RCC_CFGR_SWS)
  99:../Src/system_py32f002b.c ****   {
 100:../Src/system_py32f002b.c ****   case RCC_CFGR_SWS_0:  /* HSE used as system clock */
 101:../Src/system_py32f002b.c ****     SystemCoreClock = HSE_VALUE;
 102:../Src/system_py32f002b.c ****     break;
 103:../Src/system_py32f002b.c **** 
 104:../Src/system_py32f002b.c ****   case (RCC_CFGR_SWS_1 | RCC_CFGR_SWS_0):  /* LSI used as system clock */
 105:../Src/system_py32f002b.c ****     SystemCoreClock = LSI_VALUE;
 106:../Src/system_py32f002b.c ****     break;
 107:../Src/system_py32f002b.c **** #if defined(RCC_LSE_SUPPORT)
 108:../Src/system_py32f002b.c ****   case RCC_CFGR_SWS_2:  /* LSE used as system clock */
 109:../Src/system_py32f002b.c ****     SystemCoreClock = LSE_VALUE;
 110:../Src/system_py32f002b.c ****     break;
 111:../Src/system_py32f002b.c **** #endif /* RCC_LSE_SUPPORT */
 112:../Src/system_py32f002b.c ****   case 0x00000000U:  /* HSI used as system clock */
 113:../Src/system_py32f002b.c ****   default:                /* HSI used as system clock */
 114:../Src/system_py32f002b.c ****     hsifs = ((READ_BIT(RCC->ICSCR, RCC_ICSCR_HSI_FS)) >> RCC_ICSCR_HSI_FS_Pos);
 115:../Src/system_py32f002b.c ****     hsidiv = (1UL << ((READ_BIT(RCC->CR, RCC_CR_HSIDIV)) >> RCC_CR_HSIDIV_Pos));
 116:../Src/system_py32f002b.c ****     SystemCoreClock = (HSIFreqTable[hsifs] / hsidiv);
 117:../Src/system_py32f002b.c ****     break;
 118:../Src/system_py32f002b.c ****   }
 119:../Src/system_py32f002b.c ****   /* Compute HCLK clock frequency --------------------------------------------*/
 120:../Src/system_py32f002b.c ****   /* Get HCLK prescaler */
 121:../Src/system_py32f002b.c ****   tmp = AHBPrescTable[((RCC->CFGR & RCC_CFGR_HPRE) >> RCC_CFGR_HPRE_Pos)];
 122:../Src/system_py32f002b.c ****   /* HCLK clock frequency */
 123:../Src/system_py32f002b.c ****   SystemCoreClock >>= tmp;
 124:../Src/system_py32f002b.c **** }
 125:../Src/system_py32f002b.c **** 
 126:../Src/system_py32f002b.c **** /**
 127:../Src/system_py32f002b.c ****  * @brief  Setup the microcontroller system.
 128:../Src/system_py32f002b.c ****  *         Initialize the System.
 129:../Src/system_py32f002b.c ****  * @param  none
 130:../Src/system_py32f002b.c ****  * @return none
 131:../Src/system_py32f002b.c ****  */
 132:../Src/system_py32f002b.c **** void SystemInit(void)
 133:../Src/system_py32f002b.c **** {
 134:../Src/system_py32f002b.c ****   /*Set the HSI clock to 24MHz by default*/
 135:../Src/system_py32f002b.c ****   RCC->ICSCR = (RCC->ICSCR & 0xFFFF0000) | ((*(uint32_t *)(0x1FFF0100)) & 0xFFFF);
 136:../Src/system_py32f002b.c **** 
 137:../Src/system_py32f002b.c ****   /*Set the LSI clock to 32.768KHz by default*/
 138:../Src/system_py32f002b.c ****   RCC->ICSCR = (RCC->ICSCR & 0xFE00FFFF) | (((*(uint32_t *)(0x1FFF0144)) & 0x1FF) << RCC_ICSCR_LSI_
 139:../Src/system_py32f002b.c **** 
 140:../Src/system_py32f002b.c ****   /* Configure the Vector Table location add offset address ------------------*/
 141:../Src/system_py32f002b.c **** #ifdef VECT_TAB_SRAM
 142:../Src/system_py32f002b.c ****   SCB->VTOR = SRAM_BASE | VECT_TAB_OFFSET; /* Vector Table Relocation in Internal SRAM */
 143:../Src/system_py32f002b.c **** #else
 144:../Src/system_py32f002b.c ****   SCB->VTOR = FLASH_BASE | VECT_TAB_OFFSET; /* Vector Table Relocation in Internal FLASH */
 145:../Src/system_py32f002b.c **** #endif /* VECT_TAB_SRAM */
 146:../Src/system_py32f002b.c **** 
ARM GAS  C:\Users\Gautam\AppData\Local\Temp\cc3TcbwT.s 			page 4


 147:../Src/system_py32f002b.c **** #ifndef SWD_DELAY
 148:../Src/system_py32f002b.c ****   /* When the SWD pin is reused for other functions, this function is used to solve the 
 149:../Src/system_py32f002b.c ****   problem of not being able to update the code. */
 150:../Src/system_py32f002b.c ****   DelayTime(200);
 151:../Src/system_py32f002b.c **** #endif /* SWD_DELAY */
 152:../Src/system_py32f002b.c **** }
 153:../Src/system_py32f002b.c **** 
 154:../Src/system_py32f002b.c **** #ifndef SWD_DELAY
 155:../Src/system_py32f002b.c **** /**
 156:../Src/system_py32f002b.c ****   * @brief  This function provides delay (in milliseconds) based on CPU cycles method.
 157:../Src/system_py32f002b.c ****   * @param  mdelay: specifies the delay time length, in milliseconds.
 158:../Src/system_py32f002b.c ****   * @retval None
 159:../Src/system_py32f002b.c ****   */
 160:../Src/system_py32f002b.c **** static void DelayTime(uint32_t mdelay)
 161:../Src/system_py32f002b.c **** {
  27              		.loc 1 161 1 view -0
  28              		.cfi_startproc
  29              		@ args = 0, pretend = 0, frame = 8
  30              		@ frame_needed = 0, uses_anonymous_args = 0
  31              		@ link register save eliminated.
  32              		.loc 1 161 1 is_stmt 0 view .LVU1
  33 0000 82B0     		sub	sp, sp, #8
  34              	.LCFI0:
  35              		.cfi_def_cfa_offset 8
 162:../Src/system_py32f002b.c ****   __IO uint32_t Delay = mdelay * (24000000U / 8U / 1000U);
  36              		.loc 1 162 3 is_stmt 1 view .LVU2
  37              		.loc 1 162 32 is_stmt 0 view .LVU3
  38 0002 054B     		ldr	r3, .L3
  39 0004 4343     		muls	r3, r0
  40              		.loc 1 162 17 view .LVU4
  41 0006 0193     		str	r3, [sp, #4]
  42              	.L2:
 163:../Src/system_py32f002b.c ****   do
  43              		.loc 1 163 3 is_stmt 1 view .LVU5
 164:../Src/system_py32f002b.c ****   {
 165:../Src/system_py32f002b.c ****     __NOP();
  44              		.loc 1 165 5 view .LVU6
  45              	.LBB4:
  46              	.LBI4:
  47              		.file 2 "../../../PY32F002B_Firmware_V1.2.1/PY32F002B_Firmware_V1.2.1/Drivers/CMSIS/Include/cmsis_
   1:../../../PY32F002B_Firmware_V1.2.1/PY32F002B_Firmware_V1.2.1/Drivers/CMSIS/Include/cmsis_gcc.h **** /**************************************************************************//**
   2:../../../PY32F002B_Firmware_V1.2.1/PY32F002B_Firmware_V1.2.1/Drivers/CMSIS/Include/cmsis_gcc.h ****  * @file     cmsis_gcc.h
   3:../../../PY32F002B_Firmware_V1.2.1/PY32F002B_Firmware_V1.2.1/Drivers/CMSIS/Include/cmsis_gcc.h ****  * @brief    CMSIS Cortex-M Core Function/Instruction Header File
   4:../../../PY32F002B_Firmware_V1.2.1/PY32F002B_Firmware_V1.2.1/Drivers/CMSIS/Include/cmsis_gcc.h ****  * @version  V4.30
   5:../../../PY32F002B_Firmware_V1.2.1/PY32F002B_Firmware_V1.2.1/Drivers/CMSIS/Include/cmsis_gcc.h ****  * @date     20. October 2015
   6:../../../PY32F002B_Firmware_V1.2.1/PY32F002B_Firmware_V1.2.1/Drivers/CMSIS/Include/cmsis_gcc.h ****  ******************************************************************************/
   7:../../../PY32F002B_Firmware_V1.2.1/PY32F002B_Firmware_V1.2.1/Drivers/CMSIS/Include/cmsis_gcc.h **** /* Copyright (c) 2009 - 2015 ARM LIMITED
   8:../../../PY32F002B_Firmware_V1.2.1/PY32F002B_Firmware_V1.2.1/Drivers/CMSIS/Include/cmsis_gcc.h **** 
   9:../../../PY32F002B_Firmware_V1.2.1/PY32F002B_Firmware_V1.2.1/Drivers/CMSIS/Include/cmsis_gcc.h ****    All rights reserved.
  10:../../../PY32F002B_Firmware_V1.2.1/PY32F002B_Firmware_V1.2.1/Drivers/CMSIS/Include/cmsis_gcc.h ****    Redistribution and use in source and binary forms, with or without
  11:../../../PY32F002B_Firmware_V1.2.1/PY32F002B_Firmware_V1.2.1/Drivers/CMSIS/Include/cmsis_gcc.h ****    modification, are permitted provided that the following conditions are met:
  12:../../../PY32F002B_Firmware_V1.2.1/PY32F002B_Firmware_V1.2.1/Drivers/CMSIS/Include/cmsis_gcc.h ****    - Redistributions of source code must retain the above copyright
  13:../../../PY32F002B_Firmware_V1.2.1/PY32F002B_Firmware_V1.2.1/Drivers/CMSIS/Include/cmsis_gcc.h ****      notice, this list of conditions and the following disclaimer.
  14:../../../PY32F002B_Firmware_V1.2.1/PY32F002B_Firmware_V1.2.1/Drivers/CMSIS/Include/cmsis_gcc.h ****    - Redistributions in binary form must reproduce the above copyright
  15:../../../PY32F002B_Firmware_V1.2.1/PY32F002B_Firmware_V1.2.1/Drivers/CMSIS/Include/cmsis_gcc.h ****      notice, this list of conditions and the following disclaimer in the
  16:../../../PY32F002B_Firmware_V1.2.1/PY32F002B_Firmware_V1.2.1/Drivers/CMSIS/Include/cmsis_gcc.h ****      documentation and/or other materials provided with the distribution.
  17:../../../PY32F002B_Firmware_V1.2.1/PY32F002B_Firmware_V1.2.1/Drivers/CMSIS/Include/cmsis_gcc.h ****    - Neither the name of ARM nor the names of its contributors may be used
ARM GAS  C:\Users\Gautam\AppData\Local\Temp\cc3TcbwT.s 			page 5


  18:../../../PY32F002B_Firmware_V1.2.1/PY32F002B_Firmware_V1.2.1/Drivers/CMSIS/Include/cmsis_gcc.h ****      to endorse or promote products derived from this software without
  19:../../../PY32F002B_Firmware_V1.2.1/PY32F002B_Firmware_V1.2.1/Drivers/CMSIS/Include/cmsis_gcc.h ****      specific prior written permission.
  20:../../../PY32F002B_Firmware_V1.2.1/PY32F002B_Firmware_V1.2.1/Drivers/CMSIS/Include/cmsis_gcc.h ****    *
  21:../../../PY32F002B_Firmware_V1.2.1/PY32F002B_Firmware_V1.2.1/Drivers/CMSIS/Include/cmsis_gcc.h ****    THIS SOFTWARE IS PROVIDED BY THE COPYRIGHT HOLDERS AND CONTRIBUTORS "AS IS"
  22:../../../PY32F002B_Firmware_V1.2.1/PY32F002B_Firmware_V1.2.1/Drivers/CMSIS/Include/cmsis_gcc.h ****    AND ANY EXPRESS OR IMPLIED WARRANTIES, INCLUDING, BUT NOT LIMITED TO, THE
  23:../../../PY32F002B_Firmware_V1.2.1/PY32F002B_Firmware_V1.2.1/Drivers/CMSIS/Include/cmsis_gcc.h ****    IMPLIED WARRANTIES OF MERCHANTABILITY AND FITNESS FOR A PARTICULAR PURPOSE
  24:../../../PY32F002B_Firmware_V1.2.1/PY32F002B_Firmware_V1.2.1/Drivers/CMSIS/Include/cmsis_gcc.h ****    ARE DISCLAIMED. IN NO EVENT SHALL COPYRIGHT HOLDERS AND CONTRIBUTORS BE
  25:../../../PY32F002B_Firmware_V1.2.1/PY32F002B_Firmware_V1.2.1/Drivers/CMSIS/Include/cmsis_gcc.h ****    LIABLE FOR ANY DIRECT, INDIRECT, INCIDENTAL, SPECIAL, EXEMPLARY, OR
  26:../../../PY32F002B_Firmware_V1.2.1/PY32F002B_Firmware_V1.2.1/Drivers/CMSIS/Include/cmsis_gcc.h ****    CONSEQUENTIAL DAMAGES (INCLUDING, BUT NOT LIMITED TO, PROCUREMENT OF
  27:../../../PY32F002B_Firmware_V1.2.1/PY32F002B_Firmware_V1.2.1/Drivers/CMSIS/Include/cmsis_gcc.h ****    SUBSTITUTE GOODS OR SERVICES; LOSS OF USE, DATA, OR PROFITS; OR BUSINESS
  28:../../../PY32F002B_Firmware_V1.2.1/PY32F002B_Firmware_V1.2.1/Drivers/CMSIS/Include/cmsis_gcc.h ****    INTERRUPTION) HOWEVER CAUSED AND ON ANY THEORY OF LIABILITY, WHETHER IN
  29:../../../PY32F002B_Firmware_V1.2.1/PY32F002B_Firmware_V1.2.1/Drivers/CMSIS/Include/cmsis_gcc.h ****    CONTRACT, STRICT LIABILITY, OR TORT (INCLUDING NEGLIGENCE OR OTHERWISE)
  30:../../../PY32F002B_Firmware_V1.2.1/PY32F002B_Firmware_V1.2.1/Drivers/CMSIS/Include/cmsis_gcc.h ****    ARISING IN ANY WAY OUT OF THE USE OF THIS SOFTWARE, EVEN IF ADVISED OF THE
  31:../../../PY32F002B_Firmware_V1.2.1/PY32F002B_Firmware_V1.2.1/Drivers/CMSIS/Include/cmsis_gcc.h ****    POSSIBILITY OF SUCH DAMAGE.
  32:../../../PY32F002B_Firmware_V1.2.1/PY32F002B_Firmware_V1.2.1/Drivers/CMSIS/Include/cmsis_gcc.h ****    ---------------------------------------------------------------------------*/
  33:../../../PY32F002B_Firmware_V1.2.1/PY32F002B_Firmware_V1.2.1/Drivers/CMSIS/Include/cmsis_gcc.h **** 
  34:../../../PY32F002B_Firmware_V1.2.1/PY32F002B_Firmware_V1.2.1/Drivers/CMSIS/Include/cmsis_gcc.h **** 
  35:../../../PY32F002B_Firmware_V1.2.1/PY32F002B_Firmware_V1.2.1/Drivers/CMSIS/Include/cmsis_gcc.h **** #ifndef __CMSIS_GCC_H
  36:../../../PY32F002B_Firmware_V1.2.1/PY32F002B_Firmware_V1.2.1/Drivers/CMSIS/Include/cmsis_gcc.h **** #define __CMSIS_GCC_H
  37:../../../PY32F002B_Firmware_V1.2.1/PY32F002B_Firmware_V1.2.1/Drivers/CMSIS/Include/cmsis_gcc.h **** 
  38:../../../PY32F002B_Firmware_V1.2.1/PY32F002B_Firmware_V1.2.1/Drivers/CMSIS/Include/cmsis_gcc.h **** /* ignore some GCC warnings */
  39:../../../PY32F002B_Firmware_V1.2.1/PY32F002B_Firmware_V1.2.1/Drivers/CMSIS/Include/cmsis_gcc.h **** #if defined ( __GNUC__ )
  40:../../../PY32F002B_Firmware_V1.2.1/PY32F002B_Firmware_V1.2.1/Drivers/CMSIS/Include/cmsis_gcc.h **** #pragma GCC diagnostic push
  41:../../../PY32F002B_Firmware_V1.2.1/PY32F002B_Firmware_V1.2.1/Drivers/CMSIS/Include/cmsis_gcc.h **** #pragma GCC diagnostic ignored "-Wsign-conversion"
  42:../../../PY32F002B_Firmware_V1.2.1/PY32F002B_Firmware_V1.2.1/Drivers/CMSIS/Include/cmsis_gcc.h **** #pragma GCC diagnostic ignored "-Wconversion"
  43:../../../PY32F002B_Firmware_V1.2.1/PY32F002B_Firmware_V1.2.1/Drivers/CMSIS/Include/cmsis_gcc.h **** #pragma GCC diagnostic ignored "-Wunused-parameter"
  44:../../../PY32F002B_Firmware_V1.2.1/PY32F002B_Firmware_V1.2.1/Drivers/CMSIS/Include/cmsis_gcc.h **** #endif
  45:../../../PY32F002B_Firmware_V1.2.1/PY32F002B_Firmware_V1.2.1/Drivers/CMSIS/Include/cmsis_gcc.h **** 
  46:../../../PY32F002B_Firmware_V1.2.1/PY32F002B_Firmware_V1.2.1/Drivers/CMSIS/Include/cmsis_gcc.h **** 
  47:../../../PY32F002B_Firmware_V1.2.1/PY32F002B_Firmware_V1.2.1/Drivers/CMSIS/Include/cmsis_gcc.h **** /* ###########################  Core Function Access  ########################### */
  48:../../../PY32F002B_Firmware_V1.2.1/PY32F002B_Firmware_V1.2.1/Drivers/CMSIS/Include/cmsis_gcc.h **** /** \ingroup  CMSIS_Core_FunctionInterface
  49:../../../PY32F002B_Firmware_V1.2.1/PY32F002B_Firmware_V1.2.1/Drivers/CMSIS/Include/cmsis_gcc.h ****     \defgroup CMSIS_Core_RegAccFunctions CMSIS Core Register Access Functions
  50:../../../PY32F002B_Firmware_V1.2.1/PY32F002B_Firmware_V1.2.1/Drivers/CMSIS/Include/cmsis_gcc.h ****   @{
  51:../../../PY32F002B_Firmware_V1.2.1/PY32F002B_Firmware_V1.2.1/Drivers/CMSIS/Include/cmsis_gcc.h ****  */
  52:../../../PY32F002B_Firmware_V1.2.1/PY32F002B_Firmware_V1.2.1/Drivers/CMSIS/Include/cmsis_gcc.h **** 
  53:../../../PY32F002B_Firmware_V1.2.1/PY32F002B_Firmware_V1.2.1/Drivers/CMSIS/Include/cmsis_gcc.h **** /**
  54:../../../PY32F002B_Firmware_V1.2.1/PY32F002B_Firmware_V1.2.1/Drivers/CMSIS/Include/cmsis_gcc.h ****   \brief   Enable IRQ Interrupts
  55:../../../PY32F002B_Firmware_V1.2.1/PY32F002B_Firmware_V1.2.1/Drivers/CMSIS/Include/cmsis_gcc.h ****   \details Enables IRQ interrupts by clearing the I-bit in the CPSR.
  56:../../../PY32F002B_Firmware_V1.2.1/PY32F002B_Firmware_V1.2.1/Drivers/CMSIS/Include/cmsis_gcc.h ****            Can only be executed in Privileged modes.
  57:../../../PY32F002B_Firmware_V1.2.1/PY32F002B_Firmware_V1.2.1/Drivers/CMSIS/Include/cmsis_gcc.h ****  */
  58:../../../PY32F002B_Firmware_V1.2.1/PY32F002B_Firmware_V1.2.1/Drivers/CMSIS/Include/cmsis_gcc.h **** __attribute__( ( always_inline ) ) __STATIC_INLINE void __enable_irq(void)
  59:../../../PY32F002B_Firmware_V1.2.1/PY32F002B_Firmware_V1.2.1/Drivers/CMSIS/Include/cmsis_gcc.h **** {
  60:../../../PY32F002B_Firmware_V1.2.1/PY32F002B_Firmware_V1.2.1/Drivers/CMSIS/Include/cmsis_gcc.h ****   __ASM volatile ("cpsie i" : : : "memory");
  61:../../../PY32F002B_Firmware_V1.2.1/PY32F002B_Firmware_V1.2.1/Drivers/CMSIS/Include/cmsis_gcc.h **** }
  62:../../../PY32F002B_Firmware_V1.2.1/PY32F002B_Firmware_V1.2.1/Drivers/CMSIS/Include/cmsis_gcc.h **** 
  63:../../../PY32F002B_Firmware_V1.2.1/PY32F002B_Firmware_V1.2.1/Drivers/CMSIS/Include/cmsis_gcc.h **** 
  64:../../../PY32F002B_Firmware_V1.2.1/PY32F002B_Firmware_V1.2.1/Drivers/CMSIS/Include/cmsis_gcc.h **** /**
  65:../../../PY32F002B_Firmware_V1.2.1/PY32F002B_Firmware_V1.2.1/Drivers/CMSIS/Include/cmsis_gcc.h ****   \brief   Disable IRQ Interrupts
  66:../../../PY32F002B_Firmware_V1.2.1/PY32F002B_Firmware_V1.2.1/Drivers/CMSIS/Include/cmsis_gcc.h ****   \details Disables IRQ interrupts by setting the I-bit in the CPSR.
  67:../../../PY32F002B_Firmware_V1.2.1/PY32F002B_Firmware_V1.2.1/Drivers/CMSIS/Include/cmsis_gcc.h ****   Can only be executed in Privileged modes.
  68:../../../PY32F002B_Firmware_V1.2.1/PY32F002B_Firmware_V1.2.1/Drivers/CMSIS/Include/cmsis_gcc.h ****  */
  69:../../../PY32F002B_Firmware_V1.2.1/PY32F002B_Firmware_V1.2.1/Drivers/CMSIS/Include/cmsis_gcc.h **** __attribute__( ( always_inline ) ) __STATIC_INLINE void __disable_irq(void)
  70:../../../PY32F002B_Firmware_V1.2.1/PY32F002B_Firmware_V1.2.1/Drivers/CMSIS/Include/cmsis_gcc.h **** {
  71:../../../PY32F002B_Firmware_V1.2.1/PY32F002B_Firmware_V1.2.1/Drivers/CMSIS/Include/cmsis_gcc.h ****   __ASM volatile ("cpsid i" : : : "memory");
  72:../../../PY32F002B_Firmware_V1.2.1/PY32F002B_Firmware_V1.2.1/Drivers/CMSIS/Include/cmsis_gcc.h **** }
  73:../../../PY32F002B_Firmware_V1.2.1/PY32F002B_Firmware_V1.2.1/Drivers/CMSIS/Include/cmsis_gcc.h **** 
  74:../../../PY32F002B_Firmware_V1.2.1/PY32F002B_Firmware_V1.2.1/Drivers/CMSIS/Include/cmsis_gcc.h **** 
ARM GAS  C:\Users\Gautam\AppData\Local\Temp\cc3TcbwT.s 			page 6


  75:../../../PY32F002B_Firmware_V1.2.1/PY32F002B_Firmware_V1.2.1/Drivers/CMSIS/Include/cmsis_gcc.h **** /**
  76:../../../PY32F002B_Firmware_V1.2.1/PY32F002B_Firmware_V1.2.1/Drivers/CMSIS/Include/cmsis_gcc.h ****   \brief   Get Control Register
  77:../../../PY32F002B_Firmware_V1.2.1/PY32F002B_Firmware_V1.2.1/Drivers/CMSIS/Include/cmsis_gcc.h ****   \details Returns the content of the Control Register.
  78:../../../PY32F002B_Firmware_V1.2.1/PY32F002B_Firmware_V1.2.1/Drivers/CMSIS/Include/cmsis_gcc.h ****   \return               Control Register value
  79:../../../PY32F002B_Firmware_V1.2.1/PY32F002B_Firmware_V1.2.1/Drivers/CMSIS/Include/cmsis_gcc.h ****  */
  80:../../../PY32F002B_Firmware_V1.2.1/PY32F002B_Firmware_V1.2.1/Drivers/CMSIS/Include/cmsis_gcc.h **** __attribute__( ( always_inline ) ) __STATIC_INLINE uint32_t __get_CONTROL(void)
  81:../../../PY32F002B_Firmware_V1.2.1/PY32F002B_Firmware_V1.2.1/Drivers/CMSIS/Include/cmsis_gcc.h **** {
  82:../../../PY32F002B_Firmware_V1.2.1/PY32F002B_Firmware_V1.2.1/Drivers/CMSIS/Include/cmsis_gcc.h ****   uint32_t result;
  83:../../../PY32F002B_Firmware_V1.2.1/PY32F002B_Firmware_V1.2.1/Drivers/CMSIS/Include/cmsis_gcc.h **** 
  84:../../../PY32F002B_Firmware_V1.2.1/PY32F002B_Firmware_V1.2.1/Drivers/CMSIS/Include/cmsis_gcc.h ****   __ASM volatile ("MRS %0, control" : "=r" (result) );
  85:../../../PY32F002B_Firmware_V1.2.1/PY32F002B_Firmware_V1.2.1/Drivers/CMSIS/Include/cmsis_gcc.h ****   return(result);
  86:../../../PY32F002B_Firmware_V1.2.1/PY32F002B_Firmware_V1.2.1/Drivers/CMSIS/Include/cmsis_gcc.h **** }
  87:../../../PY32F002B_Firmware_V1.2.1/PY32F002B_Firmware_V1.2.1/Drivers/CMSIS/Include/cmsis_gcc.h **** 
  88:../../../PY32F002B_Firmware_V1.2.1/PY32F002B_Firmware_V1.2.1/Drivers/CMSIS/Include/cmsis_gcc.h **** 
  89:../../../PY32F002B_Firmware_V1.2.1/PY32F002B_Firmware_V1.2.1/Drivers/CMSIS/Include/cmsis_gcc.h **** /**
  90:../../../PY32F002B_Firmware_V1.2.1/PY32F002B_Firmware_V1.2.1/Drivers/CMSIS/Include/cmsis_gcc.h ****   \brief   Set Control Register
  91:../../../PY32F002B_Firmware_V1.2.1/PY32F002B_Firmware_V1.2.1/Drivers/CMSIS/Include/cmsis_gcc.h ****   \details Writes the given value to the Control Register.
  92:../../../PY32F002B_Firmware_V1.2.1/PY32F002B_Firmware_V1.2.1/Drivers/CMSIS/Include/cmsis_gcc.h ****   \param [in]    control  Control Register value to set
  93:../../../PY32F002B_Firmware_V1.2.1/PY32F002B_Firmware_V1.2.1/Drivers/CMSIS/Include/cmsis_gcc.h ****  */
  94:../../../PY32F002B_Firmware_V1.2.1/PY32F002B_Firmware_V1.2.1/Drivers/CMSIS/Include/cmsis_gcc.h **** __attribute__( ( always_inline ) ) __STATIC_INLINE void __set_CONTROL(uint32_t control)
  95:../../../PY32F002B_Firmware_V1.2.1/PY32F002B_Firmware_V1.2.1/Drivers/CMSIS/Include/cmsis_gcc.h **** {
  96:../../../PY32F002B_Firmware_V1.2.1/PY32F002B_Firmware_V1.2.1/Drivers/CMSIS/Include/cmsis_gcc.h ****   __ASM volatile ("MSR control, %0" : : "r" (control) : "memory");
  97:../../../PY32F002B_Firmware_V1.2.1/PY32F002B_Firmware_V1.2.1/Drivers/CMSIS/Include/cmsis_gcc.h **** }
  98:../../../PY32F002B_Firmware_V1.2.1/PY32F002B_Firmware_V1.2.1/Drivers/CMSIS/Include/cmsis_gcc.h **** 
  99:../../../PY32F002B_Firmware_V1.2.1/PY32F002B_Firmware_V1.2.1/Drivers/CMSIS/Include/cmsis_gcc.h **** 
 100:../../../PY32F002B_Firmware_V1.2.1/PY32F002B_Firmware_V1.2.1/Drivers/CMSIS/Include/cmsis_gcc.h **** /**
 101:../../../PY32F002B_Firmware_V1.2.1/PY32F002B_Firmware_V1.2.1/Drivers/CMSIS/Include/cmsis_gcc.h ****   \brief   Get IPSR Register
 102:../../../PY32F002B_Firmware_V1.2.1/PY32F002B_Firmware_V1.2.1/Drivers/CMSIS/Include/cmsis_gcc.h ****   \details Returns the content of the IPSR Register.
 103:../../../PY32F002B_Firmware_V1.2.1/PY32F002B_Firmware_V1.2.1/Drivers/CMSIS/Include/cmsis_gcc.h ****   \return               IPSR Register value
 104:../../../PY32F002B_Firmware_V1.2.1/PY32F002B_Firmware_V1.2.1/Drivers/CMSIS/Include/cmsis_gcc.h ****  */
 105:../../../PY32F002B_Firmware_V1.2.1/PY32F002B_Firmware_V1.2.1/Drivers/CMSIS/Include/cmsis_gcc.h **** __attribute__( ( always_inline ) ) __STATIC_INLINE uint32_t __get_IPSR(void)
 106:../../../PY32F002B_Firmware_V1.2.1/PY32F002B_Firmware_V1.2.1/Drivers/CMSIS/Include/cmsis_gcc.h **** {
 107:../../../PY32F002B_Firmware_V1.2.1/PY32F002B_Firmware_V1.2.1/Drivers/CMSIS/Include/cmsis_gcc.h ****   uint32_t result;
 108:../../../PY32F002B_Firmware_V1.2.1/PY32F002B_Firmware_V1.2.1/Drivers/CMSIS/Include/cmsis_gcc.h **** 
 109:../../../PY32F002B_Firmware_V1.2.1/PY32F002B_Firmware_V1.2.1/Drivers/CMSIS/Include/cmsis_gcc.h ****   __ASM volatile ("MRS %0, ipsr" : "=r" (result) );
 110:../../../PY32F002B_Firmware_V1.2.1/PY32F002B_Firmware_V1.2.1/Drivers/CMSIS/Include/cmsis_gcc.h ****   return(result);
 111:../../../PY32F002B_Firmware_V1.2.1/PY32F002B_Firmware_V1.2.1/Drivers/CMSIS/Include/cmsis_gcc.h **** }
 112:../../../PY32F002B_Firmware_V1.2.1/PY32F002B_Firmware_V1.2.1/Drivers/CMSIS/Include/cmsis_gcc.h **** 
 113:../../../PY32F002B_Firmware_V1.2.1/PY32F002B_Firmware_V1.2.1/Drivers/CMSIS/Include/cmsis_gcc.h **** 
 114:../../../PY32F002B_Firmware_V1.2.1/PY32F002B_Firmware_V1.2.1/Drivers/CMSIS/Include/cmsis_gcc.h **** /**
 115:../../../PY32F002B_Firmware_V1.2.1/PY32F002B_Firmware_V1.2.1/Drivers/CMSIS/Include/cmsis_gcc.h ****   \brief   Get APSR Register
 116:../../../PY32F002B_Firmware_V1.2.1/PY32F002B_Firmware_V1.2.1/Drivers/CMSIS/Include/cmsis_gcc.h ****   \details Returns the content of the APSR Register.
 117:../../../PY32F002B_Firmware_V1.2.1/PY32F002B_Firmware_V1.2.1/Drivers/CMSIS/Include/cmsis_gcc.h ****   \return               APSR Register value
 118:../../../PY32F002B_Firmware_V1.2.1/PY32F002B_Firmware_V1.2.1/Drivers/CMSIS/Include/cmsis_gcc.h ****  */
 119:../../../PY32F002B_Firmware_V1.2.1/PY32F002B_Firmware_V1.2.1/Drivers/CMSIS/Include/cmsis_gcc.h **** __attribute__( ( always_inline ) ) __STATIC_INLINE uint32_t __get_APSR(void)
 120:../../../PY32F002B_Firmware_V1.2.1/PY32F002B_Firmware_V1.2.1/Drivers/CMSIS/Include/cmsis_gcc.h **** {
 121:../../../PY32F002B_Firmware_V1.2.1/PY32F002B_Firmware_V1.2.1/Drivers/CMSIS/Include/cmsis_gcc.h ****   uint32_t result;
 122:../../../PY32F002B_Firmware_V1.2.1/PY32F002B_Firmware_V1.2.1/Drivers/CMSIS/Include/cmsis_gcc.h **** 
 123:../../../PY32F002B_Firmware_V1.2.1/PY32F002B_Firmware_V1.2.1/Drivers/CMSIS/Include/cmsis_gcc.h ****   __ASM volatile ("MRS %0, apsr" : "=r" (result) );
 124:../../../PY32F002B_Firmware_V1.2.1/PY32F002B_Firmware_V1.2.1/Drivers/CMSIS/Include/cmsis_gcc.h ****   return(result);
 125:../../../PY32F002B_Firmware_V1.2.1/PY32F002B_Firmware_V1.2.1/Drivers/CMSIS/Include/cmsis_gcc.h **** }
 126:../../../PY32F002B_Firmware_V1.2.1/PY32F002B_Firmware_V1.2.1/Drivers/CMSIS/Include/cmsis_gcc.h **** 
 127:../../../PY32F002B_Firmware_V1.2.1/PY32F002B_Firmware_V1.2.1/Drivers/CMSIS/Include/cmsis_gcc.h **** 
 128:../../../PY32F002B_Firmware_V1.2.1/PY32F002B_Firmware_V1.2.1/Drivers/CMSIS/Include/cmsis_gcc.h **** /**
 129:../../../PY32F002B_Firmware_V1.2.1/PY32F002B_Firmware_V1.2.1/Drivers/CMSIS/Include/cmsis_gcc.h ****   \brief   Get xPSR Register
 130:../../../PY32F002B_Firmware_V1.2.1/PY32F002B_Firmware_V1.2.1/Drivers/CMSIS/Include/cmsis_gcc.h ****   \details Returns the content of the xPSR Register.
 131:../../../PY32F002B_Firmware_V1.2.1/PY32F002B_Firmware_V1.2.1/Drivers/CMSIS/Include/cmsis_gcc.h **** 
ARM GAS  C:\Users\Gautam\AppData\Local\Temp\cc3TcbwT.s 			page 7


 132:../../../PY32F002B_Firmware_V1.2.1/PY32F002B_Firmware_V1.2.1/Drivers/CMSIS/Include/cmsis_gcc.h ****     \return               xPSR Register value
 133:../../../PY32F002B_Firmware_V1.2.1/PY32F002B_Firmware_V1.2.1/Drivers/CMSIS/Include/cmsis_gcc.h ****  */
 134:../../../PY32F002B_Firmware_V1.2.1/PY32F002B_Firmware_V1.2.1/Drivers/CMSIS/Include/cmsis_gcc.h **** __attribute__( ( always_inline ) ) __STATIC_INLINE uint32_t __get_xPSR(void)
 135:../../../PY32F002B_Firmware_V1.2.1/PY32F002B_Firmware_V1.2.1/Drivers/CMSIS/Include/cmsis_gcc.h **** {
 136:../../../PY32F002B_Firmware_V1.2.1/PY32F002B_Firmware_V1.2.1/Drivers/CMSIS/Include/cmsis_gcc.h ****   uint32_t result;
 137:../../../PY32F002B_Firmware_V1.2.1/PY32F002B_Firmware_V1.2.1/Drivers/CMSIS/Include/cmsis_gcc.h **** 
 138:../../../PY32F002B_Firmware_V1.2.1/PY32F002B_Firmware_V1.2.1/Drivers/CMSIS/Include/cmsis_gcc.h ****   __ASM volatile ("MRS %0, xpsr" : "=r" (result) );
 139:../../../PY32F002B_Firmware_V1.2.1/PY32F002B_Firmware_V1.2.1/Drivers/CMSIS/Include/cmsis_gcc.h ****   return(result);
 140:../../../PY32F002B_Firmware_V1.2.1/PY32F002B_Firmware_V1.2.1/Drivers/CMSIS/Include/cmsis_gcc.h **** }
 141:../../../PY32F002B_Firmware_V1.2.1/PY32F002B_Firmware_V1.2.1/Drivers/CMSIS/Include/cmsis_gcc.h **** 
 142:../../../PY32F002B_Firmware_V1.2.1/PY32F002B_Firmware_V1.2.1/Drivers/CMSIS/Include/cmsis_gcc.h **** 
 143:../../../PY32F002B_Firmware_V1.2.1/PY32F002B_Firmware_V1.2.1/Drivers/CMSIS/Include/cmsis_gcc.h **** /**
 144:../../../PY32F002B_Firmware_V1.2.1/PY32F002B_Firmware_V1.2.1/Drivers/CMSIS/Include/cmsis_gcc.h ****   \brief   Get Process Stack Pointer
 145:../../../PY32F002B_Firmware_V1.2.1/PY32F002B_Firmware_V1.2.1/Drivers/CMSIS/Include/cmsis_gcc.h ****   \details Returns the current value of the Process Stack Pointer (PSP).
 146:../../../PY32F002B_Firmware_V1.2.1/PY32F002B_Firmware_V1.2.1/Drivers/CMSIS/Include/cmsis_gcc.h ****   \return               PSP Register value
 147:../../../PY32F002B_Firmware_V1.2.1/PY32F002B_Firmware_V1.2.1/Drivers/CMSIS/Include/cmsis_gcc.h ****  */
 148:../../../PY32F002B_Firmware_V1.2.1/PY32F002B_Firmware_V1.2.1/Drivers/CMSIS/Include/cmsis_gcc.h **** __attribute__( ( always_inline ) ) __STATIC_INLINE uint32_t __get_PSP(void)
 149:../../../PY32F002B_Firmware_V1.2.1/PY32F002B_Firmware_V1.2.1/Drivers/CMSIS/Include/cmsis_gcc.h **** {
 150:../../../PY32F002B_Firmware_V1.2.1/PY32F002B_Firmware_V1.2.1/Drivers/CMSIS/Include/cmsis_gcc.h ****   register uint32_t result;
 151:../../../PY32F002B_Firmware_V1.2.1/PY32F002B_Firmware_V1.2.1/Drivers/CMSIS/Include/cmsis_gcc.h **** 
 152:../../../PY32F002B_Firmware_V1.2.1/PY32F002B_Firmware_V1.2.1/Drivers/CMSIS/Include/cmsis_gcc.h ****   __ASM volatile ("MRS %0, psp\n"  : "=r" (result) );
 153:../../../PY32F002B_Firmware_V1.2.1/PY32F002B_Firmware_V1.2.1/Drivers/CMSIS/Include/cmsis_gcc.h ****   return(result);
 154:../../../PY32F002B_Firmware_V1.2.1/PY32F002B_Firmware_V1.2.1/Drivers/CMSIS/Include/cmsis_gcc.h **** }
 155:../../../PY32F002B_Firmware_V1.2.1/PY32F002B_Firmware_V1.2.1/Drivers/CMSIS/Include/cmsis_gcc.h **** 
 156:../../../PY32F002B_Firmware_V1.2.1/PY32F002B_Firmware_V1.2.1/Drivers/CMSIS/Include/cmsis_gcc.h **** 
 157:../../../PY32F002B_Firmware_V1.2.1/PY32F002B_Firmware_V1.2.1/Drivers/CMSIS/Include/cmsis_gcc.h **** /**
 158:../../../PY32F002B_Firmware_V1.2.1/PY32F002B_Firmware_V1.2.1/Drivers/CMSIS/Include/cmsis_gcc.h ****   \brief   Set Process Stack Pointer
 159:../../../PY32F002B_Firmware_V1.2.1/PY32F002B_Firmware_V1.2.1/Drivers/CMSIS/Include/cmsis_gcc.h ****   \details Assigns the given value to the Process Stack Pointer (PSP).
 160:../../../PY32F002B_Firmware_V1.2.1/PY32F002B_Firmware_V1.2.1/Drivers/CMSIS/Include/cmsis_gcc.h ****   \param [in]    topOfProcStack  Process Stack Pointer value to set
 161:../../../PY32F002B_Firmware_V1.2.1/PY32F002B_Firmware_V1.2.1/Drivers/CMSIS/Include/cmsis_gcc.h ****  */
 162:../../../PY32F002B_Firmware_V1.2.1/PY32F002B_Firmware_V1.2.1/Drivers/CMSIS/Include/cmsis_gcc.h **** __attribute__( ( always_inline ) ) __STATIC_INLINE void __set_PSP(uint32_t topOfProcStack)
 163:../../../PY32F002B_Firmware_V1.2.1/PY32F002B_Firmware_V1.2.1/Drivers/CMSIS/Include/cmsis_gcc.h **** {
 164:../../../PY32F002B_Firmware_V1.2.1/PY32F002B_Firmware_V1.2.1/Drivers/CMSIS/Include/cmsis_gcc.h ****   __ASM volatile ("MSR psp, %0\n" : : "r" (topOfProcStack) : "sp");
 165:../../../PY32F002B_Firmware_V1.2.1/PY32F002B_Firmware_V1.2.1/Drivers/CMSIS/Include/cmsis_gcc.h **** }
 166:../../../PY32F002B_Firmware_V1.2.1/PY32F002B_Firmware_V1.2.1/Drivers/CMSIS/Include/cmsis_gcc.h **** 
 167:../../../PY32F002B_Firmware_V1.2.1/PY32F002B_Firmware_V1.2.1/Drivers/CMSIS/Include/cmsis_gcc.h **** 
 168:../../../PY32F002B_Firmware_V1.2.1/PY32F002B_Firmware_V1.2.1/Drivers/CMSIS/Include/cmsis_gcc.h **** /**
 169:../../../PY32F002B_Firmware_V1.2.1/PY32F002B_Firmware_V1.2.1/Drivers/CMSIS/Include/cmsis_gcc.h ****   \brief   Get Main Stack Pointer
 170:../../../PY32F002B_Firmware_V1.2.1/PY32F002B_Firmware_V1.2.1/Drivers/CMSIS/Include/cmsis_gcc.h ****   \details Returns the current value of the Main Stack Pointer (MSP).
 171:../../../PY32F002B_Firmware_V1.2.1/PY32F002B_Firmware_V1.2.1/Drivers/CMSIS/Include/cmsis_gcc.h ****   \return               MSP Register value
 172:../../../PY32F002B_Firmware_V1.2.1/PY32F002B_Firmware_V1.2.1/Drivers/CMSIS/Include/cmsis_gcc.h ****  */
 173:../../../PY32F002B_Firmware_V1.2.1/PY32F002B_Firmware_V1.2.1/Drivers/CMSIS/Include/cmsis_gcc.h **** __attribute__( ( always_inline ) ) __STATIC_INLINE uint32_t __get_MSP(void)
 174:../../../PY32F002B_Firmware_V1.2.1/PY32F002B_Firmware_V1.2.1/Drivers/CMSIS/Include/cmsis_gcc.h **** {
 175:../../../PY32F002B_Firmware_V1.2.1/PY32F002B_Firmware_V1.2.1/Drivers/CMSIS/Include/cmsis_gcc.h ****   register uint32_t result;
 176:../../../PY32F002B_Firmware_V1.2.1/PY32F002B_Firmware_V1.2.1/Drivers/CMSIS/Include/cmsis_gcc.h **** 
 177:../../../PY32F002B_Firmware_V1.2.1/PY32F002B_Firmware_V1.2.1/Drivers/CMSIS/Include/cmsis_gcc.h ****   __ASM volatile ("MRS %0, msp\n" : "=r" (result) );
 178:../../../PY32F002B_Firmware_V1.2.1/PY32F002B_Firmware_V1.2.1/Drivers/CMSIS/Include/cmsis_gcc.h ****   return(result);
 179:../../../PY32F002B_Firmware_V1.2.1/PY32F002B_Firmware_V1.2.1/Drivers/CMSIS/Include/cmsis_gcc.h **** }
 180:../../../PY32F002B_Firmware_V1.2.1/PY32F002B_Firmware_V1.2.1/Drivers/CMSIS/Include/cmsis_gcc.h **** 
 181:../../../PY32F002B_Firmware_V1.2.1/PY32F002B_Firmware_V1.2.1/Drivers/CMSIS/Include/cmsis_gcc.h **** 
 182:../../../PY32F002B_Firmware_V1.2.1/PY32F002B_Firmware_V1.2.1/Drivers/CMSIS/Include/cmsis_gcc.h **** /**
 183:../../../PY32F002B_Firmware_V1.2.1/PY32F002B_Firmware_V1.2.1/Drivers/CMSIS/Include/cmsis_gcc.h ****   \brief   Set Main Stack Pointer
 184:../../../PY32F002B_Firmware_V1.2.1/PY32F002B_Firmware_V1.2.1/Drivers/CMSIS/Include/cmsis_gcc.h ****   \details Assigns the given value to the Main Stack Pointer (MSP).
 185:../../../PY32F002B_Firmware_V1.2.1/PY32F002B_Firmware_V1.2.1/Drivers/CMSIS/Include/cmsis_gcc.h **** 
 186:../../../PY32F002B_Firmware_V1.2.1/PY32F002B_Firmware_V1.2.1/Drivers/CMSIS/Include/cmsis_gcc.h ****     \param [in]    topOfMainStack  Main Stack Pointer value to set
 187:../../../PY32F002B_Firmware_V1.2.1/PY32F002B_Firmware_V1.2.1/Drivers/CMSIS/Include/cmsis_gcc.h ****  */
 188:../../../PY32F002B_Firmware_V1.2.1/PY32F002B_Firmware_V1.2.1/Drivers/CMSIS/Include/cmsis_gcc.h **** __attribute__( ( always_inline ) ) __STATIC_INLINE void __set_MSP(uint32_t topOfMainStack)
ARM GAS  C:\Users\Gautam\AppData\Local\Temp\cc3TcbwT.s 			page 8


 189:../../../PY32F002B_Firmware_V1.2.1/PY32F002B_Firmware_V1.2.1/Drivers/CMSIS/Include/cmsis_gcc.h **** {
 190:../../../PY32F002B_Firmware_V1.2.1/PY32F002B_Firmware_V1.2.1/Drivers/CMSIS/Include/cmsis_gcc.h ****   __ASM volatile ("MSR msp, %0\n" : : "r" (topOfMainStack) : "sp");
 191:../../../PY32F002B_Firmware_V1.2.1/PY32F002B_Firmware_V1.2.1/Drivers/CMSIS/Include/cmsis_gcc.h **** }
 192:../../../PY32F002B_Firmware_V1.2.1/PY32F002B_Firmware_V1.2.1/Drivers/CMSIS/Include/cmsis_gcc.h **** 
 193:../../../PY32F002B_Firmware_V1.2.1/PY32F002B_Firmware_V1.2.1/Drivers/CMSIS/Include/cmsis_gcc.h **** 
 194:../../../PY32F002B_Firmware_V1.2.1/PY32F002B_Firmware_V1.2.1/Drivers/CMSIS/Include/cmsis_gcc.h **** /**
 195:../../../PY32F002B_Firmware_V1.2.1/PY32F002B_Firmware_V1.2.1/Drivers/CMSIS/Include/cmsis_gcc.h ****   \brief   Get Priority Mask
 196:../../../PY32F002B_Firmware_V1.2.1/PY32F002B_Firmware_V1.2.1/Drivers/CMSIS/Include/cmsis_gcc.h ****   \details Returns the current state of the priority mask bit from the Priority Mask Register.
 197:../../../PY32F002B_Firmware_V1.2.1/PY32F002B_Firmware_V1.2.1/Drivers/CMSIS/Include/cmsis_gcc.h ****   \return               Priority Mask value
 198:../../../PY32F002B_Firmware_V1.2.1/PY32F002B_Firmware_V1.2.1/Drivers/CMSIS/Include/cmsis_gcc.h ****  */
 199:../../../PY32F002B_Firmware_V1.2.1/PY32F002B_Firmware_V1.2.1/Drivers/CMSIS/Include/cmsis_gcc.h **** __attribute__( ( always_inline ) ) __STATIC_INLINE uint32_t __get_PRIMASK(void)
 200:../../../PY32F002B_Firmware_V1.2.1/PY32F002B_Firmware_V1.2.1/Drivers/CMSIS/Include/cmsis_gcc.h **** {
 201:../../../PY32F002B_Firmware_V1.2.1/PY32F002B_Firmware_V1.2.1/Drivers/CMSIS/Include/cmsis_gcc.h ****   uint32_t result;
 202:../../../PY32F002B_Firmware_V1.2.1/PY32F002B_Firmware_V1.2.1/Drivers/CMSIS/Include/cmsis_gcc.h **** 
 203:../../../PY32F002B_Firmware_V1.2.1/PY32F002B_Firmware_V1.2.1/Drivers/CMSIS/Include/cmsis_gcc.h ****   __ASM volatile ("MRS %0, primask" : "=r" (result) );
 204:../../../PY32F002B_Firmware_V1.2.1/PY32F002B_Firmware_V1.2.1/Drivers/CMSIS/Include/cmsis_gcc.h ****   return(result);
 205:../../../PY32F002B_Firmware_V1.2.1/PY32F002B_Firmware_V1.2.1/Drivers/CMSIS/Include/cmsis_gcc.h **** }
 206:../../../PY32F002B_Firmware_V1.2.1/PY32F002B_Firmware_V1.2.1/Drivers/CMSIS/Include/cmsis_gcc.h **** 
 207:../../../PY32F002B_Firmware_V1.2.1/PY32F002B_Firmware_V1.2.1/Drivers/CMSIS/Include/cmsis_gcc.h **** 
 208:../../../PY32F002B_Firmware_V1.2.1/PY32F002B_Firmware_V1.2.1/Drivers/CMSIS/Include/cmsis_gcc.h **** /**
 209:../../../PY32F002B_Firmware_V1.2.1/PY32F002B_Firmware_V1.2.1/Drivers/CMSIS/Include/cmsis_gcc.h ****   \brief   Set Priority Mask
 210:../../../PY32F002B_Firmware_V1.2.1/PY32F002B_Firmware_V1.2.1/Drivers/CMSIS/Include/cmsis_gcc.h ****   \details Assigns the given value to the Priority Mask Register.
 211:../../../PY32F002B_Firmware_V1.2.1/PY32F002B_Firmware_V1.2.1/Drivers/CMSIS/Include/cmsis_gcc.h ****   \param [in]    priMask  Priority Mask
 212:../../../PY32F002B_Firmware_V1.2.1/PY32F002B_Firmware_V1.2.1/Drivers/CMSIS/Include/cmsis_gcc.h ****  */
 213:../../../PY32F002B_Firmware_V1.2.1/PY32F002B_Firmware_V1.2.1/Drivers/CMSIS/Include/cmsis_gcc.h **** __attribute__( ( always_inline ) ) __STATIC_INLINE void __set_PRIMASK(uint32_t priMask)
 214:../../../PY32F002B_Firmware_V1.2.1/PY32F002B_Firmware_V1.2.1/Drivers/CMSIS/Include/cmsis_gcc.h **** {
 215:../../../PY32F002B_Firmware_V1.2.1/PY32F002B_Firmware_V1.2.1/Drivers/CMSIS/Include/cmsis_gcc.h ****   __ASM volatile ("MSR primask, %0" : : "r" (priMask) : "memory");
 216:../../../PY32F002B_Firmware_V1.2.1/PY32F002B_Firmware_V1.2.1/Drivers/CMSIS/Include/cmsis_gcc.h **** }
 217:../../../PY32F002B_Firmware_V1.2.1/PY32F002B_Firmware_V1.2.1/Drivers/CMSIS/Include/cmsis_gcc.h **** 
 218:../../../PY32F002B_Firmware_V1.2.1/PY32F002B_Firmware_V1.2.1/Drivers/CMSIS/Include/cmsis_gcc.h **** 
 219:../../../PY32F002B_Firmware_V1.2.1/PY32F002B_Firmware_V1.2.1/Drivers/CMSIS/Include/cmsis_gcc.h **** #if       (__CORTEX_M >= 0x03U)
 220:../../../PY32F002B_Firmware_V1.2.1/PY32F002B_Firmware_V1.2.1/Drivers/CMSIS/Include/cmsis_gcc.h **** 
 221:../../../PY32F002B_Firmware_V1.2.1/PY32F002B_Firmware_V1.2.1/Drivers/CMSIS/Include/cmsis_gcc.h **** /**
 222:../../../PY32F002B_Firmware_V1.2.1/PY32F002B_Firmware_V1.2.1/Drivers/CMSIS/Include/cmsis_gcc.h ****   \brief   Enable FIQ
 223:../../../PY32F002B_Firmware_V1.2.1/PY32F002B_Firmware_V1.2.1/Drivers/CMSIS/Include/cmsis_gcc.h ****   \details Enables FIQ interrupts by clearing the F-bit in the CPSR.
 224:../../../PY32F002B_Firmware_V1.2.1/PY32F002B_Firmware_V1.2.1/Drivers/CMSIS/Include/cmsis_gcc.h ****            Can only be executed in Privileged modes.
 225:../../../PY32F002B_Firmware_V1.2.1/PY32F002B_Firmware_V1.2.1/Drivers/CMSIS/Include/cmsis_gcc.h ****  */
 226:../../../PY32F002B_Firmware_V1.2.1/PY32F002B_Firmware_V1.2.1/Drivers/CMSIS/Include/cmsis_gcc.h **** __attribute__( ( always_inline ) ) __STATIC_INLINE void __enable_fault_irq(void)
 227:../../../PY32F002B_Firmware_V1.2.1/PY32F002B_Firmware_V1.2.1/Drivers/CMSIS/Include/cmsis_gcc.h **** {
 228:../../../PY32F002B_Firmware_V1.2.1/PY32F002B_Firmware_V1.2.1/Drivers/CMSIS/Include/cmsis_gcc.h ****   __ASM volatile ("cpsie f" : : : "memory");
 229:../../../PY32F002B_Firmware_V1.2.1/PY32F002B_Firmware_V1.2.1/Drivers/CMSIS/Include/cmsis_gcc.h **** }
 230:../../../PY32F002B_Firmware_V1.2.1/PY32F002B_Firmware_V1.2.1/Drivers/CMSIS/Include/cmsis_gcc.h **** 
 231:../../../PY32F002B_Firmware_V1.2.1/PY32F002B_Firmware_V1.2.1/Drivers/CMSIS/Include/cmsis_gcc.h **** 
 232:../../../PY32F002B_Firmware_V1.2.1/PY32F002B_Firmware_V1.2.1/Drivers/CMSIS/Include/cmsis_gcc.h **** /**
 233:../../../PY32F002B_Firmware_V1.2.1/PY32F002B_Firmware_V1.2.1/Drivers/CMSIS/Include/cmsis_gcc.h ****   \brief   Disable FIQ
 234:../../../PY32F002B_Firmware_V1.2.1/PY32F002B_Firmware_V1.2.1/Drivers/CMSIS/Include/cmsis_gcc.h ****   \details Disables FIQ interrupts by setting the F-bit in the CPSR.
 235:../../../PY32F002B_Firmware_V1.2.1/PY32F002B_Firmware_V1.2.1/Drivers/CMSIS/Include/cmsis_gcc.h ****            Can only be executed in Privileged modes.
 236:../../../PY32F002B_Firmware_V1.2.1/PY32F002B_Firmware_V1.2.1/Drivers/CMSIS/Include/cmsis_gcc.h ****  */
 237:../../../PY32F002B_Firmware_V1.2.1/PY32F002B_Firmware_V1.2.1/Drivers/CMSIS/Include/cmsis_gcc.h **** __attribute__( ( always_inline ) ) __STATIC_INLINE void __disable_fault_irq(void)
 238:../../../PY32F002B_Firmware_V1.2.1/PY32F002B_Firmware_V1.2.1/Drivers/CMSIS/Include/cmsis_gcc.h **** {
 239:../../../PY32F002B_Firmware_V1.2.1/PY32F002B_Firmware_V1.2.1/Drivers/CMSIS/Include/cmsis_gcc.h ****   __ASM volatile ("cpsid f" : : : "memory");
 240:../../../PY32F002B_Firmware_V1.2.1/PY32F002B_Firmware_V1.2.1/Drivers/CMSIS/Include/cmsis_gcc.h **** }
 241:../../../PY32F002B_Firmware_V1.2.1/PY32F002B_Firmware_V1.2.1/Drivers/CMSIS/Include/cmsis_gcc.h **** 
 242:../../../PY32F002B_Firmware_V1.2.1/PY32F002B_Firmware_V1.2.1/Drivers/CMSIS/Include/cmsis_gcc.h **** 
 243:../../../PY32F002B_Firmware_V1.2.1/PY32F002B_Firmware_V1.2.1/Drivers/CMSIS/Include/cmsis_gcc.h **** /**
 244:../../../PY32F002B_Firmware_V1.2.1/PY32F002B_Firmware_V1.2.1/Drivers/CMSIS/Include/cmsis_gcc.h ****   \brief   Get Base Priority
 245:../../../PY32F002B_Firmware_V1.2.1/PY32F002B_Firmware_V1.2.1/Drivers/CMSIS/Include/cmsis_gcc.h ****   \details Returns the current value of the Base Priority register.
ARM GAS  C:\Users\Gautam\AppData\Local\Temp\cc3TcbwT.s 			page 9


 246:../../../PY32F002B_Firmware_V1.2.1/PY32F002B_Firmware_V1.2.1/Drivers/CMSIS/Include/cmsis_gcc.h ****   \return               Base Priority register value
 247:../../../PY32F002B_Firmware_V1.2.1/PY32F002B_Firmware_V1.2.1/Drivers/CMSIS/Include/cmsis_gcc.h ****  */
 248:../../../PY32F002B_Firmware_V1.2.1/PY32F002B_Firmware_V1.2.1/Drivers/CMSIS/Include/cmsis_gcc.h **** __attribute__( ( always_inline ) ) __STATIC_INLINE uint32_t __get_BASEPRI(void)
 249:../../../PY32F002B_Firmware_V1.2.1/PY32F002B_Firmware_V1.2.1/Drivers/CMSIS/Include/cmsis_gcc.h **** {
 250:../../../PY32F002B_Firmware_V1.2.1/PY32F002B_Firmware_V1.2.1/Drivers/CMSIS/Include/cmsis_gcc.h ****   uint32_t result;
 251:../../../PY32F002B_Firmware_V1.2.1/PY32F002B_Firmware_V1.2.1/Drivers/CMSIS/Include/cmsis_gcc.h **** 
 252:../../../PY32F002B_Firmware_V1.2.1/PY32F002B_Firmware_V1.2.1/Drivers/CMSIS/Include/cmsis_gcc.h ****   __ASM volatile ("MRS %0, basepri" : "=r" (result) );
 253:../../../PY32F002B_Firmware_V1.2.1/PY32F002B_Firmware_V1.2.1/Drivers/CMSIS/Include/cmsis_gcc.h ****   return(result);
 254:../../../PY32F002B_Firmware_V1.2.1/PY32F002B_Firmware_V1.2.1/Drivers/CMSIS/Include/cmsis_gcc.h **** }
 255:../../../PY32F002B_Firmware_V1.2.1/PY32F002B_Firmware_V1.2.1/Drivers/CMSIS/Include/cmsis_gcc.h **** 
 256:../../../PY32F002B_Firmware_V1.2.1/PY32F002B_Firmware_V1.2.1/Drivers/CMSIS/Include/cmsis_gcc.h **** 
 257:../../../PY32F002B_Firmware_V1.2.1/PY32F002B_Firmware_V1.2.1/Drivers/CMSIS/Include/cmsis_gcc.h **** /**
 258:../../../PY32F002B_Firmware_V1.2.1/PY32F002B_Firmware_V1.2.1/Drivers/CMSIS/Include/cmsis_gcc.h ****   \brief   Set Base Priority
 259:../../../PY32F002B_Firmware_V1.2.1/PY32F002B_Firmware_V1.2.1/Drivers/CMSIS/Include/cmsis_gcc.h ****   \details Assigns the given value to the Base Priority register.
 260:../../../PY32F002B_Firmware_V1.2.1/PY32F002B_Firmware_V1.2.1/Drivers/CMSIS/Include/cmsis_gcc.h ****   \param [in]    basePri  Base Priority value to set
 261:../../../PY32F002B_Firmware_V1.2.1/PY32F002B_Firmware_V1.2.1/Drivers/CMSIS/Include/cmsis_gcc.h ****  */
 262:../../../PY32F002B_Firmware_V1.2.1/PY32F002B_Firmware_V1.2.1/Drivers/CMSIS/Include/cmsis_gcc.h **** __attribute__( ( always_inline ) ) __STATIC_INLINE void __set_BASEPRI(uint32_t value)
 263:../../../PY32F002B_Firmware_V1.2.1/PY32F002B_Firmware_V1.2.1/Drivers/CMSIS/Include/cmsis_gcc.h **** {
 264:../../../PY32F002B_Firmware_V1.2.1/PY32F002B_Firmware_V1.2.1/Drivers/CMSIS/Include/cmsis_gcc.h ****   __ASM volatile ("MSR basepri, %0" : : "r" (value) : "memory");
 265:../../../PY32F002B_Firmware_V1.2.1/PY32F002B_Firmware_V1.2.1/Drivers/CMSIS/Include/cmsis_gcc.h **** }
 266:../../../PY32F002B_Firmware_V1.2.1/PY32F002B_Firmware_V1.2.1/Drivers/CMSIS/Include/cmsis_gcc.h **** 
 267:../../../PY32F002B_Firmware_V1.2.1/PY32F002B_Firmware_V1.2.1/Drivers/CMSIS/Include/cmsis_gcc.h **** 
 268:../../../PY32F002B_Firmware_V1.2.1/PY32F002B_Firmware_V1.2.1/Drivers/CMSIS/Include/cmsis_gcc.h **** /**
 269:../../../PY32F002B_Firmware_V1.2.1/PY32F002B_Firmware_V1.2.1/Drivers/CMSIS/Include/cmsis_gcc.h ****   \brief   Set Base Priority with condition
 270:../../../PY32F002B_Firmware_V1.2.1/PY32F002B_Firmware_V1.2.1/Drivers/CMSIS/Include/cmsis_gcc.h ****   \details Assigns the given value to the Base Priority register only if BASEPRI masking is disable
 271:../../../PY32F002B_Firmware_V1.2.1/PY32F002B_Firmware_V1.2.1/Drivers/CMSIS/Include/cmsis_gcc.h ****            or the new value increases the BASEPRI priority level.
 272:../../../PY32F002B_Firmware_V1.2.1/PY32F002B_Firmware_V1.2.1/Drivers/CMSIS/Include/cmsis_gcc.h ****   \param [in]    basePri  Base Priority value to set
 273:../../../PY32F002B_Firmware_V1.2.1/PY32F002B_Firmware_V1.2.1/Drivers/CMSIS/Include/cmsis_gcc.h ****  */
 274:../../../PY32F002B_Firmware_V1.2.1/PY32F002B_Firmware_V1.2.1/Drivers/CMSIS/Include/cmsis_gcc.h **** __attribute__( ( always_inline ) ) __STATIC_INLINE void __set_BASEPRI_MAX(uint32_t value)
 275:../../../PY32F002B_Firmware_V1.2.1/PY32F002B_Firmware_V1.2.1/Drivers/CMSIS/Include/cmsis_gcc.h **** {
 276:../../../PY32F002B_Firmware_V1.2.1/PY32F002B_Firmware_V1.2.1/Drivers/CMSIS/Include/cmsis_gcc.h ****   __ASM volatile ("MSR basepri_max, %0" : : "r" (value) : "memory");
 277:../../../PY32F002B_Firmware_V1.2.1/PY32F002B_Firmware_V1.2.1/Drivers/CMSIS/Include/cmsis_gcc.h **** }
 278:../../../PY32F002B_Firmware_V1.2.1/PY32F002B_Firmware_V1.2.1/Drivers/CMSIS/Include/cmsis_gcc.h **** 
 279:../../../PY32F002B_Firmware_V1.2.1/PY32F002B_Firmware_V1.2.1/Drivers/CMSIS/Include/cmsis_gcc.h **** 
 280:../../../PY32F002B_Firmware_V1.2.1/PY32F002B_Firmware_V1.2.1/Drivers/CMSIS/Include/cmsis_gcc.h **** /**
 281:../../../PY32F002B_Firmware_V1.2.1/PY32F002B_Firmware_V1.2.1/Drivers/CMSIS/Include/cmsis_gcc.h ****   \brief   Get Fault Mask
 282:../../../PY32F002B_Firmware_V1.2.1/PY32F002B_Firmware_V1.2.1/Drivers/CMSIS/Include/cmsis_gcc.h ****   \details Returns the current value of the Fault Mask register.
 283:../../../PY32F002B_Firmware_V1.2.1/PY32F002B_Firmware_V1.2.1/Drivers/CMSIS/Include/cmsis_gcc.h ****   \return               Fault Mask register value
 284:../../../PY32F002B_Firmware_V1.2.1/PY32F002B_Firmware_V1.2.1/Drivers/CMSIS/Include/cmsis_gcc.h ****  */
 285:../../../PY32F002B_Firmware_V1.2.1/PY32F002B_Firmware_V1.2.1/Drivers/CMSIS/Include/cmsis_gcc.h **** __attribute__( ( always_inline ) ) __STATIC_INLINE uint32_t __get_FAULTMASK(void)
 286:../../../PY32F002B_Firmware_V1.2.1/PY32F002B_Firmware_V1.2.1/Drivers/CMSIS/Include/cmsis_gcc.h **** {
 287:../../../PY32F002B_Firmware_V1.2.1/PY32F002B_Firmware_V1.2.1/Drivers/CMSIS/Include/cmsis_gcc.h ****   uint32_t result;
 288:../../../PY32F002B_Firmware_V1.2.1/PY32F002B_Firmware_V1.2.1/Drivers/CMSIS/Include/cmsis_gcc.h **** 
 289:../../../PY32F002B_Firmware_V1.2.1/PY32F002B_Firmware_V1.2.1/Drivers/CMSIS/Include/cmsis_gcc.h ****   __ASM volatile ("MRS %0, faultmask" : "=r" (result) );
 290:../../../PY32F002B_Firmware_V1.2.1/PY32F002B_Firmware_V1.2.1/Drivers/CMSIS/Include/cmsis_gcc.h ****   return(result);
 291:../../../PY32F002B_Firmware_V1.2.1/PY32F002B_Firmware_V1.2.1/Drivers/CMSIS/Include/cmsis_gcc.h **** }
 292:../../../PY32F002B_Firmware_V1.2.1/PY32F002B_Firmware_V1.2.1/Drivers/CMSIS/Include/cmsis_gcc.h **** 
 293:../../../PY32F002B_Firmware_V1.2.1/PY32F002B_Firmware_V1.2.1/Drivers/CMSIS/Include/cmsis_gcc.h **** 
 294:../../../PY32F002B_Firmware_V1.2.1/PY32F002B_Firmware_V1.2.1/Drivers/CMSIS/Include/cmsis_gcc.h **** /**
 295:../../../PY32F002B_Firmware_V1.2.1/PY32F002B_Firmware_V1.2.1/Drivers/CMSIS/Include/cmsis_gcc.h ****   \brief   Set Fault Mask
 296:../../../PY32F002B_Firmware_V1.2.1/PY32F002B_Firmware_V1.2.1/Drivers/CMSIS/Include/cmsis_gcc.h ****   \details Assigns the given value to the Fault Mask register.
 297:../../../PY32F002B_Firmware_V1.2.1/PY32F002B_Firmware_V1.2.1/Drivers/CMSIS/Include/cmsis_gcc.h ****   \param [in]    faultMask  Fault Mask value to set
 298:../../../PY32F002B_Firmware_V1.2.1/PY32F002B_Firmware_V1.2.1/Drivers/CMSIS/Include/cmsis_gcc.h ****  */
 299:../../../PY32F002B_Firmware_V1.2.1/PY32F002B_Firmware_V1.2.1/Drivers/CMSIS/Include/cmsis_gcc.h **** __attribute__( ( always_inline ) ) __STATIC_INLINE void __set_FAULTMASK(uint32_t faultMask)
 300:../../../PY32F002B_Firmware_V1.2.1/PY32F002B_Firmware_V1.2.1/Drivers/CMSIS/Include/cmsis_gcc.h **** {
 301:../../../PY32F002B_Firmware_V1.2.1/PY32F002B_Firmware_V1.2.1/Drivers/CMSIS/Include/cmsis_gcc.h ****   __ASM volatile ("MSR faultmask, %0" : : "r" (faultMask) : "memory");
 302:../../../PY32F002B_Firmware_V1.2.1/PY32F002B_Firmware_V1.2.1/Drivers/CMSIS/Include/cmsis_gcc.h **** }
ARM GAS  C:\Users\Gautam\AppData\Local\Temp\cc3TcbwT.s 			page 10


 303:../../../PY32F002B_Firmware_V1.2.1/PY32F002B_Firmware_V1.2.1/Drivers/CMSIS/Include/cmsis_gcc.h **** 
 304:../../../PY32F002B_Firmware_V1.2.1/PY32F002B_Firmware_V1.2.1/Drivers/CMSIS/Include/cmsis_gcc.h **** #endif /* (__CORTEX_M >= 0x03U) */
 305:../../../PY32F002B_Firmware_V1.2.1/PY32F002B_Firmware_V1.2.1/Drivers/CMSIS/Include/cmsis_gcc.h **** 
 306:../../../PY32F002B_Firmware_V1.2.1/PY32F002B_Firmware_V1.2.1/Drivers/CMSIS/Include/cmsis_gcc.h **** 
 307:../../../PY32F002B_Firmware_V1.2.1/PY32F002B_Firmware_V1.2.1/Drivers/CMSIS/Include/cmsis_gcc.h **** #if       (__CORTEX_M == 0x04U) || (__CORTEX_M == 0x07U)
 308:../../../PY32F002B_Firmware_V1.2.1/PY32F002B_Firmware_V1.2.1/Drivers/CMSIS/Include/cmsis_gcc.h **** 
 309:../../../PY32F002B_Firmware_V1.2.1/PY32F002B_Firmware_V1.2.1/Drivers/CMSIS/Include/cmsis_gcc.h **** /**
 310:../../../PY32F002B_Firmware_V1.2.1/PY32F002B_Firmware_V1.2.1/Drivers/CMSIS/Include/cmsis_gcc.h ****   \brief   Get FPSCR
 311:../../../PY32F002B_Firmware_V1.2.1/PY32F002B_Firmware_V1.2.1/Drivers/CMSIS/Include/cmsis_gcc.h ****   \details Returns the current value of the Floating Point Status/Control register.
 312:../../../PY32F002B_Firmware_V1.2.1/PY32F002B_Firmware_V1.2.1/Drivers/CMSIS/Include/cmsis_gcc.h ****   \return               Floating Point Status/Control register value
 313:../../../PY32F002B_Firmware_V1.2.1/PY32F002B_Firmware_V1.2.1/Drivers/CMSIS/Include/cmsis_gcc.h ****  */
 314:../../../PY32F002B_Firmware_V1.2.1/PY32F002B_Firmware_V1.2.1/Drivers/CMSIS/Include/cmsis_gcc.h **** __attribute__( ( always_inline ) ) __STATIC_INLINE uint32_t __get_FPSCR(void)
 315:../../../PY32F002B_Firmware_V1.2.1/PY32F002B_Firmware_V1.2.1/Drivers/CMSIS/Include/cmsis_gcc.h **** {
 316:../../../PY32F002B_Firmware_V1.2.1/PY32F002B_Firmware_V1.2.1/Drivers/CMSIS/Include/cmsis_gcc.h **** #if (__FPU_PRESENT == 1U) && (__FPU_USED == 1U)
 317:../../../PY32F002B_Firmware_V1.2.1/PY32F002B_Firmware_V1.2.1/Drivers/CMSIS/Include/cmsis_gcc.h ****   uint32_t result;
 318:../../../PY32F002B_Firmware_V1.2.1/PY32F002B_Firmware_V1.2.1/Drivers/CMSIS/Include/cmsis_gcc.h **** 
 319:../../../PY32F002B_Firmware_V1.2.1/PY32F002B_Firmware_V1.2.1/Drivers/CMSIS/Include/cmsis_gcc.h ****   /* Empty asm statement works as a scheduling barrier */
 320:../../../PY32F002B_Firmware_V1.2.1/PY32F002B_Firmware_V1.2.1/Drivers/CMSIS/Include/cmsis_gcc.h ****   __ASM volatile ("");
 321:../../../PY32F002B_Firmware_V1.2.1/PY32F002B_Firmware_V1.2.1/Drivers/CMSIS/Include/cmsis_gcc.h ****   __ASM volatile ("VMRS %0, fpscr" : "=r" (result) );
 322:../../../PY32F002B_Firmware_V1.2.1/PY32F002B_Firmware_V1.2.1/Drivers/CMSIS/Include/cmsis_gcc.h ****   __ASM volatile ("");
 323:../../../PY32F002B_Firmware_V1.2.1/PY32F002B_Firmware_V1.2.1/Drivers/CMSIS/Include/cmsis_gcc.h ****   return(result);
 324:../../../PY32F002B_Firmware_V1.2.1/PY32F002B_Firmware_V1.2.1/Drivers/CMSIS/Include/cmsis_gcc.h **** #else
 325:../../../PY32F002B_Firmware_V1.2.1/PY32F002B_Firmware_V1.2.1/Drivers/CMSIS/Include/cmsis_gcc.h ****    return(0);
 326:../../../PY32F002B_Firmware_V1.2.1/PY32F002B_Firmware_V1.2.1/Drivers/CMSIS/Include/cmsis_gcc.h **** #endif
 327:../../../PY32F002B_Firmware_V1.2.1/PY32F002B_Firmware_V1.2.1/Drivers/CMSIS/Include/cmsis_gcc.h **** }
 328:../../../PY32F002B_Firmware_V1.2.1/PY32F002B_Firmware_V1.2.1/Drivers/CMSIS/Include/cmsis_gcc.h **** 
 329:../../../PY32F002B_Firmware_V1.2.1/PY32F002B_Firmware_V1.2.1/Drivers/CMSIS/Include/cmsis_gcc.h **** 
 330:../../../PY32F002B_Firmware_V1.2.1/PY32F002B_Firmware_V1.2.1/Drivers/CMSIS/Include/cmsis_gcc.h **** /**
 331:../../../PY32F002B_Firmware_V1.2.1/PY32F002B_Firmware_V1.2.1/Drivers/CMSIS/Include/cmsis_gcc.h ****   \brief   Set FPSCR
 332:../../../PY32F002B_Firmware_V1.2.1/PY32F002B_Firmware_V1.2.1/Drivers/CMSIS/Include/cmsis_gcc.h ****   \details Assigns the given value to the Floating Point Status/Control register.
 333:../../../PY32F002B_Firmware_V1.2.1/PY32F002B_Firmware_V1.2.1/Drivers/CMSIS/Include/cmsis_gcc.h ****   \param [in]    fpscr  Floating Point Status/Control value to set
 334:../../../PY32F002B_Firmware_V1.2.1/PY32F002B_Firmware_V1.2.1/Drivers/CMSIS/Include/cmsis_gcc.h ****  */
 335:../../../PY32F002B_Firmware_V1.2.1/PY32F002B_Firmware_V1.2.1/Drivers/CMSIS/Include/cmsis_gcc.h **** __attribute__( ( always_inline ) ) __STATIC_INLINE void __set_FPSCR(uint32_t fpscr)
 336:../../../PY32F002B_Firmware_V1.2.1/PY32F002B_Firmware_V1.2.1/Drivers/CMSIS/Include/cmsis_gcc.h **** {
 337:../../../PY32F002B_Firmware_V1.2.1/PY32F002B_Firmware_V1.2.1/Drivers/CMSIS/Include/cmsis_gcc.h **** #if (__FPU_PRESENT == 1U) && (__FPU_USED == 1U)
 338:../../../PY32F002B_Firmware_V1.2.1/PY32F002B_Firmware_V1.2.1/Drivers/CMSIS/Include/cmsis_gcc.h ****   /* Empty asm statement works as a scheduling barrier */
 339:../../../PY32F002B_Firmware_V1.2.1/PY32F002B_Firmware_V1.2.1/Drivers/CMSIS/Include/cmsis_gcc.h ****   __ASM volatile ("");
 340:../../../PY32F002B_Firmware_V1.2.1/PY32F002B_Firmware_V1.2.1/Drivers/CMSIS/Include/cmsis_gcc.h ****   __ASM volatile ("VMSR fpscr, %0" : : "r" (fpscr) : "vfpcc");
 341:../../../PY32F002B_Firmware_V1.2.1/PY32F002B_Firmware_V1.2.1/Drivers/CMSIS/Include/cmsis_gcc.h ****   __ASM volatile ("");
 342:../../../PY32F002B_Firmware_V1.2.1/PY32F002B_Firmware_V1.2.1/Drivers/CMSIS/Include/cmsis_gcc.h **** #endif
 343:../../../PY32F002B_Firmware_V1.2.1/PY32F002B_Firmware_V1.2.1/Drivers/CMSIS/Include/cmsis_gcc.h **** }
 344:../../../PY32F002B_Firmware_V1.2.1/PY32F002B_Firmware_V1.2.1/Drivers/CMSIS/Include/cmsis_gcc.h **** 
 345:../../../PY32F002B_Firmware_V1.2.1/PY32F002B_Firmware_V1.2.1/Drivers/CMSIS/Include/cmsis_gcc.h **** #endif /* (__CORTEX_M == 0x04U) || (__CORTEX_M == 0x07U) */
 346:../../../PY32F002B_Firmware_V1.2.1/PY32F002B_Firmware_V1.2.1/Drivers/CMSIS/Include/cmsis_gcc.h **** 
 347:../../../PY32F002B_Firmware_V1.2.1/PY32F002B_Firmware_V1.2.1/Drivers/CMSIS/Include/cmsis_gcc.h **** 
 348:../../../PY32F002B_Firmware_V1.2.1/PY32F002B_Firmware_V1.2.1/Drivers/CMSIS/Include/cmsis_gcc.h **** 
 349:../../../PY32F002B_Firmware_V1.2.1/PY32F002B_Firmware_V1.2.1/Drivers/CMSIS/Include/cmsis_gcc.h **** /*@} end of CMSIS_Core_RegAccFunctions */
 350:../../../PY32F002B_Firmware_V1.2.1/PY32F002B_Firmware_V1.2.1/Drivers/CMSIS/Include/cmsis_gcc.h **** 
 351:../../../PY32F002B_Firmware_V1.2.1/PY32F002B_Firmware_V1.2.1/Drivers/CMSIS/Include/cmsis_gcc.h **** 
 352:../../../PY32F002B_Firmware_V1.2.1/PY32F002B_Firmware_V1.2.1/Drivers/CMSIS/Include/cmsis_gcc.h **** /* ##########################  Core Instruction Access  ######################### */
 353:../../../PY32F002B_Firmware_V1.2.1/PY32F002B_Firmware_V1.2.1/Drivers/CMSIS/Include/cmsis_gcc.h **** /** \defgroup CMSIS_Core_InstructionInterface CMSIS Core Instruction Interface
 354:../../../PY32F002B_Firmware_V1.2.1/PY32F002B_Firmware_V1.2.1/Drivers/CMSIS/Include/cmsis_gcc.h ****   Access to dedicated instructions
 355:../../../PY32F002B_Firmware_V1.2.1/PY32F002B_Firmware_V1.2.1/Drivers/CMSIS/Include/cmsis_gcc.h ****   @{
 356:../../../PY32F002B_Firmware_V1.2.1/PY32F002B_Firmware_V1.2.1/Drivers/CMSIS/Include/cmsis_gcc.h **** */
 357:../../../PY32F002B_Firmware_V1.2.1/PY32F002B_Firmware_V1.2.1/Drivers/CMSIS/Include/cmsis_gcc.h **** 
 358:../../../PY32F002B_Firmware_V1.2.1/PY32F002B_Firmware_V1.2.1/Drivers/CMSIS/Include/cmsis_gcc.h **** /* Define macros for porting to both thumb1 and thumb2.
 359:../../../PY32F002B_Firmware_V1.2.1/PY32F002B_Firmware_V1.2.1/Drivers/CMSIS/Include/cmsis_gcc.h ****  * For thumb1, use low register (r0-r7), specified by constraint "l"
ARM GAS  C:\Users\Gautam\AppData\Local\Temp\cc3TcbwT.s 			page 11


 360:../../../PY32F002B_Firmware_V1.2.1/PY32F002B_Firmware_V1.2.1/Drivers/CMSIS/Include/cmsis_gcc.h ****  * Otherwise, use general registers, specified by constraint "r" */
 361:../../../PY32F002B_Firmware_V1.2.1/PY32F002B_Firmware_V1.2.1/Drivers/CMSIS/Include/cmsis_gcc.h **** #if defined (__thumb__) && !defined (__thumb2__)
 362:../../../PY32F002B_Firmware_V1.2.1/PY32F002B_Firmware_V1.2.1/Drivers/CMSIS/Include/cmsis_gcc.h **** #define __CMSIS_GCC_OUT_REG(r) "=l" (r)
 363:../../../PY32F002B_Firmware_V1.2.1/PY32F002B_Firmware_V1.2.1/Drivers/CMSIS/Include/cmsis_gcc.h **** #define __CMSIS_GCC_USE_REG(r) "l" (r)
 364:../../../PY32F002B_Firmware_V1.2.1/PY32F002B_Firmware_V1.2.1/Drivers/CMSIS/Include/cmsis_gcc.h **** #else
 365:../../../PY32F002B_Firmware_V1.2.1/PY32F002B_Firmware_V1.2.1/Drivers/CMSIS/Include/cmsis_gcc.h **** #define __CMSIS_GCC_OUT_REG(r) "=r" (r)
 366:../../../PY32F002B_Firmware_V1.2.1/PY32F002B_Firmware_V1.2.1/Drivers/CMSIS/Include/cmsis_gcc.h **** #define __CMSIS_GCC_USE_REG(r) "r" (r)
 367:../../../PY32F002B_Firmware_V1.2.1/PY32F002B_Firmware_V1.2.1/Drivers/CMSIS/Include/cmsis_gcc.h **** #endif
 368:../../../PY32F002B_Firmware_V1.2.1/PY32F002B_Firmware_V1.2.1/Drivers/CMSIS/Include/cmsis_gcc.h **** 
 369:../../../PY32F002B_Firmware_V1.2.1/PY32F002B_Firmware_V1.2.1/Drivers/CMSIS/Include/cmsis_gcc.h **** /**
 370:../../../PY32F002B_Firmware_V1.2.1/PY32F002B_Firmware_V1.2.1/Drivers/CMSIS/Include/cmsis_gcc.h ****   \brief   No Operation
 371:../../../PY32F002B_Firmware_V1.2.1/PY32F002B_Firmware_V1.2.1/Drivers/CMSIS/Include/cmsis_gcc.h ****   \details No Operation does nothing. This instruction can be used for code alignment purposes.
 372:../../../PY32F002B_Firmware_V1.2.1/PY32F002B_Firmware_V1.2.1/Drivers/CMSIS/Include/cmsis_gcc.h ****  */
 373:../../../PY32F002B_Firmware_V1.2.1/PY32F002B_Firmware_V1.2.1/Drivers/CMSIS/Include/cmsis_gcc.h **** __attribute__((always_inline)) __STATIC_INLINE void __NOP(void)
  48              		.loc 2 373 53 view .LVU7
  49              	.LBB5:
 374:../../../PY32F002B_Firmware_V1.2.1/PY32F002B_Firmware_V1.2.1/Drivers/CMSIS/Include/cmsis_gcc.h **** {
 375:../../../PY32F002B_Firmware_V1.2.1/PY32F002B_Firmware_V1.2.1/Drivers/CMSIS/Include/cmsis_gcc.h ****   __ASM volatile ("nop");
  50              		.loc 2 375 3 view .LVU8
  51              		.syntax divided
  52              	@ 375 "../../../PY32F002B_Firmware_V1.2.1/PY32F002B_Firmware_V1.2.1/Drivers/CMSIS/Include/cmsis_gcc
  53 0008 C046     		nop
  54              	@ 0 "" 2
  55              		.thumb
  56              		.syntax unified
  57              	.LBE5:
  58              	.LBE4:
 166:../Src/system_py32f002b.c ****   }
 167:../Src/system_py32f002b.c ****   while (Delay --);
  59              		.loc 1 167 10 discriminator 1 view .LVU9
  60              		.loc 1 167 16 is_stmt 0 discriminator 1 view .LVU10
  61 000a 019B     		ldr	r3, [sp, #4]
  62 000c 5A1E     		subs	r2, r3, #1
  63 000e 0192     		str	r2, [sp, #4]
  64              		.loc 1 167 10 discriminator 1 view .LVU11
  65 0010 002B     		cmp	r3, #0
  66 0012 F9D1     		bne	.L2
 168:../Src/system_py32f002b.c **** }
  67              		.loc 1 168 1 view .LVU12
  68 0014 02B0     		add	sp, sp, #8
  69              		@ sp needed
  70 0016 7047     		bx	lr
  71              	.L4:
  72              		.align	2
  73              	.L3:
  74 0018 B80B0000 		.word	3000
  75              		.cfi_endproc
  76              	.LFE39:
  78              		.section	.text.SystemCoreClockUpdate,"ax",%progbits
  79              		.align	1
  80              		.global	SystemCoreClockUpdate
  81              		.syntax unified
  82              		.code	16
  83              		.thumb_func
  85              	SystemCoreClockUpdate:
  86              	.LFB37:
  92:../Src/system_py32f002b.c ****   uint32_t tmp;
ARM GAS  C:\Users\Gautam\AppData\Local\Temp\cc3TcbwT.s 			page 12


  87              		.loc 1 92 1 is_stmt 1 view -0
  88              		.cfi_startproc
  89              		@ args = 0, pretend = 0, frame = 0
  90              		@ frame_needed = 0, uses_anonymous_args = 0
  91              		@ link register save eliminated.
  93:../Src/system_py32f002b.c ****   uint32_t hsidiv;
  92              		.loc 1 93 3 view .LVU14
  94:../Src/system_py32f002b.c ****   uint32_t hsifs;
  93              		.loc 1 94 3 view .LVU15
  95:../Src/system_py32f002b.c **** 
  94              		.loc 1 95 3 view .LVU16
  98:../Src/system_py32f002b.c ****   {
  95              		.loc 1 98 3 view .LVU17
  98:../Src/system_py32f002b.c ****   {
  96              		.loc 1 98 14 is_stmt 0 view .LVU18
  97 0000 194B     		ldr	r3, .L10
  98 0002 9A68     		ldr	r2, [r3, #8]
  98:../Src/system_py32f002b.c ****   {
  99              		.loc 1 98 21 view .LVU19
 100 0004 3823     		movs	r3, #56
 101 0006 1340     		ands	r3, r2
  98:../Src/system_py32f002b.c ****   {
 102              		.loc 1 98 3 view .LVU20
 103 0008 182B     		cmp	r3, #24
 104 000a 13D0     		beq	.L6
 105 000c 202B     		cmp	r3, #32
 106 000e 16D0     		beq	.L7
 107 0010 082B     		cmp	r3, #8
 108 0012 19D1     		bne	.L8
 101:../Src/system_py32f002b.c ****     break;
 109              		.loc 1 101 5 is_stmt 1 view .LVU21
 101:../Src/system_py32f002b.c ****     break;
 110              		.loc 1 101 21 is_stmt 0 view .LVU22
 111 0014 154B     		ldr	r3, .L10+4
 112 0016 164A     		ldr	r2, .L10+8
 113 0018 1A60     		str	r2, [r3]
 102:../Src/system_py32f002b.c **** 
 114              		.loc 1 102 5 is_stmt 1 view .LVU23
 115              	.L9:
 121:../Src/system_py32f002b.c ****   /* HCLK clock frequency */
 116              		.loc 1 121 3 view .LVU24
 121:../Src/system_py32f002b.c ****   /* HCLK clock frequency */
 117              		.loc 1 121 28 is_stmt 0 view .LVU25
 118 001a 134B     		ldr	r3, .L10
 119 001c 9A68     		ldr	r2, [r3, #8]
 121:../Src/system_py32f002b.c ****   /* HCLK clock frequency */
 120              		.loc 1 121 52 view .LVU26
 121 001e 120A     		lsrs	r2, r2, #8
 122 0020 0F23     		movs	r3, #15
 123 0022 1340     		ands	r3, r2
 121:../Src/system_py32f002b.c ****   /* HCLK clock frequency */
 124              		.loc 1 121 7 view .LVU27
 125 0024 134A     		ldr	r2, .L10+12
 126 0026 9B00     		lsls	r3, r3, #2
 127 0028 9958     		ldr	r1, [r3, r2]
 128              	.LVL1:
 123:../Src/system_py32f002b.c **** }
ARM GAS  C:\Users\Gautam\AppData\Local\Temp\cc3TcbwT.s 			page 13


 129              		.loc 1 123 3 is_stmt 1 view .LVU28
 123:../Src/system_py32f002b.c **** }
 130              		.loc 1 123 19 is_stmt 0 view .LVU29
 131 002a 104A     		ldr	r2, .L10+4
 132 002c 1368     		ldr	r3, [r2]
 133 002e CB40     		lsrs	r3, r3, r1
 134 0030 1360     		str	r3, [r2]
 124:../Src/system_py32f002b.c **** 
 135              		.loc 1 124 1 view .LVU30
 136              		@ sp needed
 137 0032 7047     		bx	lr
 138              	.LVL2:
 139              	.L6:
 105:../Src/system_py32f002b.c ****     break;
 140              		.loc 1 105 5 is_stmt 1 view .LVU31
 105:../Src/system_py32f002b.c ****     break;
 141              		.loc 1 105 21 is_stmt 0 view .LVU32
 142 0034 0D4B     		ldr	r3, .L10+4
 143 0036 8022     		movs	r2, #128
 144 0038 1202     		lsls	r2, r2, #8
 145 003a 1A60     		str	r2, [r3]
 106:../Src/system_py32f002b.c **** #if defined(RCC_LSE_SUPPORT)
 146              		.loc 1 106 5 is_stmt 1 view .LVU33
 147 003c EDE7     		b	.L9
 148              	.L7:
 109:../Src/system_py32f002b.c ****     break;
 149              		.loc 1 109 5 view .LVU34
 109:../Src/system_py32f002b.c ****     break;
 150              		.loc 1 109 21 is_stmt 0 view .LVU35
 151 003e 0B4B     		ldr	r3, .L10+4
 152 0040 8022     		movs	r2, #128
 153 0042 1202     		lsls	r2, r2, #8
 154 0044 1A60     		str	r2, [r3]
 110:../Src/system_py32f002b.c **** #endif /* RCC_LSE_SUPPORT */
 155              		.loc 1 110 5 is_stmt 1 view .LVU36
 156 0046 E8E7     		b	.L9
 157              	.L8:
 114:../Src/system_py32f002b.c ****     hsidiv = (1UL << ((READ_BIT(RCC->CR, RCC_CR_HSIDIV)) >> RCC_CR_HSIDIV_Pos));
 158              		.loc 1 114 5 view .LVU37
 114:../Src/system_py32f002b.c ****     hsidiv = (1UL << ((READ_BIT(RCC->CR, RCC_CR_HSIDIV)) >> RCC_CR_HSIDIV_Pos));
 159              		.loc 1 114 15 is_stmt 0 view .LVU38
 160 0048 0749     		ldr	r1, .L10
 161 004a 4B68     		ldr	r3, [r1, #4]
 114:../Src/system_py32f002b.c ****     hsidiv = (1UL << ((READ_BIT(RCC->CR, RCC_CR_HSIDIV)) >> RCC_CR_HSIDIV_Pos));
 162              		.loc 1 114 55 view .LVU39
 163 004c 5B0B     		lsrs	r3, r3, #13
 114:../Src/system_py32f002b.c ****     hsidiv = (1UL << ((READ_BIT(RCC->CR, RCC_CR_HSIDIV)) >> RCC_CR_HSIDIV_Pos));
 164              		.loc 1 114 11 view .LVU40
 165 004e 0722     		movs	r2, #7
 166 0050 1340     		ands	r3, r2
 167              	.LVL3:
 115:../Src/system_py32f002b.c ****     SystemCoreClock = (HSIFreqTable[hsifs] / hsidiv);
 168              		.loc 1 115 5 is_stmt 1 view .LVU41
 115:../Src/system_py32f002b.c ****     SystemCoreClock = (HSIFreqTable[hsifs] / hsidiv);
 169              		.loc 1 115 24 is_stmt 0 view .LVU42
 170 0052 0968     		ldr	r1, [r1]
 115:../Src/system_py32f002b.c ****     SystemCoreClock = (HSIFreqTable[hsifs] / hsidiv);
ARM GAS  C:\Users\Gautam\AppData\Local\Temp\cc3TcbwT.s 			page 14


 171              		.loc 1 115 58 view .LVU43
 172 0054 C90A     		lsrs	r1, r1, #11
 173 0056 0A40     		ands	r2, r1
 174              	.LVL4:
 116:../Src/system_py32f002b.c ****     break;
 175              		.loc 1 116 5 is_stmt 1 view .LVU44
 116:../Src/system_py32f002b.c ****     break;
 176              		.loc 1 116 36 is_stmt 0 view .LVU45
 177 0058 0749     		ldr	r1, .L10+16
 178 005a 9B00     		lsls	r3, r3, #2
 179              	.LVL5:
 116:../Src/system_py32f002b.c ****     break;
 180              		.loc 1 116 36 view .LVU46
 181 005c 5B58     		ldr	r3, [r3, r1]
 116:../Src/system_py32f002b.c ****     break;
 182              		.loc 1 116 44 view .LVU47
 183 005e D340     		lsrs	r3, r3, r2
 116:../Src/system_py32f002b.c ****     break;
 184              		.loc 1 116 21 view .LVU48
 185 0060 024A     		ldr	r2, .L10+4
 186              	.LVL6:
 116:../Src/system_py32f002b.c ****     break;
 187              		.loc 1 116 21 view .LVU49
 188 0062 1360     		str	r3, [r2]
 117:../Src/system_py32f002b.c ****   }
 189              		.loc 1 117 5 is_stmt 1 view .LVU50
 190 0064 D9E7     		b	.L9
 191              	.L11:
 192 0066 C046     		.align	2
 193              	.L10:
 194 0068 00100240 		.word	1073876992
 195 006c 00000000 		.word	SystemCoreClock
 196 0070 00366E01 		.word	24000000
 197 0074 00000000 		.word	AHBPrescTable
 198 0078 00000000 		.word	HSIFreqTable
 199              		.cfi_endproc
 200              	.LFE37:
 202              		.section	.text.SystemInit,"ax",%progbits
 203              		.align	1
 204              		.global	SystemInit
 205              		.syntax unified
 206              		.code	16
 207              		.thumb_func
 209              	SystemInit:
 210              	.LFB38:
 133:../Src/system_py32f002b.c ****   /*Set the HSI clock to 24MHz by default*/
 211              		.loc 1 133 1 view -0
 212              		.cfi_startproc
 213              		@ args = 0, pretend = 0, frame = 0
 214              		@ frame_needed = 0, uses_anonymous_args = 0
 215 0000 10B5     		push	{r4, lr}
 216              	.LCFI1:
 217              		.cfi_def_cfa_offset 8
 218              		.cfi_offset 4, -8
 219              		.cfi_offset 14, -4
 135:../Src/system_py32f002b.c **** 
 220              		.loc 1 135 3 view .LVU52
ARM GAS  C:\Users\Gautam\AppData\Local\Temp\cc3TcbwT.s 			page 15


 135:../Src/system_py32f002b.c **** 
 221              		.loc 1 135 20 is_stmt 0 view .LVU53
 222 0002 0E49     		ldr	r1, .L13
 223 0004 4B68     		ldr	r3, [r1, #4]
 135:../Src/system_py32f002b.c **** 
 224              		.loc 1 135 28 view .LVU54
 225 0006 1B0C     		lsrs	r3, r3, #16
 226 0008 1B04     		lsls	r3, r3, #16
 135:../Src/system_py32f002b.c **** 
 227              		.loc 1 135 46 view .LVU55
 228 000a 0D4A     		ldr	r2, .L13+4
 229 000c 1268     		ldr	r2, [r2]
 135:../Src/system_py32f002b.c **** 
 230              		.loc 1 135 73 view .LVU56
 231 000e 1204     		lsls	r2, r2, #16
 232 0010 120C     		lsrs	r2, r2, #16
 135:../Src/system_py32f002b.c **** 
 233              		.loc 1 135 42 view .LVU57
 234 0012 1343     		orrs	r3, r2
 135:../Src/system_py32f002b.c **** 
 235              		.loc 1 135 14 view .LVU58
 236 0014 4B60     		str	r3, [r1, #4]
 138:../Src/system_py32f002b.c **** 
 237              		.loc 1 138 3 is_stmt 1 view .LVU59
 138:../Src/system_py32f002b.c **** 
 238              		.loc 1 138 20 is_stmt 0 view .LVU60
 239 0016 4B68     		ldr	r3, [r1, #4]
 138:../Src/system_py32f002b.c **** 
 240              		.loc 1 138 28 view .LVU61
 241 0018 0A4A     		ldr	r2, .L13+8
 242 001a 1340     		ands	r3, r2
 138:../Src/system_py32f002b.c **** 
 243              		.loc 1 138 47 view .LVU62
 244 001c 0A4A     		ldr	r2, .L13+12
 245 001e 1268     		ldr	r2, [r2]
 138:../Src/system_py32f002b.c **** 
 246              		.loc 1 138 83 view .LVU63
 247 0020 1204     		lsls	r2, r2, #16
 248 0022 0A48     		ldr	r0, .L13+16
 249 0024 0240     		ands	r2, r0
 138:../Src/system_py32f002b.c **** 
 250              		.loc 1 138 42 view .LVU64
 251 0026 1343     		orrs	r3, r2
 138:../Src/system_py32f002b.c **** 
 252              		.loc 1 138 14 view .LVU65
 253 0028 4B60     		str	r3, [r1, #4]
 144:../Src/system_py32f002b.c **** #endif /* VECT_TAB_SRAM */
 254              		.loc 1 144 3 is_stmt 1 view .LVU66
 144:../Src/system_py32f002b.c **** #endif /* VECT_TAB_SRAM */
 255              		.loc 1 144 13 is_stmt 0 view .LVU67
 256 002a 094B     		ldr	r3, .L13+20
 257 002c 8022     		movs	r2, #128
 258 002e 1205     		lsls	r2, r2, #20
 259 0030 9A60     		str	r2, [r3, #8]
 150:../Src/system_py32f002b.c **** #endif /* SWD_DELAY */
 260              		.loc 1 150 3 is_stmt 1 view .LVU68
 261 0032 C820     		movs	r0, #200
ARM GAS  C:\Users\Gautam\AppData\Local\Temp\cc3TcbwT.s 			page 16


 262 0034 FFF7FEFF 		bl	DelayTime
 263              	.LVL7:
 152:../Src/system_py32f002b.c **** 
 264              		.loc 1 152 1 is_stmt 0 view .LVU69
 265              		@ sp needed
 266 0038 10BD     		pop	{r4, pc}
 267              	.L14:
 268 003a C046     		.align	2
 269              	.L13:
 270 003c 00100240 		.word	1073876992
 271 0040 0001FF1F 		.word	536805632
 272 0044 FFFF00FE 		.word	-33488897
 273 0048 4401FF1F 		.word	536805700
 274 004c 0000FF01 		.word	33488896
 275 0050 00ED00E0 		.word	-536810240
 276              		.cfi_endproc
 277              	.LFE38:
 279              		.global	HSIFreqTable
 280              		.section	.rodata.HSIFreqTable,"a"
 281              		.align	2
 284              	HSIFreqTable:
 285 0000 00093D00 		.word	4000000
 286 0004 00127A00 		.word	8000000
 287 0008 00000000 		.word	0
 288 000c 00000000 		.word	0
 289 0010 00366E01 		.word	24000000
 290 0014 006CDC02 		.word	48000000
 291 0018 00000000 		.word	0
 292 001c 00000000 		.word	0
 293              		.global	APBPrescTable
 294              		.section	.rodata.APBPrescTable,"a"
 295              		.align	2
 298              	APBPrescTable:
 299 0000 00000000 		.word	0
 300 0004 00000000 		.word	0
 301 0008 00000000 		.word	0
 302 000c 00000000 		.word	0
 303 0010 01000000 		.word	1
 304 0014 02000000 		.word	2
 305 0018 03000000 		.word	3
 306 001c 04000000 		.word	4
 307              		.global	AHBPrescTable
 308              		.section	.rodata.AHBPrescTable,"a"
 309              		.align	2
 312              	AHBPrescTable:
 313 0000 00000000 		.word	0
 314 0004 00000000 		.word	0
 315 0008 00000000 		.word	0
 316 000c 00000000 		.word	0
 317 0010 00000000 		.word	0
 318 0014 00000000 		.word	0
 319 0018 00000000 		.word	0
 320 001c 00000000 		.word	0
 321 0020 01000000 		.word	1
 322 0024 02000000 		.word	2
 323 0028 03000000 		.word	3
 324 002c 04000000 		.word	4
ARM GAS  C:\Users\Gautam\AppData\Local\Temp\cc3TcbwT.s 			page 17


 325 0030 06000000 		.word	6
 326 0034 07000000 		.word	7
 327 0038 08000000 		.word	8
 328 003c 09000000 		.word	9
 329              		.global	SystemCoreClock
 330              		.section	.data.SystemCoreClock,"aw"
 331              		.align	2
 334              	SystemCoreClock:
 335 0000 00366E01 		.word	24000000
 336              		.text
 337              	.Letext0:
 338              		.file 3 "C:/Program Files (x86)/Arm GNU Toolchain arm-none-eabi/14.3 rel1/arm-none-eabi/include/ma
 339              		.file 4 "C:/Program Files (x86)/Arm GNU Toolchain arm-none-eabi/14.3 rel1/arm-none-eabi/include/sy
 340              		.file 5 "../../../PY32F002B_Firmware_V1.2.1/PY32F002B_Firmware_V1.2.1/Drivers/CMSIS/Include/core_c
 341              		.file 6 "../../../PY32F002B_Firmware_V1.2.1/PY32F002B_Firmware_V1.2.1/Drivers/CMSIS/Device/PY32F0x
 342              		.file 7 "../../../PY32F002B_Firmware_V1.2.1/PY32F002B_Firmware_V1.2.1/Drivers/CMSIS/Device/PY32F0x
ARM GAS  C:\Users\Gautam\AppData\Local\Temp\cc3TcbwT.s 			page 18

