ARM GAS  C:\Users\Gautam\AppData\Local\Temp\ccAkBhhC.s 			page 1


   1              		.cpu cortex-m0plus
   2              		.arch armv6s-m
   3              		.fpu softvfp
   4              		.eabi_attribute 20, 1
   5              		.eabi_attribute 21, 1
   6              		.eabi_attribute 23, 3
   7              		.eabi_attribute 24, 1
   8              		.eabi_attribute 25, 1
   9              		.eabi_attribute 26, 1
  10              		.eabi_attribute 30, 1
  11              		.eabi_attribute 34, 0
  12              		.eabi_attribute 18, 4
  13              		.file	"vset_wake.c"
  14              		.text
  15              	.Ltext0:
  16              		.cfi_sections	.debug_frame
  17              		.file 1 "../Src/vset_wake.c"
  18              		.section	.text.VsetWake_Init,"ax",%progbits
  19              		.align	1
  20              		.global	VsetWake_Init
  21              		.syntax unified
  22              		.code	16
  23              		.thumb_func
  25              	VsetWake_Init:
  26              	.LFB37:
   1:../Src/vset_wake.c **** /**
   2:../Src/vset_wake.c ****  ******************************************************************************
   3:../Src/vset_wake.c ****  * @file    vset_wake.c
   4:../Src/vset_wake.c ****  * @brief   60-second Vset wake timer implementation
   5:../Src/vset_wake.c ****  ******************************************************************************
   6:../Src/vset_wake.c ****  */
   7:../Src/vset_wake.c **** 
   8:../Src/vset_wake.c **** #include "vset_wake.h"
   9:../Src/vset_wake.c **** 
  10:../Src/vset_wake.c **** /* 60 seconds in milliseconds */
  11:../Src/vset_wake.c **** #define VSET_WAKE_DURATION_MS 60000 
  12:../Src/vset_wake.c **** 
  13:../Src/vset_wake.c **** static VsetWakeState_t currentState = WAKE_STATE_INIT;
  14:../Src/vset_wake.c **** static uint32_t wakeStartTime = 0;
  15:../Src/vset_wake.c **** 
  16:../Src/vset_wake.c **** void VsetWake_Init(void)
  17:../Src/vset_wake.c **** {
  27              		.loc 1 17 1 view -0
  28              		.cfi_startproc
  29              		@ args = 0, pretend = 0, frame = 0
  30              		@ frame_needed = 0, uses_anonymous_args = 0
  31              		@ link register save eliminated.
  18:../Src/vset_wake.c ****     currentState = WAKE_STATE_INIT;
  32              		.loc 1 18 5 view .LVU1
  33              		.loc 1 18 18 is_stmt 0 view .LVU2
  34 0000 024B     		ldr	r3, .L2
  35 0002 0022     		movs	r2, #0
  36 0004 1A70     		strb	r2, [r3]
  19:../Src/vset_wake.c ****     wakeStartTime = 0;
  37              		.loc 1 19 5 is_stmt 1 view .LVU3
  38              		.loc 1 19 19 is_stmt 0 view .LVU4
  39 0006 024B     		ldr	r3, .L2+4
ARM GAS  C:\Users\Gautam\AppData\Local\Temp\ccAkBhhC.s 			page 2


  40 0008 1A60     		str	r2, [r3]
  20:../Src/vset_wake.c **** }
  41              		.loc 1 20 1 view .LVU5
  42              		@ sp needed
  43 000a 7047     		bx	lr
  44              	.L3:
  45              		.align	2
  46              	.L2:
  47 000c 00000000 		.word	currentState
  48 0010 00000000 		.word	wakeStartTime
  49              		.cfi_endproc
  50              	.LFE37:
  52              		.section	.text.VsetWake_Task,"ax",%progbits
  53              		.align	1
  54              		.global	VsetWake_Task
  55              		.syntax unified
  56              		.code	16
  57              		.thumb_func
  59              	VsetWake_Task:
  60              	.LFB38:
  21:../Src/vset_wake.c **** 
  22:../Src/vset_wake.c **** void VsetWake_Task(void)
  23:../Src/vset_wake.c **** {
  61              		.loc 1 23 1 is_stmt 1 view -0
  62              		.cfi_startproc
  63              		@ args = 0, pretend = 0, frame = 0
  64              		@ frame_needed = 0, uses_anonymous_args = 0
  65 0000 10B5     		push	{r4, lr}
  66              	.LCFI0:
  67              		.cfi_def_cfa_offset 8
  68              		.cfi_offset 4, -8
  69              		.cfi_offset 14, -4
  24:../Src/vset_wake.c ****     switch(currentState) 
  70              		.loc 1 24 5 view .LVU7
  71 0002 164B     		ldr	r3, .L8
  72 0004 1B78     		ldrb	r3, [r3]
  73 0006 012B     		cmp	r3, #1
  74 0008 11D0     		beq	.L5
  75 000a 022B     		cmp	r3, #2
  76 000c 1BD0     		beq	.L6
  77 000e 002B     		cmp	r3, #0
  78 0010 0CD1     		bne	.L4
  25:../Src/vset_wake.c ****     {
  26:../Src/vset_wake.c ****         case WAKE_STATE_INIT:
  27:../Src/vset_wake.c ****             /* 1. Turn ON Output (Regulate to Vset) */
  28:../Src/vset_wake.c ****             /* Assuming pulling PA2 (DTC) LOW enables the TL494 output */
  29:../Src/vset_wake.c ****             HAL_GPIO_WritePin(GPIOA, GPIO_PIN_2, GPIO_PIN_RESET); 
  79              		.loc 1 29 13 view .LVU8
  80 0012 A020     		movs	r0, #160
  81 0014 0022     		movs	r2, #0
  82 0016 0421     		movs	r1, #4
  83 0018 C005     		lsls	r0, r0, #23
  84 001a FFF7FEFF 		bl	HAL_GPIO_WritePin
  85              	.LVL0:
  30:../Src/vset_wake.c ****             
  31:../Src/vset_wake.c ****             /* Record the start time using the SysTick timer */
  32:../Src/vset_wake.c ****             wakeStartTime = HAL_GetTick(); 
ARM GAS  C:\Users\Gautam\AppData\Local\Temp\ccAkBhhC.s 			page 3


  86              		.loc 1 32 13 view .LVU9
  87              		.loc 1 32 29 is_stmt 0 view .LVU10
  88 001e FFF7FEFF 		bl	HAL_GetTick
  89              	.LVL1:
  90              		.loc 1 32 27 discriminator 1 view .LVU11
  91 0022 0F4B     		ldr	r3, .L8+4
  92 0024 1860     		str	r0, [r3]
  33:../Src/vset_wake.c ****             currentState = WAKE_STATE_ACTIVE;
  93              		.loc 1 33 13 is_stmt 1 view .LVU12
  94              		.loc 1 33 26 is_stmt 0 view .LVU13
  95 0026 0D4B     		ldr	r3, .L8
  96 0028 0122     		movs	r2, #1
  97 002a 1A70     		strb	r2, [r3]
  34:../Src/vset_wake.c ****             break;
  98              		.loc 1 34 13 is_stmt 1 view .LVU14
  99              	.L4:
  35:../Src/vset_wake.c **** 
  36:../Src/vset_wake.c ****         case WAKE_STATE_ACTIVE:
  37:../Src/vset_wake.c ****             /* 2. Wait for 60 seconds non-blocking */
  38:../Src/vset_wake.c ****             if ((HAL_GetTick() - wakeStartTime) >= VSET_WAKE_DURATION_MS) 
  39:../Src/vset_wake.c ****             {
  40:../Src/vset_wake.c ****                 currentState = WAKE_STATE_EVALUATE;
  41:../Src/vset_wake.c ****             }
  42:../Src/vset_wake.c ****             break;
  43:../Src/vset_wake.c **** 
  44:../Src/vset_wake.c ****         case WAKE_STATE_EVALUATE:
  45:../Src/vset_wake.c ****             /* 3. 60 Seconds is up. Battery Detection Logic goes here. */
  46:../Src/vset_wake.c ****             /* TODO: Read ADC Battery Voltage */
  47:../Src/vset_wake.c ****             /* If Voltage < 20% Vset -> BTNG Fault -> Turn OFF PA2 */
  48:../Src/vset_wake.c ****             /* If Voltage >= 65% Vset -> Normal Charge Phase */
  49:../Src/vset_wake.c ****             
  50:../Src/vset_wake.c ****             /* Disable output for now as a safety default until ADC is mapped */
  51:../Src/vset_wake.c ****             HAL_GPIO_WritePin(GPIOA, GPIO_PIN_2, GPIO_PIN_SET); 
  52:../Src/vset_wake.c ****             
  53:../Src/vset_wake.c ****             currentState = WAKE_STATE_COMPLETE;
  54:../Src/vset_wake.c ****             break;
  55:../Src/vset_wake.c **** 
  56:../Src/vset_wake.c ****         case WAKE_STATE_COMPLETE:
  57:../Src/vset_wake.c ****             /* Timer is done. Awaiting AC Reset to trigger again. */
  58:../Src/vset_wake.c ****             break;
  59:../Src/vset_wake.c ****     }
  60:../Src/vset_wake.c **** }
 100              		.loc 1 60 1 is_stmt 0 view .LVU15
 101              		@ sp needed
 102 002c 10BD     		pop	{r4, pc}
 103              	.L5:
  38:../Src/vset_wake.c ****             {
 104              		.loc 1 38 13 is_stmt 1 view .LVU16
  38:../Src/vset_wake.c ****             {
 105              		.loc 1 38 18 is_stmt 0 view .LVU17
 106 002e FFF7FEFF 		bl	HAL_GetTick
 107              	.LVL2:
  38:../Src/vset_wake.c ****             {
 108              		.loc 1 38 32 discriminator 1 view .LVU18
 109 0032 0B4B     		ldr	r3, .L8+4
 110 0034 1B68     		ldr	r3, [r3]
 111 0036 C01A     		subs	r0, r0, r3
ARM GAS  C:\Users\Gautam\AppData\Local\Temp\ccAkBhhC.s 			page 4


  38:../Src/vset_wake.c ****             {
 112              		.loc 1 38 16 discriminator 1 view .LVU19
 113 0038 0A4B     		ldr	r3, .L8+8
 114 003a 9842     		cmp	r0, r3
 115 003c F6D9     		bls	.L4
  40:../Src/vset_wake.c ****             }
 116              		.loc 1 40 17 is_stmt 1 view .LVU20
  40:../Src/vset_wake.c ****             }
 117              		.loc 1 40 30 is_stmt 0 view .LVU21
 118 003e 074B     		ldr	r3, .L8
 119 0040 0222     		movs	r2, #2
 120 0042 1A70     		strb	r2, [r3]
 121 0044 F2E7     		b	.L4
 122              	.L6:
  51:../Src/vset_wake.c ****             
 123              		.loc 1 51 13 is_stmt 1 view .LVU22
 124 0046 A020     		movs	r0, #160
 125 0048 0122     		movs	r2, #1
 126 004a 0421     		movs	r1, #4
 127 004c C005     		lsls	r0, r0, #23
 128 004e FFF7FEFF 		bl	HAL_GPIO_WritePin
 129              	.LVL3:
  53:../Src/vset_wake.c ****             break;
 130              		.loc 1 53 13 view .LVU23
  53:../Src/vset_wake.c ****             break;
 131              		.loc 1 53 26 is_stmt 0 view .LVU24
 132 0052 024B     		ldr	r3, .L8
 133 0054 0322     		movs	r2, #3
 134 0056 1A70     		strb	r2, [r3]
  54:../Src/vset_wake.c **** 
 135              		.loc 1 54 13 is_stmt 1 view .LVU25
 136              		.loc 1 60 1 is_stmt 0 view .LVU26
 137 0058 E8E7     		b	.L4
 138              	.L9:
 139 005a C046     		.align	2
 140              	.L8:
 141 005c 00000000 		.word	currentState
 142 0060 00000000 		.word	wakeStartTime
 143 0064 5FEA0000 		.word	59999
 144              		.cfi_endproc
 145              	.LFE38:
 147              		.section	.text.VsetWake_GetState,"ax",%progbits
 148              		.align	1
 149              		.global	VsetWake_GetState
 150              		.syntax unified
 151              		.code	16
 152              		.thumb_func
 154              	VsetWake_GetState:
 155              	.LFB39:
  61:../Src/vset_wake.c **** 
  62:../Src/vset_wake.c **** VsetWakeState_t VsetWake_GetState(void)
  63:../Src/vset_wake.c **** {
 156              		.loc 1 63 1 is_stmt 1 view -0
 157              		.cfi_startproc
 158              		@ args = 0, pretend = 0, frame = 0
 159              		@ frame_needed = 0, uses_anonymous_args = 0
 160              		@ link register save eliminated.
ARM GAS  C:\Users\Gautam\AppData\Local\Temp\ccAkBhhC.s 			page 5


  64:../Src/vset_wake.c ****     return currentState;
 161              		.loc 1 64 5 view .LVU28
 162              		.loc 1 64 12 is_stmt 0 view .LVU29
 163 0000 014B     		ldr	r3, .L11
 164              		.loc 1 64 12 discriminator 1 view .LVU30
 165 0002 1878     		ldrb	r0, [r3]
  65:../Src/vset_wake.c **** }...
 166              		.loc 1 65 1 view .LVU31
 167              		@ sp needed
 168 0004 7047     		bx	lr
 169              	.L12:
 170 0006 C046     		.align	2
 171              	.L11:
 172 0008 00000000 		.word	currentState
 173              		.cfi_endproc
 174              	.LFE39:
 176              		.section	.bss.wakeStartTime,"aw",%nobits
 177              		.align	2
 180              	wakeStartTime:
 181 0000 00000000 		.space	4
 182              		.section	.bss.currentState,"aw",%nobits
 185              	currentState:
 186 0000 00       		.space	1
 187              		.text
 188              	.Letext0:
 189              		.file 2 "C:/Program Files (x86)/Arm GNU Toolchain arm-none-eabi/14.3 rel1/arm-none-eabi/include/ma
 190              		.file 3 "C:/Program Files (x86)/Arm GNU Toolchain arm-none-eabi/14.3 rel1/arm-none-eabi/include/sy
 191              		.file 4 "../../../PY32F002B_Firmware_V1.2.1/PY32F002B_Firmware_V1.2.1/Drivers/CMSIS/Device/PY32F0x
 192              		.file 5 "../../../PY32F002B_Firmware_V1.2.1/PY32F002B_Firmware_V1.2.1/Drivers/PY32F002B_HAL_Driver
 193              		.file 6 "../Inc/vset_wake.h"
 194              		.file 7 "../../../PY32F002B_Firmware_V1.2.1/PY32F002B_Firmware_V1.2.1/Drivers/PY32F002B_HAL_Driver
ARM GAS  C:\Users\Gautam\AppData\Local\Temp\ccAkBhhC.s 			page 6

